(dp0
S'Improper Control of a Resource Through its Lifetime'
p1
(dp2
S'count'
p3
I10060
sS'truepos'
p4
I62
sS'falseneg'
p5
I18
sS'correction'
p6
S'no'
p7
sS'unknownyes'
p8
I1
sS'falsepos'
p9
I0
sS'unique'
p10
I6800
ssS'Arbitrary Code'
p11
(dp12
g3
I8352
sg4
I80
sg5
I25
sg6
g7
sg8
I13
sg9
I0
sg10
I6300
ss.