(dp0
S'Code Quality'
p1
(dp2
S'count'
p3
I26600
sS'truepos'
p4
I25
sS'falseneg'
p5
I4
sS'correction'
p6
S'machine'
p7
sS'unknownyes'
p8
I0
sS'falsepos'
p9
I0
sS'unique'
p10
I18500
ssS'Other'
p11
(dp12
g3
I22300
sg4
I34
sg5
I8
sg6
g7
sg8
I0
sg9
I0
sg10
I16200
ssS'Range Error'
p13
(dp14
g3
I24450
sg4
I26
sg5
I6
sg6
g7
sg8
I0
sg9
I0
sg10
I16900
ssS'Improper Control of a Resource Through its Lifetime'
p15
(dp16
g3
I16150
sg4
I70
sg5
I11
sg6
g7
sg8
I0
sg9
I0
sg10
I10900
ssS'Arbitrary Code'
p17
(dp18
g3
I18850
sg4
I106
sg5
I11
sg6
g7
sg8
I1
sg9
I0
sg10
I12700
ss.