(dp0
S'Other'
p1
(dp2
S'count'
p3
I14400
sS'truepos'
p4
I23
sS'falseneg'
p5
I18
sS'correction'
p6
S'no'
p7
sS'unknownyes'
p8
I1
sS'falsepos'
p9
I0
sS'unique'
p10
I14400
ssS'Improper Control of a Resource Through its Lifetime'
p11
(dp12
g3
I17400
sg4
I50
sg5
I31
sg6
g7
sg8
I0
sg9
I0
sg10
I17400
ssS'Range Error'
p13
(dp14
S'count'
p15
I16800
sS'truepos'
p16
I20
sS'falseneg'
p17
I12
sS'correction'
p18
S'no'
p19
sS'unknownyes'
p20
I0
sS'falsepos'
p21
I0
sS'unique'
p22
I16800
ssS'Arbitrary Code'
p23
(dp24
g3
I14700
sg4
I61
sg5
I55
sg6
g7
sg8
I2
sg9
I0
sg10
I14700
ss.