(dp0
S'Improper Control of a Resource Through its Lifetime'
p1
(dp2
S'count'
p3
I13957
sS'truepos'
p4
I67
sS'falseneg'
p5
I12
sS'correction'
p6
S'no'
p7
sS'unknownyes'
p8
I2
sS'falsepos'
p9
I0
sS'unique'
p10
I9100
ssS'Arbitrary Code'
p11
(dp12
g3
I5056
sg4
I77
sg5
I18
sg6
g7
sg8
I23
sg9
I0
sg10
I3700
ss.