(dp0
S'Other'
p1
(dp2
S'count'
p3
I22350
sS'truepos'
p4
I39
sS'falseneg'
p5
I2
sS'correction'
p6
S'machine'
p7
sS'unknownyes'
p8
I1
sS'falsepos'
p9
I0
sS'unique'
p10
I15300
ssS'Range Error'
p11
(dp12
g3
I24450
sg4
I28
sg5
I4
sg6
g7
sg8
I0
sg9
I0
sg10
I16500
ssS'Improper Control of a Resource Through its Lifetime'
p13
(dp14
g3
I20400
sg4
I74
sg5
I7
sg6
g7
sg8
I0
sg9
I0
sg10
I13700
ssS'Arbitrary Code'
p15
(dp16
g3
I18150
sg4
I104
sg5
I13
sg6
g7
sg8
I1
sg9
I0
sg10
I12200
ss.