(dp0
S'all'
p1
(dp2
S'count'
p3
I31632
sS'truepos'
p4
I224
sS'falseneg'
p5
I46
sS'correction'
p6
S'machine'
p7
sS'unknownyes'
p8
I1
sS'falsepos'
p9
I0
sS'unique'
p10
I15800
ssS'Improper Control of a Resource Through its Lifetime'
p11
(dp12
g3
I23734
sg4
I66
sg5
I15
sg6
g7
sg8
I0
sg9
I0
sg10
I11900
ssS'Code Quality'
p13
(dp14
S'count'
p15
I32015
sS'truepos'
p16
I27
sS'falseneg'
p17
I2
sS'correction'
p18
S'machine'
p19
sS'unknownyes'
p20
I0
sS'falsepos'
p21
I0
sS'unique'
p22
I16700
ssS'Other'
p23
(dp24
g3
I25311
sg4
I29
sg5
I12
sg6
g7
sg8
I1
sg9
I0
sg10
I12900
ssS'Range Error'
p25
(dp26
g15
I33015
sg16
I29
sg17
I3
sg18
g19
sg20
I0
sg21
I0
sg22
I17700
ssS'Arbitrary Code'
p27
(dp28
g3
I21958
sg4
I93
sg5
I21
sg6
g7
sg8
I4
sg9
I0
sg10
I11000
ss.