(dp0
S'all'
p1
(dp2
S'count'
p3
I23348
sS'truepos'
p4
I235
sS'falseneg'
p5
I35
sS'correction'
p6
S'machine'
p7
sS'unknownyes'
p8
I1
sS'falsepos'
p9
I0
sS'unique'
p10
I11700
ssS'Improper Control of a Resource Through its Lifetime'
p11
(dp12
S'count'
p13
I26642
sS'truepos'
p14
I72
sS'falseneg'
p15
I9
sS'correction'
p16
S'machine'
p17
sS'unknownyes'
p18
I0
sS'falsepos'
p19
I0
sS'unique'
p20
I13600
ssS'Code Quality'
p21
(dp22
g3
I34313
sg4
I27
sg5
I2
sg6
g7
sg8
I0
sg9
I0
sg10
I17800
ssS'Other'
p23
(dp24
g13
I29021
sg14
I35
sg15
I6
sg16
g17
sg18
I1
sg19
I0
sg20
I14900
ssS'Range Error'
p25
(dp26
g3
I31917
sg4
I27
sg5
I5
sg6
g7
sg8
I0
sg9
I0
sg10
I17400
ssS'Arbitrary Code'
p27
(dp28
g13
I24755
sg14
I89
sg15
I29
sg16
g17
sg18
I0
sg19
I0
sg20
I12500
ss.