(dp0
S'Code Quality'
p1
(dp2
S'count'
p3
I21250
sS'truepos'
p4
I26
sS'falseneg'
p5
I3
sS'correction'
p6
S'machine'
p7
sS'unknownyes'
p8
I0
sS'falsepos'
p9
I0
sS'unique'
p10
I14200
ssS'Other'
p11
(dp12
g3
I21900
sg4
I37
sg5
I4
sg6
g7
sg8
I1
sg9
I0
sg10
I15300
ssS'Range Error'
p13
(dp14
g3
I24450
sg4
I28
sg5
I4
sg6
g7
sg8
I0
sg9
I0
sg10
I16600
ssS'Improper Control of a Resource Through its Lifetime'
p15
(dp16
g3
I22750
sg4
I71
sg5
I10
sg6
g7
sg8
I0
sg9
I0
sg10
I15700
ssS'Arbitrary Code'
p17
(dp18
g3
I15250
sg4
I101
sg5
I12
sg6
g7
sg8
I5
sg9
I0
sg10
I10300
ss.