(dp0
S'Code Quality'
p1
(dp2
S'count'
p3
I15700
sS'truepos'
p4
I23
sS'falseneg'
p5
I6
sS'correction'
p6
S'no'
p7
sS'unknownyes'
p8
I0
sS'falsepos'
p9
I0
sS'unique'
p10
I15700
ssS'Other'
p11
(dp12
g3
I17000
sg4
I30
sg5
I12
sg6
g7
sg8
I0
sg9
I0
sg10
I17000
ssS'Range Error'
p13
(dp14
g3
I19200
sg4
I23
sg5
I9
sg6
g7
sg8
I0
sg9
I0
sg10
I19200
ssS'Improper Control of a Resource Through its Lifetime'
p15
(dp16
g3
I14900
sg4
I56
sg5
I25
sg6
g7
sg8
I0
sg9
I0
sg10
I14900
ssS'Arbitrary Code'
p17
(dp18
g3
I13900
sg4
I83
sg5
I34
sg6
g7
sg8
I1
sg9
I0
sg10
I13900
ss.