(dp0
S'all'
p1
(dp2
S'machine'
p3
(dp4
S'count'
p5
(lp6
I24800
aI23800
aI25100
aI23800
aI23200
aI24100
aI24000
aI19700
aI25700
aI23950
asS'truepos'
p7
(lp8
I245
aI245
aI229
aI249
aI249
aI240
aI245
aI239
aI244
aI242
asS'falseneg'
p9
(lp10
I25
aI25
aI41
aI21
aI21
aI30
aI25
aI31
aI26
aI28
asS'correction'
p11
(lp12
S'machine'
p13
aS'machine'
p14
aS'machine'
p15
aS'machine'
p16
aS'machine'
p17
aS'machine'
p18
aS'machine'
p19
aS'machine'
p20
aS'machine'
p21
aS'machine'
p22
asS'unknownyes'
p23
(lp24
I1
aI1
aI1
aI1
aI1
aI1
aI1
aI1
aI1
aI1
asS'falsepos'
p25
(lp26
I0
aI0
aI0
aI0
aI0
aI0
aI0
aI0
aI0
aI0
asS'unique'
p27
(lp28
I16700
aI15900
aI16800
aI16000
aI15500
aI16100
aI16100
aI13200
aI17200
aI16000
assS'majority'
p29
(dp30
S'count'
p31
(lp32
I32400
aI32400
aI33800
aI33200
aI34600
aI32400
aI32600
aI33400
aI33000
aI34600
asS'truepos'
p33
(lp34
I250
aI248
aI244
aI248
aI245
aI248
aI255
aI249
aI247
aI249
asS'falseneg'
p35
(lp36
I20
aI22
aI26
aI22
aI25
aI22
aI15
aI21
aI23
aI21
asS'correction'
p37
(lp38
S'no'
p39
aS'no'
p40
aS'no'
p41
aS'no'
p42
aS'no'
p43
aS'no'
p44
aS'no'
p45
aS'no'
p46
aS'no'
p47
aS'no'
p48
asS'unknownyes'
p49
(lp50
I1
aI1
aI1
aI1
aI1
aI1
aI1
aI1
aI1
aI1
asS'falsepos'
p51
(lp52
I0
aI0
aI0
aI0
aI0
aI0
aI0
aI0
aI0
aI0
asS'unique'
p53
(lp54
I16200
aI16200
aI16900
aI16600
aI17300
aI16200
aI16300
aI16700
aI16500
aI17300
assS'none'
p55
(dp56
S'count'
p57
(lp58
I16400
aI18500
aI15600
aI15900
asS'truepos'
p59
(lp60
I180
aI184
aI205
aI195
asS'falseneg'
p61
(lp62
I90
aI86
aI65
aI75
asS'correction'
p63
(lp64
S'no'
p65
aS'no'
p66
aS'no'
p67
aS'no'
p68
asS'unknownyes'
p69
(lp70
I1
aI1
aI1
aI1
asS'falsepos'
p71
(lp72
I0
aI0
aI0
aI0
asS'unique'
p73
(lp74
I16400
aI18500
aI15600
aI15900
assS'machine3'
p75
(dp76
S'count'
p77
(lp78
I33190
aI32986
aI31793
aI33589
aI31905
aI32890
aI32294
aI34596
aI34498
asS'truepos'
p79
(lp80
I260
aI257
aI262
aI260
aI264
aI266
aI263
aI262
aI262
asS'falseneg'
p81
(lp82
I10
aI13
aI8
aI10
aI6
aI4
aI7
aI8
aI8
asS'correction'
p83
(lp84
S'machine'
p85
aS'machine'
p86
aS'machine'
p87
aS'machine'
p88
aS'machine'
p89
aS'machine'
p90
aS'machine'
p91
aS'machine'
p92
aS'machine'
p93
asS'unknownyes'
p94
(lp95
I1
aI1
aI1
aI1
aI1
aI1
aI1
aI1
aI1
asS'falsepos'
p96
(lp97
I0
aI0
aI0
aI0
aI0
aI0
aI0
aI0
aI0
asS'unique'
p98
(lp99
I16600
aI16500
aI15900
aI16900
aI15900
aI16500
aI16100
aI17300
aI17200
assS'knee'
p100
(dp101
S'count'
p102
(lp103
I9641
aI7756
aI8754
aI8964
aI7454
aI6258
aI9647
aI7968
aI2216
aI8067
asS'truepos'
p104
(lp105
I227
aI215
aI224
aI226
aI210
aI214
aI237
aI222
aI107
aI225
asS'falseneg'
p106
(lp107
I36
aI39
aI34
aI34
aI37
aI26
aI23
aI34
aI14
aI35
asS'correction'
p108
(lp109
S'no'
p110
aS'no'
p111
aS'no'
p112
aS'no'
p113
aS'no'
p114
aS'no'
p115
aS'no'
p116
aS'no'
p117
aS'no'
p118
aS'no'
p119
asS'unknownyes'
p120
(lp121
I8
aI17
aI13
aI11
aI24
aI31
aI11
aI15
aI150
aI11
asS'falsepos'
p122
(lp123
I0
aI0
aI0
aI0
aI0
aI0
aI0
aI0
aI0
aI0
asS'unique'
p124
(lp125
I6800
aI5400
aI6500
aI6800
aI5300
aI4500
aI7000
aI6200
aI1200
aI6300
asssS'Improper Control of a Resource Through its Lifetime'
p126
(dp127
g3
(dp128
S'count'
p129
(lp130
I21400
aI21200
aI22650
aI20350
aI17150
aI19000
aI18950
aI19400
aI20250
aI19300
asS'truepos'
p131
(lp132
I76
aI78
aI66
aI77
aI75
aI72
aI71
aI75
aI73
aI70
asS'falseneg'
p133
(lp134
I5
aI3
aI15
aI4
aI6
aI8
aI10
aI6
aI8
aI11
asS'correction'
p135
(lp136
S'machine'
p137
aS'machine'
p138
aS'machine'
p139
aS'machine'
p140
aS'machine'
p141
aS'machine'
p142
aS'machine'
p143
aS'machine'
p144
aS'machine'
p145
aS'machine'
p146
asS'unknownyes'
p147
(lp148
I0
aI0
aI0
aI0
aI0
aI1
aI0
aI0
aI0
aI0
asS'falsepos'
p149
(lp150
I0
aI0
aI0
aI0
aI0
aI0
aI0
aI0
aI0
aI0
asS'unique'
p151
(lp152
I14600
aI14300
aI15700
aI13700
aI11500
aI12700
aI13300
aI13000
aI13600
aI12900
assg29
(dp153
S'count'
p154
(lp155
I28000
aI29800
aI27800
aI26400
aI25800
aI25600
aI30400
aI27000
aI26600
aI22400
asS'truepos'
p156
(lp157
I75
aI73
aI71
aI73
aI79
aI73
aI71
aI75
aI74
aI67
asS'falseneg'
p158
(lp159
I6
aI8
aI10
aI8
aI2
aI7
aI10
aI6
aI7
aI14
asS'correction'
p160
(lp161
S'no'
p162
aS'no'
p163
aS'no'
p164
aS'no'
p165
aS'no'
p166
aS'no'
p167
aS'no'
p168
aS'no'
p169
aS'no'
p170
aS'no'
p171
asS'unknownyes'
p172
(lp173
I0
aI0
aI0
aI0
aI0
aI1
aI0
aI0
aI0
aI0
asS'falsepos'
p174
(lp175
I0
aI0
aI0
aI0
aI0
aI0
aI0
aI0
aI0
aI0
asS'unique'
p176
(lp177
I14000
aI14900
aI13900
aI13200
aI12900
aI12800
aI15200
aI13500
aI13300
aI11200
assg55
(dp178
S'count'
p179
(lp180
I14900
aI14300
aI15300
aI15000
aI13700
aI12200
aI14500
aI13500
aI13000
aI13900
asS'truepos'
p181
(lp182
I60
aI60
aI67
aI55
aI57
aI66
aI62
aI55
aI64
aI57
asS'falseneg'
p183
(lp184
I21
aI20
aI13
aI26
aI24
aI15
aI19
aI26
aI17
aI24
asS'correction'
p185
(lp186
S'no'
p187
aS'no'
p188
aS'no'
p189
aS'no'
p190
aS'no'
p191
ag66
aS'no'
p192
aS'no'
p193
aS'no'
p194
ag68
asS'unknownyes'
p195
(lp196
I0
aI1
aI1
aI0
aI0
aI0
aI0
aI0
aI0
aI0
asS'falsepos'
p197
(lp198
I0
aI0
aI0
aI0
aI0
aI0
aI0
aI0
aI0
aI0
asS'unique'
p199
(lp200
I14900
aI14300
aI15300
aI15000
aI13700
aI12200
aI14500
aI13500
aI13000
aI13900
assg75
(dp201
S'count'
p202
(lp203
I28255
aI28157
aI29358
aI27453
aI25162
aI29254
aI29962
aI25656
aI25153
aI28659
asS'truepos'
p204
(lp205
I77
aI80
aI79
aI78
aI78
aI75
aI80
aI75
aI79
aI79
asS'falseneg'
p206
(lp207
I4
aI1
aI2
aI3
aI3
aI6
aI1
aI6
aI2
aI2
asS'correction'
p208
(lp209
S'machine'
p210
aS'machine'
p211
aS'machine'
p212
aS'machine'
p213
aS'machine'
p214
aS'machine'
p215
aS'machine'
p216
aS'machine'
p217
aS'machine'
p218
aS'machine'
p219
asS'unknownyes'
p220
(lp221
I0
aI0
aI0
aI0
aI0
aI0
aI0
aI0
aI0
aI0
asS'falsepos'
p222
(lp223
I0
aI0
aI0
aI0
aI0
aI0
aI0
aI0
aI0
aI0
asS'unique'
p224
(lp225
I14600
aI14400
aI15500
aI13900
aI12600
aI15000
aI15700
aI12900
aI12700
aI14700
assg100
(dp226
S'count'
p227
(lp228
I11151
aI8046
aI13751
aI9648
aI6462
aI7260
aI12344
aI9059
aI10660
aI8958
asS'truepos'
p229
(lp230
I74
aI71
aI70
aI69
aI66
aI68
aI72
aI65
aI68
aI66
asS'falseneg'
p231
(lp232
I6
aI5
aI10
aI9
aI12
aI10
aI6
aI14
aI12
aI12
asS'correction'
p233
(lp234
S'no'
p235
aS'no'
p236
aS'no'
p237
aS'no'
p238
aS'no'
p239
aS'no'
p240
aS'no'
p241
aS'no'
p242
ag118
aS'no'
p243
asS'unknownyes'
p244
(lp245
I1
aI5
aI1
aI3
aI3
aI3
aI3
aI2
aI1
aI3
asS'falsepos'
p246
(lp247
I0
aI0
aI0
aI0
aI0
aI0
aI0
aI0
aI0
aI0
asS'unique'
p248
(lp249
I8200
aI4700
aI9200
aI6400
aI4900
aI5400
aI7600
aI5800
aI8200
aI6500
asssS'Code Quality'
p250
(dp251
g3
(dp252
g5
(lp253
I26950
aI26700
aI25050
aI23850
aI26800
aI27100
aI24850
aI27250
aI23450
aI28400
asg7
(lp254
I25
aI22
aI25
aI27
aI24
aI26
aI26
aI24
aI27
aI24
asg9
(lp255
I4
aI7
aI4
aI2
aI5
aI3
aI3
aI5
aI2
aI5
asg11
(lp256
g13
ag14
ag15
ag16
ag17
ag18
ag19
ag20
ag21
ag22
asg23
(lp257
I0
aI0
aI0
aI0
aI0
aI0
aI0
aI0
aI0
aI0
asg25
(lp258
I0
aI0
aI0
aI0
aI0
aI0
aI0
aI0
aI0
aI0
asg27
(lp259
I18500
aI18100
aI17000
aI16100
aI18300
aI19800
aI17100
aI19200
aI15800
aI20100
assg29
(dp260
g31
(lp261
I31800
aI34600
aI33000
aI30800
aI28000
aI32600
aI33800
aI34600
aI32200
aI33600
asg33
(lp262
I28
aI26
aI25
aI27
aI27
aI25
aI27
aI27
aI25
aI29
asg35
(lp263
I1
aI3
aI4
aI2
aI2
aI4
aI2
aI2
aI4
aI0
asg37
(lp264
g39
ag40
ag41
ag42
ag43
ag44
ag45
ag46
ag47
ag48
asg49
(lp265
I0
aI0
aI0
aI0
aI0
aI0
aI0
aI0
aI0
aI0
asg51
(lp266
I0
aI0
aI0
aI0
aI0
aI0
aI0
aI0
aI0
aI0
asg53
(lp267
I15900
aI17300
aI16500
aI15400
aI14000
aI16300
aI16900
aI17300
aI16100
aI16800
assg55
(dp268
g57
(lp269
I17700
aI16100
aI17600
aI16900
asg59
(lp270
I21
aI20
aI21
aI24
asg61
(lp271
I8
aI9
aI8
aI5
asg63
(lp272
g65
ag66
ag67
ag68
asg69
(lp273
I0
aI0
aI0
aI0
asg71
(lp274
I0
aI0
aI0
aI0
asg73
(lp275
I17700
aI16100
aI17600
aI16900
assg75
(dp276
g77
(lp277
I34022
aI31523
aI34720
aI32020
aI27319
aI34717
aI35021
aI34617
aI29916
aI32822
asg79
(lp278
I29
aI29
aI28
aI28
aI29
aI28
aI28
aI28
aI28
aI27
asg81
(lp279
I0
aI0
aI1
aI1
aI0
aI1
aI1
aI1
aI1
aI2
asg83
(lp280
g85
ag86
ag87
ag88
ag89
ag215
ag90
ag91
ag92
ag93
asg94
(lp281
I0
aI0
aI0
aI0
aI0
aI0
aI0
aI0
aI0
aI0
asg96
(lp282
I0
aI0
aI0
aI0
aI0
aI0
aI0
aI0
aI0
aI0
asg98
(lp283
I18400
aI16200
aI17800
aI16300
aI13700
aI20000
aI18300
aI17500
aI15200
aI17100
assg100
(dp284
g102
(lp285
I5986
aI7985
aI18881
aI4380
aI5185
aI4782
aI8286
aI13280
aI5084
aI14079
asg104
(lp286
I22
aI24
aI25
aI24
aI23
aI24
aI18
aI25
aI22
aI25
asg106
(lp287
I5
aI3
aI4
aI1
aI3
aI2
aI9
aI2
aI4
aI1
asg108
(lp288
g110
ag111
ag112
ag113
ag114
ag115
ag116
ag117
ag118
ag119
asg120
(lp289
I2
aI2
aI0
aI4
aI3
aI3
aI2
aI2
aI3
aI3
asg122
(lp290
I0
aI0
aI0
aI0
aI0
aI0
aI0
aI0
aI0
aI0
asg124
(lp291
I4200
aI6200
aI12500
aI2500
aI3600
aI3000
aI5400
aI7600
aI3900
aI8400
asssS'Other'
p292
(dp293
g3
(dp294
g129
(lp295
I22000
aI19250
aI23400
aI20950
aI23250
aI22200
aI20950
aI23700
aI25100
aI21050
asg131
(lp296
I37
aI39
aI36
aI39
aI40
aI33
aI40
aI37
aI37
aI36
asg133
(lp297
I4
aI2
aI6
aI2
aI1
aI8
aI1
aI4
aI4
aI5
asg135
(lp298
g137
ag138
ag139
ag140
ag141
ag142
ag143
ag144
ag145
ag146
asg147
(lp299
I1
aI1
aI0
aI1
aI1
aI1
aI1
aI1
aI1
aI1
asg149
(lp300
I0
aI0
aI0
aI0
aI0
aI0
aI0
aI0
aI0
aI0
asg151
(lp301
I15000
aI13100
aI16600
aI14100
aI16200
aI15200
aI14400
aI16500
aI18100
aI14200
assg29
(dp302
g154
(lp303
I31600
aI29200
aI27800
aI27600
aI31600
aI31000
aI28200
aI25800
aI33400
aI26800
asg156
(lp304
I36
aI36
aI38
aI37
aI35
aI32
aI38
aI36
aI36
aI38
asg158
(lp305
I5
aI5
aI3
aI4
aI6
aI9
aI3
aI5
aI5
aI3
asg160
(lp306
g162
ag163
ag164
ag165
ag166
ag167
ag168
ag169
ag170
ag171
asg172
(lp307
I1
aI1
aI1
aI1
aI1
aI1
aI1
aI1
aI1
aI1
asg174
(lp308
I0
aI0
aI0
aI0
aI0
aI0
aI0
aI0
aI0
aI0
asg176
(lp309
I15800
aI14600
aI13900
aI13800
aI15800
aI15500
aI14100
aI12900
aI16700
aI13400
assg55
(dp310
g179
(lp311
I13600
aI14700
aI17100
aI15000
aI15700
aI15700
aI15500
aI13200
aI18700
aI14400
asg181
(lp312
I30
aI29
aI34
aI29
aI27
aI31
aI29
aI30
aI25
aI28
asg183
(lp313
I11
aI12
aI8
aI12
aI14
aI10
aI12
aI11
aI16
aI13
asg185
(lp314
g187
ag188
ag189
ag190
ag191
ag66
ag192
ag193
ag194
ag68
asg195
(lp315
I1
aI1
aI0
aI1
aI1
aI1
aI1
aI1
aI1
aI1
asg197
(lp316
I0
aI0
aI0
aI0
aI0
aI0
aI0
aI0
aI0
aI0
asg199
(lp317
I13600
aI14700
aI17100
aI15000
aI15700
aI15700
aI15500
aI13200
aI18700
aI14400
assg75
(dp318
g202
(lp319
I27830
aI29230
aI26928
aI27424
aI30023
aI29432
aI27528
aI26329
aI29127
aI27325
asg204
(lp320
I40
aI39
aI40
aI40
aI39
aI41
aI38
aI41
aI40
aI39
asg206
(lp321
I1
aI2
aI1
aI1
aI2
aI0
aI3
aI0
aI1
aI2
asg208
(lp322
g210
ag211
ag212
ag213
ag214
ag215
ag216
ag217
ag218
ag219
asg220
(lp323
I1
aI1
aI1
aI1
aI1
aI1
aI1
aI1
aI1
aI1
asg222
(lp324
I0
aI0
aI0
aI0
aI0
aI0
aI0
aI0
aI0
aI0
asg224
(lp325
I14700
aI15000
aI13600
aI13800
aI16300
aI15300
aI14400
aI13200
aI16600
aI13900
assg100
(dp326
g227
(lp327
I4974
aI5879
aI13269
aI2579
aI15376
aI7380
aI10178
aI4083
aI19477
aI4777
asg229
(lp328
I32
aI31
aI40
aI27
aI36
aI31
aI37
aI28
aI38
aI35
asg231
(lp329
I4
aI4
aI0
aI4
aI5
aI7
aI2
aI11
aI3
aI3
asg233
(lp330
g235
ag236
ag237
ag238
ag239
ag240
ag241
ag242
ag118
ag243
asg244
(lp331
I6
aI7
aI2
aI11
aI1
aI4
aI3
aI3
aI1
aI4
asg246
(lp332
I0
aI0
aI0
aI0
aI0
aI0
aI0
aI0
aI0
aI0
asg248
(lp333
I2800
aI3900
aI8300
aI1800
aI11000
aI4900
aI7400
aI2900
aI13600
aI3700
asssS'Range Error'
p334
(dp335
g3
(dp336
g5
(lp337
I25550
aI22800
aI26400
aI27700
aI25050
aI23350
aI25750
aI24600
aI25000
aI21100
asg7
(lp338
I29
aI30
aI29
aI27
aI31
aI29
aI28
aI30
aI31
aI29
asg9
(lp339
I3
aI2
aI3
aI5
aI1
aI3
aI3
aI2
aI1
aI3
asg11
(lp340
g13
ag14
ag15
ag16
ag17
ag18
ag19
ag20
ag21
ag22
asg23
(lp341
I0
aI0
aI0
aI0
aI0
aI0
aI1
aI0
aI0
aI0
asg25
(lp342
I0
aI0
aI0
aI0
aI0
aI0
aI0
aI0
aI0
aI0
asg27
(lp343
I17600
aI15600
aI19500
aI19400
aI17300
aI15800
aI17500
aI17600
aI17200
aI14100
assg29
(dp344
g31
(lp345
I35400
aI33800
aI35400
aI37800
aI36400
aI31600
aI32200
aI26400
aI35000
aI28200
asg33
(lp346
I26
aI31
aI28
aI27
aI28
aI32
aI26
aI32
aI30
aI31
asg35
(lp347
I6
aI1
aI4
aI5
aI4
aI0
aI5
aI0
aI2
aI1
asg37
(lp348
g39
ag40
ag41
ag42
ag43
ag44
ag45
ag46
ag47
ag48
asg49
(lp349
I0
aI0
aI0
aI0
aI0
aI0
aI1
aI0
aI0
aI0
asg51
(lp350
I0
aI0
aI0
aI0
aI0
aI0
aI0
aI0
aI0
aI0
asg53
(lp351
I17700
aI16900
aI17700
aI18900
aI18200
aI15800
aI16100
aI13200
aI17500
aI14100
assg55
(dp352
S'count'
p353
(lp354
I18900
aI18200
aI20800
aI17300
aI16400
aI17300
aI15100
aI19300
aI17700
asS'truepos'
p355
(lp356
I24
aI25
aI22
aI24
aI28
aI27
aI25
aI21
aI23
asS'falseneg'
p357
(lp358
I8
aI7
aI10
aI8
aI4
aI4
aI7
aI11
aI9
asS'correction'
p359
(lp360
S'no'
p361
ag65
aS'no'
p362
aS'no'
p363
ag66
ag67
ag193
ag194
aS'no'
p364
asS'unknownyes'
p365
(lp366
I0
aI0
aI0
aI0
aI0
aI1
aI0
aI0
aI0
asS'falsepos'
p367
(lp368
I0
aI0
aI0
aI0
aI0
aI0
aI0
aI0
aI0
asS'unique'
p369
(lp370
I18900
aI18200
aI20800
aI17300
aI16400
aI17300
aI15100
aI19300
aI17700
assg75
(dp371
g77
(lp372
I33920
aI28225
aI29025
aI30121
aI32722
aI30122
aI31023
aI25523
aI32620
aI28123
asg79
(lp373
I29
aI32
aI29
aI32
aI30
aI30
aI31
aI32
aI30
aI32
asg81
(lp374
I3
aI0
aI3
aI0
aI1
aI2
aI0
aI0
aI2
aI0
asg83
(lp375
g85
ag86
ag87
ag88
ag89
ag215
ag90
ag91
ag92
ag93
asg94
(lp376
I0
aI0
aI0
aI0
aI1
aI0
aI1
aI0
aI0
aI0
asg96
(lp377
I0
aI0
aI0
aI0
aI0
aI0
aI0
aI0
aI0
aI0
asg98
(lp378
I17800
aI14700
aI15700
aI16100
aI19000
aI15400
aI16500
aI12800
aI17100
aI14100
assg100
(dp379
g102
(lp380
I9579
aI9381
aI12877
aI15179
aI7786
aI8577
aI11083
aI10386
aI15177
aI799
asg104
(lp381
I25
aI28
aI27
aI27
aI16
aI29
aI26
aI27
aI31
aI1
asg106
(lp382
I4
aI3
aI3
aI4
aI3
aI2
aI3
aI4
aI1
aI0
asg108
(lp383
g110
ag111
ag112
ag113
ag114
ag115
ag116
ag117
ag118
ag119
asg120
(lp384
I3
aI1
aI2
aI1
aI13
aI1
aI3
aI1
aI0
aI31
asg122
(lp385
I0
aI0
aI0
aI0
aI0
aI0
aI0
aI0
aI0
aI0
asg124
(lp386
I5400
aI6800
aI7200
aI9900
aI4600
aI5800
aI7500
aI7900
aI10000
aI700
asssS'Arbitrary Code'
p387
(dp388
g3
(dp389
g129
(lp390
I14700
aI13400
aI17850
aI23950
aI21000
aI15150
aI15550
aI15650
aI14850
aI14900
asg131
(lp391
I102
aI104
aI102
aI107
aI106
aI105
aI98
aI108
aI103
aI98
asg133
(lp392
I11
aI9
aI15
aI11
aI12
aI11
aI16
aI6
aI10
aI14
asg135
(lp393
g137
ag138
ag139
ag140
ag141
ag142
ag143
ag144
ag145
ag146
asg147
(lp394
I5
aI5
aI1
aI0
aI0
aI2
aI4
aI4
aI5
aI6
asg149
(lp395
I0
aI0
aI0
aI0
aI0
aI0
aI0
aI0
aI0
aI0
asg151
(lp396
I9900
aI9000
aI12100
aI16400
aI14300
aI10200
aI10500
aI10500
aI10000
aI10100
assg29
(dp397
g154
(lp398
I27600
aI22000
aI25600
aI28800
aI27600
aI27800
aI27800
aI24200
aI24600
aI20600
asg156
(lp399
I109
aI104
aI110
aI110
aI113
aI105
aI105
aI100
aI109
aI103
asg158
(lp400
I9
aI12
aI7
aI8
aI5
aI13
aI13
aI17
aI6
aI9
asg160
(lp401
g162
ag163
ag164
ag165
ag166
ag167
ag168
ag169
ag170
ag171
asg172
(lp402
I0
aI2
aI1
aI0
aI0
aI0
aI0
aI1
aI3
aI6
asg174
(lp403
I0
aI0
aI0
aI0
aI0
aI0
aI0
aI0
aI0
aI0
asg176
(lp404
I13800
aI11000
aI12800
aI14400
aI13800
aI13900
aI13900
aI12100
aI12300
aI10300
assg55
(dp405
g179
(lp406
I13700
aI11700
aI13100
aI15900
aI13700
aI13400
aI14900
aI13400
aI13300
aI11600
asg181
(lp407
I82
aI81
aI84
aI76
aI79
aI82
aI80
aI81
aI79
aI80
asg183
(lp408
I35
aI35
aI33
aI42
aI39
aI36
aI38
aI37
aI39
aI35
asg185
(lp409
g187
ag188
ag189
ag190
ag191
ag66
ag192
ag193
ag194
ag68
asg195
(lp410
I1
aI2
aI1
aI0
aI0
aI0
aI0
aI0
aI0
aI3
asg197
(lp411
I0
aI0
aI0
aI0
aI0
aI0
aI0
aI0
aI0
aI0
asg199
(lp412
I13700
aI11700
aI13100
aI15900
aI13700
aI13400
aI14900
aI13400
aI13300
aI11600
assg75
(dp413
g202
(lp414
I24474
aI20479
aI20782
aI26882
aI21478
aI23583
aI24774
aI15287
aI16773
aI18785
asg204
(lp415
I112
aI110
aI107
aI110
aI110
aI110
aI115
aI106
aI107
aI113
asg206
(lp416
I4
aI6
aI10
aI8
aI6
aI7
aI2
aI6
aI5
aI3
asg208
(lp417
g210
ag211
ag212
ag213
ag214
ag215
ag216
ag217
ag218
ag219
asg220
(lp418
I2
aI2
aI1
aI0
aI2
aI1
aI1
aI6
aI6
aI2
asg222
(lp419
I0
aI0
aI0
aI0
aI0
aI0
aI0
aI0
aI0
aI0
asg224
(lp420
I12300
aI10300
aI10500
aI13800
aI11000
aI11900
aI12500
aI7700
aI8500
aI9600
assg100
(dp421
g227
(lp422
I1599
aI1457
aI4649
aI10750
aI15237
aI4846
aI5841
aI7348
aI11933
aI3947
asg229
(lp423
I1
aI52
aI72
aI96
aI102
aI74
aI81
aI86
aI99
aI74
asg231
(lp424
I0
aI4
aI11
aI18
aI15
aI5
aI9
aI19
aI12
aI15
asg233
(lp425
g235
ag236
ag237
ag238
ag239
ag240
ag241
ag242
ag118
ag243
asg244
(lp426
I117
aI62
aI35
aI4
aI1
aI39
aI28
aI13
aI7
aI29
asg246
(lp427
I0
aI0
aI0
aI0
aI0
aI0
aI0
aI0
aI0
aI0
asg248
(lp428
I1400
aI800
aI2900
aI9000
aI11300
aI3000
aI4200
aI6000
aI8200
aI2900
asss.