(dp0
S'Other'
p1
(dp2
S'count'
p3
I18400
sS'truepos'
p4
I23
sS'falseneg'
p5
I19
sS'correction'
p6
S'no'
p7
sS'unknownyes'
p8
I0
sS'falsepos'
p9
I0
sS'unique'
p10
I18400
ssS'Improper Control of a Resource Through its Lifetime'
p11
(dp12
g3
I15600
sg4
I51
sg5
I30
sg6
g7
sg8
I0
sg9
I0
sg10
I15600
ssS'Range Error'
p13
(dp14
S'count'
p15
I17600
sS'truepos'
p16
I24
sS'falseneg'
p17
I8
sS'correction'
p18
S'no'
p19
sS'unknownyes'
p20
I0
sS'falsepos'
p21
I0
sS'unique'
p22
I17600
ssS'Arbitrary Code'
p23
(dp24
g3
I14300
sg4
I63
sg5
I53
sg6
g7
sg8
I2
sg9
I0
sg10
I14300
ss.