(dp0
S'all'
p1
(dp2
S'count'
p3
I33941
sS'truepos'
p4
I270
sS'falseneg'
p5
I0
sS'correction'
p6
S'machine'
p7
sS'unknownyes'
p8
I1
sS'falsepos'
p9
I0
sS'unique'
p10
I16900
ssS'Improper Control of a Resource Through its Lifetime'
p11
(dp12
g3
I20474
sg4
I80
sg5
I1
sg6
g7
sg8
I0
sg9
I0
sg10
I10300
ssS'Code Quality'
p13
(dp14
g3
I28427
sg4
I29
sg5
I0
sg6
g7
sg8
I0
sg9
I0
sg10
I14300
ssS'Other'
p15
(dp16
g3
I29437
sg4
I41
sg5
I0
sg6
g7
sg8
I1
sg9
I0
sg10
I15300
ssS'Range Error'
p17
(dp18
g3
I29728
sg4
I32
sg5
I0
sg6
g7
sg8
I0
sg9
I0
sg10
I15100
ssS'Arbitrary Code'
p19
(dp20
g3
I15605
sg4
I112
sg5
I2
sg6
g7
sg8
I4
sg9
I0
sg10
I7900
ss.