(dp0
S'all'
p1
(dp2
S'count'
p3
I19400
sS'truepos'
p4
I253
sS'falseneg'
p5
I17
sS'correction'
p6
S'machine'
p7
sS'unknownyes'
p8
I1
sS'falsepos'
p9
I0
sS'unique'
p10
I13000
ssS'Improper Control of a Resource Through its Lifetime'
p11
(dp12
g3
I17300
sg4
I75
sg5
I6
sg6
g7
sg8
I0
sg9
I0
sg10
I11700
ssS'Code Quality'
p13
(dp14
g3
I21500
sg4
I28
sg5
I1
sg6
g7
sg8
I0
sg9
I0
sg10
I14400
ssS'Other'
p15
(dp16
g3
I22300
sg4
I39
sg5
I2
sg6
g7
sg8
I1
sg9
I0
sg10
I15500
ssS'Range Error'
p17
(dp18
g3
I23750
sg4
I31
sg5
I1
sg6
g7
sg8
I0
sg9
I0
sg10
I16100
ssS'Arbitrary Code'
p19
(dp20
g3
I15400
sg4
I109
sg5
I5
sg6
g7
sg8
I4
sg9
I0
sg10
I10300
ss.