(dp0
S'all'
p1
(dp2
S'machine'
p3
(dp4
S'count'
p5
(lp6
I26550
aI19250
aI23750
aI24500
aI24250
aI24550
aI25500
aI22000
aI25350
aI19100
asS'truepos'
p7
(lp8
I227
aI226
aI225
aI228
aI216
aI215
aI218
aI226
aI229
aI221
asS'falseneg'
p9
(lp10
I43
aI44
aI45
aI42
aI54
aI55
aI52
aI44
aI41
aI49
asS'correction'
p11
(lp12
S'machine'
p13
aS'machine'
p14
aS'machine'
p15
aS'machine'
p16
aS'machine'
p17
aS'machine'
p18
aS'machine'
p19
aS'machine'
p20
aS'machine'
p21
aS'machine'
p22
asS'unknownyes'
p23
(lp24
I1
aI1
aI1
aI1
aI1
aI1
aI1
aI1
aI1
aI1
asS'falsepos'
p25
(lp26
I0
aI0
aI0
aI0
aI0
aI0
aI0
aI0
aI0
aI0
asS'unique'
p27
(lp28
I17900
aI12900
aI15900
aI16400
aI16200
aI16400
aI17100
aI14700
aI17000
aI12800
assS'majority'
p29
(dp30
S'count'
p31
(lp32
I31800
aI32200
aI33200
aI32800
aI31800
aI32200
aI33000
aI32600
aI31800
aI32200
asS'truepos'
p33
(lp34
I223
aI232
aI220
aI224
aI215
aI223
aI224
aI228
aI224
aI230
asS'falseneg'
p35
(lp36
I47
aI38
aI50
aI46
aI55
aI47
aI46
aI42
aI46
aI40
asS'correction'
p37
(lp38
S'no'
p39
aS'no'
p40
aS'no'
p41
aS'no'
p42
aS'no'
p43
aS'no'
p44
aS'no'
p45
aS'no'
p46
aS'no'
p47
aS'no'
p48
asS'unknownyes'
p49
(lp50
I1
aI1
aI1
aI1
aI1
aI1
aI1
aI1
aI1
aI1
asS'falsepos'
p51
(lp52
I0
aI0
aI0
aI0
aI0
aI0
aI0
aI0
aI0
aI0
asS'unique'
p53
(lp54
I15900
aI16100
aI16600
aI16400
aI15900
aI16100
aI16500
aI16300
aI15900
aI16100
assS'none'
p55
(dp56
S'count'
p57
(lp58
I15600
aI14400
asS'truepos'
p59
(lp60
I155
aI164
asS'falseneg'
p61
(lp62
I115
aI105
asS'correction'
p63
(lp64
S'no'
p65
aS'no'
p66
asS'unknownyes'
p67
(lp68
I1
aI2
asS'falsepos'
p69
(lp70
I0
aI0
asS'unique'
p71
(lp72
I15600
aI14400
assS'machine3'
p73
(dp74
S'count'
p75
(lp76
I33962
aI34061
aI33761
aI31350
aI33054
aI32465
aI34065
aI32670
aI33774
aI31442
asS'truepos'
p77
(lp78
I254
aI259
aI249
aI252
aI259
aI249
aI258
aI253
aI251
aI243
asS'falseneg'
p79
(lp80
I16
aI11
aI21
aI18
aI11
aI21
aI12
aI17
aI19
aI27
asS'correction'
p81
(lp82
S'machine'
p83
aS'machine'
p84
aS'machine'
p85
aS'machine'
p86
aS'machine'
p87
aS'machine'
p88
aS'machine'
p89
aS'machine'
p90
aS'machine'
p91
aS'machine'
p92
asS'unknownyes'
p93
(lp94
I1
aI1
aI1
aI1
aI1
aI1
aI1
aI1
aI1
aI1
asS'falsepos'
p95
(lp96
I0
aI0
aI0
aI0
aI0
aI0
aI0
aI0
aI0
aI0
asS'unique'
p97
(lp98
I17000
aI17000
aI16900
aI15800
aI16500
aI16400
aI17100
aI16300
aI16900
aI15700
assS'knee'
p99
(dp100
S'count'
p101
(lp102
I9978
aI9463
aI9983
aI7776
aI7074
aI9813
aI9273
aI10588
aI6293
asS'truepos'
p103
(lp104
I198
aI211
aI206
aI194
aI194
aI180
aI204
aI197
aI187
asS'falseneg'
p105
(lp106
I63
aI50
aI58
aI57
aI52
aI85
aI57
aI69
aI58
asS'correction'
p107
(lp108
S'no'
p109
aS'no'
p110
aS'no'
p111
aS'no'
p112
aS'no'
p113
aS'no'
p114
aS'no'
p115
aS'no'
p116
aS'no'
p117
asS'unknownyes'
p118
(lp119
I10
aI10
aI7
aI20
aI25
aI6
aI10
aI5
aI26
asS'falsepos'
p120
(lp121
I0
aI0
aI0
aI0
aI0
aI0
aI0
aI0
aI0
asS'unique'
p122
(lp123
I7500
aI6900
aI7700
aI5600
aI4800
aI8200
aI6900
aI7800
aI4800
asssS'Improper Control of a Resource Through its Lifetime'
p124
(dp125
g3
(dp126
S'count'
p127
(lp128
I23100
aI21600
aI22000
aI15850
aI19000
aI15200
aI23950
aI20000
aI23050
aI17200
asS'truepos'
p129
(lp130
I68
aI71
aI67
aI64
aI65
aI65
aI69
aI69
aI65
aI67
asS'falseneg'
p131
(lp132
I13
aI10
aI14
aI17
aI16
aI15
aI12
aI12
aI16
aI14
asS'correction'
p133
(lp134
S'machine'
p135
aS'machine'
p136
aS'machine'
p137
aS'machine'
p138
aS'machine'
p139
aS'machine'
p140
aS'machine'
p141
aS'machine'
p142
aS'machine'
p143
aS'machine'
p144
asS'unknownyes'
p145
(lp146
I0
aI0
aI0
aI0
aI0
aI1
aI0
aI0
aI0
aI0
asS'falsepos'
p147
(lp148
I0
aI0
aI0
aI0
aI0
aI0
aI0
aI0
aI0
aI0
asS'unique'
p149
(lp150
I15800
aI14600
aI14800
aI10800
aI12700
aI10200
aI16600
aI13400
aI15600
aI11500
assg29
(dp151
S'count'
p152
(lp153
I27400
aI29400
aI29400
aI29200
aI29600
aI25800
aI31400
aI28200
aI27200
aI24600
asS'truepos'
p154
(lp155
I71
aI63
aI67
aI63
aI67
aI69
aI68
aI66
aI67
aI68
asS'falseneg'
p156
(lp157
I10
aI18
aI14
aI18
aI14
aI12
aI13
aI15
aI14
aI12
asS'correction'
p158
(lp159
S'no'
p160
aS'no'
p161
aS'no'
p162
aS'no'
p163
aS'no'
p164
aS'no'
p165
aS'no'
p166
aS'no'
p167
aS'no'
p168
aS'no'
p169
asS'unknownyes'
p170
(lp171
I0
aI0
aI0
aI0
aI0
aI0
aI0
aI0
aI0
aI1
asS'falsepos'
p172
(lp173
I0
aI0
aI0
aI0
aI0
aI0
aI0
aI0
aI0
aI0
asS'unique'
p174
(lp175
I13700
aI14700
aI14700
aI14600
aI14800
aI12900
aI15700
aI14100
aI13600
aI12300
assg55
(dp176
S'count'
p177
(lp178
I15600
aI14300
aI14700
aI13400
aI16200
aI14500
aI17400
aI13700
aI14500
aI12300
asS'truepos'
p179
(lp180
I51
aI53
aI49
aI56
aI46
aI41
aI50
aI50
aI44
aI43
asS'falseneg'
p181
(lp182
I30
aI28
aI32
aI25
aI35
aI40
aI31
aI31
aI37
aI38
asS'correction'
p183
(lp184
S'no'
p185
aS'no'
p186
aS'no'
p187
aS'no'
p188
aS'no'
p189
ag66
aS'no'
p190
aS'no'
p191
aS'no'
p192
aS'no'
p193
asS'unknownyes'
p194
(lp195
I0
aI0
aI0
aI0
aI0
aI0
aI0
aI0
aI0
aI0
asS'falsepos'
p196
(lp197
I0
aI0
aI0
aI0
aI0
aI0
aI0
aI0
aI0
aI0
asS'unique'
p198
(lp199
I15600
aI14300
aI14700
aI13400
aI16200
aI14500
aI17400
aI13700
aI14500
aI12300
assg73
(dp200
S'count'
p201
(lp202
I28350
aI28743
aI30341
aI27044
aI25153
aI22547
aI26445
aI27445
aI28256
aI26745
asS'truepos'
p203
(lp204
I75
aI77
aI72
aI74
aI77
aI73
aI76
aI71
aI74
aI74
asS'falseneg'
p205
(lp206
I6
aI4
aI9
aI7
aI4
aI8
aI5
aI10
aI7
aI7
asS'correction'
p207
(lp208
S'machine'
p209
aS'machine'
p210
aS'machine'
p211
aS'machine'
p212
aS'machine'
p213
aS'machine'
p214
aS'machine'
p215
aS'machine'
p216
aS'machine'
p217
aS'machine'
p218
asS'unknownyes'
p219
(lp220
I0
aI0
aI0
aI0
aI0
aI0
aI0
aI0
aI0
aI0
asS'falsepos'
p221
(lp222
I0
aI0
aI0
aI0
aI0
aI0
aI0
aI0
aI0
aI0
asS'unique'
p223
(lp224
I14400
aI14700
aI16200
aI13700
aI12600
aI11700
aI14000
aI13900
aI14600
aI13500
assg99
(dp225
S'count'
p226
(lp227
I9556
aI7159
aI7562
aI7770
aI7055
aI7254
aI14054
aI8053
aI9364
aI8862
asS'truepos'
p228
(lp229
I64
aI57
aI59
aI51
aI63
aI66
aI67
aI63
aI65
aI59
asS'falseneg'
p230
(lp231
I14
aI14
aI20
aI21
aI15
aI12
aI13
aI16
aI13
aI19
asS'correction'
p232
(lp233
S'no'
p234
aS'no'
p235
aS'no'
p236
aS'no'
p237
aS'no'
p238
aS'no'
p239
aS'no'
p240
ag115
aS'no'
p241
aS'no'
p242
asS'unknownyes'
p243
(lp244
I3
aI10
aI2
aI9
aI3
aI3
aI1
aI2
aI3
aI3
asS'falsepos'
p245
(lp246
I0
aI0
aI0
aI0
aI0
aI0
aI0
aI0
aI0
aI0
asS'unique'
p247
(lp248
I5400
aI4100
aI5500
aI5200
aI4400
aI5100
aI9400
aI5100
aI6600
aI6300
asssS'Code Quality'
p249
(dp250
g3
(dp251
g5
(lp252
I22500
aI26350
aI25350
aI24600
aI24850
aI29450
aI27550
aI28450
aI22700
aI26300
asg7
(lp253
I23
aI25
aI25
aI24
aI22
aI22
aI23
aI25
aI28
aI24
asg9
(lp254
I6
aI4
aI4
aI5
aI7
aI7
aI6
aI4
aI1
aI5
asg11
(lp255
g13
ag14
ag15
ag16
ag17
ag18
ag19
ag20
ag21
ag22
asg23
(lp256
I0
aI0
aI0
aI0
aI0
aI0
aI0
aI0
aI0
aI0
asg25
(lp257
I0
aI0
aI0
aI0
aI0
aI0
aI0
aI0
aI0
aI0
asg27
(lp258
I15200
aI18000
aI17200
aI16600
aI17000
aI22000
aI19800
aI19100
aI15300
aI18700
assg29
(dp259
g31
(lp260
I32400
aI33400
aI33200
aI31200
aI28800
aI35400
aI33600
aI35000
aI31600
aI38000
asg33
(lp261
I25
aI22
aI22
aI28
aI25
aI26
aI26
aI24
aI28
aI24
asg35
(lp262
I4
aI7
aI7
aI1
aI4
aI3
aI3
aI5
aI1
aI5
asg37
(lp263
g39
ag40
ag41
ag42
ag43
ag44
ag45
ag46
ag47
ag48
asg49
(lp264
I0
aI0
aI0
aI0
aI0
aI0
aI0
aI0
aI0
aI0
asg51
(lp265
I0
aI0
aI0
aI0
aI0
aI0
aI0
aI0
aI0
aI0
asg53
(lp266
I16200
aI16700
aI16600
aI15600
aI14400
aI17700
aI16800
aI17500
aI15800
aI19000
assg55
(dp267
g57
(lp268
I18300
aI16300
asg59
(lp269
I23
aI21
asg61
(lp270
I6
aI8
asg63
(lp271
g65
ag66
asg67
(lp272
I0
aI0
asg69
(lp273
I0
aI0
asg71
(lp274
I18300
aI16300
assg73
(dp275
g75
(lp276
I31812
aI34116
aI28918
aI31214
aI33517
aI35515
aI34215
aI30619
aI35417
aI32816
asg77
(lp277
I25
aI24
aI25
aI27
aI25
aI24
aI26
aI27
aI27
aI25
asg79
(lp278
I4
aI5
aI4
aI2
aI4
aI5
aI3
aI2
aI2
aI4
asg81
(lp279
g83
ag84
ag85
ag86
ag87
ag88
ag89
ag90
ag91
ag92
asg93
(lp280
I0
aI0
aI0
aI0
aI0
aI0
aI0
aI0
aI0
aI0
asg95
(lp281
I0
aI0
aI0
aI0
aI0
aI0
aI0
aI0
aI0
aI0
asg97
(lp282
I16200
aI17700
aI15000
aI16000
aI17400
aI18900
aI17900
aI15500
aI18700
aI17100
assg99
(dp283
g101
(lp284
I7586
aI5284
aI4186
aI2286
aI10481
aI7280
aI10580
aI12788
aI6584
asg103
(lp285
I20
aI21
aI20
aI16
aI22
aI26
aI27
aI22
aI18
asg105
(lp286
I6
aI5
aI4
aI5
aI4
aI1
aI1
aI4
aI7
asg107
(lp287
g109
ag110
ag111
ag112
ag113
ag114
ag115
ag116
ag117
asg118
(lp288
I3
aI3
aI5
aI8
aI3
aI2
aI1
aI3
aI4
asg120
(lp289
I0
aI0
aI0
aI0
aI0
aI0
aI0
aI0
aI0
asg122
(lp290
I5300
aI3100
aI2500
aI1400
aI6000
aI4500
aI6000
aI7700
aI4200
asssS'Other'
p291
(dp292
g3
(dp293
g127
(lp294
I21850
aI22400
aI19800
aI20900
aI23550
aI24100
aI23500
aI19750
aI24550
aI20700
asg129
(lp295
I38
aI31
aI36
aI34
aI37
aI34
aI34
aI37
aI33
aI32
asg131
(lp296
I3
aI10
aI5
aI7
aI4
aI7
aI7
aI4
aI8
aI9
asg133
(lp297
g135
ag136
ag137
ag138
ag139
ag140
ag141
ag142
ag143
ag144
asg145
(lp298
I1
aI1
aI1
aI1
aI1
aI1
aI1
aI1
aI1
aI1
asg147
(lp299
I0
aI0
aI0
aI0
aI0
aI0
aI0
aI0
aI0
aI0
asg149
(lp300
I14900
aI15200
aI13300
aI14200
aI16400
aI16500
aI16100
aI13200
aI18400
aI13900
assg29
(dp301
g152
(lp302
I31400
aI30200
aI28000
aI25200
aI33800
aI31800
aI28600
aI26000
aI32000
aI28400
asg154
(lp303
I33
aI38
aI36
aI32
aI28
aI33
aI35
aI35
aI35
aI35
asg156
(lp304
I8
aI3
aI5
aI9
aI13
aI8
aI6
aI6
aI6
aI6
asg158
(lp305
g160
ag161
ag162
ag163
ag164
ag165
ag166
ag167
ag168
ag169
asg170
(lp306
I1
aI1
aI1
aI1
aI1
aI1
aI1
aI1
aI1
aI1
asg172
(lp307
I0
aI0
aI0
aI0
aI0
aI0
aI0
aI0
aI0
aI0
asg174
(lp308
I15700
aI15100
aI14000
aI12600
aI16900
aI15900
aI14300
aI13000
aI16000
aI14200
assg55
(dp309
g177
(lp310
I18400
aI15500
aI14300
aI15600
aI16000
aI16500
aI14400
aI14700
aI18000
aI14600
asg179
(lp311
I23
aI22
aI25
aI20
aI26
aI25
aI23
aI29
aI30
aI28
asg181
(lp312
I19
aI19
aI16
aI21
aI15
aI16
aI18
aI12
aI11
aI13
asg183
(lp313
g185
ag186
ag187
ag188
ag189
ag66
ag190
ag191
ag192
ag193
asg194
(lp314
I0
aI1
aI1
aI1
aI1
aI1
aI1
aI1
aI1
aI1
asg196
(lp315
I0
aI0
aI0
aI0
aI0
aI0
aI0
aI0
aI0
aI0
asg198
(lp316
I18400
aI15500
aI14300
aI15600
aI16000
aI16500
aI14400
aI14700
aI18000
aI14600
assg73
(dp317
g201
(lp318
I29227
aI29025
aI28123
aI29722
aI29627
aI27926
aI29721
aI22526
aI27329
aI27525
asg203
(lp319
I37
aI39
aI38
aI36
aI39
aI37
aI37
aI37
aI37
aI37
asg205
(lp320
I4
aI2
aI3
aI5
aI2
aI4
aI4
aI4
aI4
aI4
asg207
(lp321
g209
ag210
ag211
ag212
ag213
ag214
ag215
ag216
ag217
ag218
asg219
(lp322
I1
aI1
aI1
aI1
aI1
aI1
aI1
aI1
aI1
aI1
asg221
(lp323
I0
aI0
aI0
aI0
aI0
aI0
aI0
aI0
aI0
aI0
asg223
(lp324
I15100
aI14900
aI14200
aI16100
aI16100
aI14600
aI15800
aI11300
aI15700
aI14000
assg99
(dp325
g226
(lp326
I6481
aI4282
aI3280
aI6486
aI9181
aI13183
aI7778
aI23975
aI4877
asg228
(lp327
I26
aI26
aI26
aI28
aI32
aI31
aI31
aI33
aI30
asg230
(lp328
I11
aI9
aI7
aI12
aI9
aI10
aI8
aI8
aI6
asg232
(lp329
g234
ag235
ag236
ag237
ag239
ag240
ag115
ag241
ag242
asg243
(lp330
I5
aI7
aI9
aI2
aI1
aI1
aI3
aI1
aI6
asg245
(lp331
I0
aI0
aI0
aI0
aI0
aI0
aI0
aI0
aI0
asg247
(lp332
I4300
aI2700
aI2200
aI5200
aI6100
aI10000
aI5300
aI13800
aI3300
asssS'Range Error'
p333
(dp334
g3
(dp335
g5
(lp336
I27050
aI28100
aI25850
aI25400
aI26700
aI23050
aI24250
aI20950
aI23650
aI22450
asg7
(lp337
I26
aI25
aI29
aI29
aI26
aI25
aI29
aI28
aI26
aI27
asg9
(lp338
I6
aI6
aI3
aI3
aI6
aI7
aI2
aI4
aI6
aI5
asg11
(lp339
g13
ag14
ag15
ag16
ag17
ag18
ag19
ag20
ag21
ag22
asg23
(lp340
I0
aI1
aI0
aI0
aI0
aI0
aI1
aI0
aI0
aI0
asg25
(lp341
I0
aI0
aI0
aI0
aI0
aI0
aI0
aI0
aI0
aI0
asg27
(lp342
I18600
aI19100
aI18000
aI17900
aI18400
aI15600
aI16500
aI14000
aI16300
aI15000
assg29
(dp343
g31
(lp344
I34400
aI36800
aI37000
aI36200
aI31600
aI39200
aI36000
aI28400
aI36200
aI35000
asg33
(lp345
I28
aI25
aI26
aI26
aI28
aI26
aI26
aI28
aI28
aI29
asg35
(lp346
I4
aI7
aI6
aI6
aI4
aI6
aI5
aI4
aI4
aI3
asg37
(lp347
g39
ag40
ag41
ag42
ag43
ag44
ag45
ag46
ag47
ag48
asg49
(lp348
I0
aI0
aI0
aI0
aI0
aI0
aI1
aI0
aI0
aI0
asg51
(lp349
I0
aI0
aI0
aI0
aI0
aI0
aI0
aI0
aI0
aI0
asg53
(lp350
I17200
aI18400
aI18500
aI18100
aI15800
aI19600
aI18000
aI14200
aI18100
aI17500
assg55
(dp351
S'count'
p352
(lp353
I17600
aI18800
aI21100
aI17700
aI17600
aI16800
asS'truepos'
p354
(lp355
I24
aI21
aI21
aI21
aI21
aI20
asS'falseneg'
p356
(lp357
I8
aI11
aI11
aI11
aI11
aI12
asS'correction'
p358
(lp359
S'no'
p360
aS'no'
p361
aS'no'
p362
ag65
aS'no'
p363
aS'no'
p364
asS'unknownyes'
p365
(lp366
I0
aI0
aI0
aI0
aI0
aI0
asS'falsepos'
p367
(lp368
I0
aI0
aI0
aI0
aI0
aI0
asS'unique'
p369
(lp370
I17600
aI18800
aI21100
aI17700
aI17600
aI16800
assg73
(dp371
g75
(lp372
I33022
aI31913
aI31717
aI34821
aI34611
aI33919
aI31620
aI29914
aI34018
aI34018
asg77
(lp373
I31
aI31
aI28
aI29
aI27
aI29
aI29
aI26
aI30
aI29
asg79
(lp374
I1
aI1
aI4
aI3
aI5
aI3
aI2
aI5
aI2
aI3
asg81
(lp375
g83
ag84
ag85
ag86
ag87
ag88
ag89
ag90
ag91
ag92
asg93
(lp376
I0
aI0
aI0
aI0
aI0
aI0
aI1
aI1
aI0
aI0
asg95
(lp377
I0
aI0
aI0
aI0
aI0
aI0
aI0
aI0
aI0
aI0
asg97
(lp378
I17700
aI16600
aI17000
aI18800
aI18200
aI17300
aI16300
aI15200
aI18000
aI18700
assg99
(dp379
g101
(lp380
I11884
aI12481
aI14185
aI7488
aI12285
aI10687
aI7181
aI7384
aI799
asg103
(lp381
I23
aI24
aI20
aI15
aI23
aI22
aI22
aI21
aI1
asg105
(lp382
I5
aI4
aI8
aI5
aI6
aI6
aI5
aI3
aI0
asg107
(lp383
g109
ag110
ag111
ag112
ag113
ag114
ag115
ag116
ag117
asg118
(lp384
I4
aI4
aI4
aI12
aI3
aI4
aI5
aI8
aI31
asg120
(lp385
I0
aI0
aI0
aI0
aI0
aI0
aI0
aI0
aI0
asg122
(lp386
I6900
aI7600
aI8300
aI4500
aI7200
aI6500
aI4100
aI4300
aI700
asssS'Arbitrary Code'
p387
(dp388
g3
(dp389
g127
(lp390
I17800
aI16200
aI20750
aI20450
aI19400
aI20300
aI17950
aI14750
aI19950
aI22550
asg129
(lp391
I95
aI96
aI104
aI93
aI101
aI93
aI94
aI88
aI96
aI99
asg131
(lp392
I23
aI20
aI14
aI24
aI17
aI25
aI22
aI25
aI22
aI19
asg133
(lp393
g135
ag136
ag137
ag138
ag139
ag140
ag141
ag142
ag143
ag144
asg145
(lp394
I0
aI2
aI0
aI1
aI0
aI0
aI2
aI5
aI0
aI0
asg147
(lp395
I0
aI0
aI0
aI0
aI0
aI0
aI0
aI0
aI0
aI0
asg149
(lp396
I12300
aI10900
aI14000
aI13900
aI13100
aI13600
aI12100
aI9900
aI13400
aI15600
assg29
(dp397
g152
(lp398
I28200
aI23000
aI26800
aI29600
aI27600
aI29600
aI27400
aI22800
aI24200
aI21800
asg154
(lp399
I92
aI99
aI91
aI101
aI107
aI100
aI97
aI100
aI104
aI96
asg156
(lp400
I26
aI17
aI27
aI17
aI11
aI18
aI21
aI16
aI12
aI19
asg158
(lp401
g160
ag161
ag162
ag163
ag164
ag165
ag166
ag167
ag168
ag169
asg170
(lp402
I0
aI2
aI0
aI0
aI0
aI0
aI0
aI2
aI2
aI3
asg172
(lp403
I0
aI0
aI0
aI0
aI0
aI0
aI0
aI0
aI0
aI0
asg174
(lp404
I14100
aI11500
aI13400
aI14800
aI13800
aI14800
aI13700
aI11400
aI12100
aI10900
assg55
(dp405
g177
(lp406
I14300
aI10900
aI12300
aI14600
aI14000
aI13800
aI14700
aI12900
aI13100
aI11500
asg179
(lp407
I63
aI67
aI68
aI75
aI81
aI59
aI61
aI57
aI76
aI59
asg181
(lp408
I53
aI47
aI49
aI43
aI37
aI59
aI55
aI61
aI41
aI58
asg183
(lp409
g185
ag186
ag187
ag188
ag189
ag66
ag190
ag191
ag192
ag193
asg194
(lp410
I2
aI4
aI1
aI0
aI0
aI0
aI2
aI0
aI1
aI1
asg196
(lp411
I0
aI0
aI0
aI0
aI0
aI0
aI0
aI0
aI0
aI0
asg198
(lp412
I14300
aI10900
aI12300
aI14600
aI14000
aI13800
aI14700
aI12900
aI13100
aI11500
assg73
(dp413
g201
(lp414
I29476
aI18474
aI20369
aI26263
aI27767
aI17766
aI26381
aI19676
aI24771
aI18271
asg203
(lp415
I113
aI106
aI108
aI102
aI102
aI101
aI108
aI104
aI101
aI108
asg205
(lp416
I5
aI7
aI9
aI16
aI16
aI12
aI10
aI7
aI17
aI7
asg207
(lp417
g209
ag210
ag211
ag212
ag213
ag214
ag215
ag216
ag217
ag218
asg219
(lp418
I0
aI5
aI1
aI0
aI0
aI5
aI0
aI7
aI0
aI3
asg221
(lp419
I0
aI0
aI0
aI0
aI0
aI0
aI0
aI0
aI0
aI0
asg223
(lp420
I15300
aI9300
aI10300
aI13500
aI14100
aI9000
aI13300
aI9900
aI12500
aI9200
assg99
(dp421
g226
(lp422
I1599
aI7655
aI7659
aI20037
aI10659
aI2362
aI13244
aI5351
aI15451
aI8851
asg228
(lp423
I1
aI79
aI76
aI99
aI82
aI56
aI89
aI75
aI92
aI80
asg230
(lp424
I0
aI31
aI32
aI19
aI29
aI8
aI22
aI16
aI17
aI26
asg232
(lp425
g234
ag235
ag236
ag237
ag238
ag239
ag240
ag115
ag241
ag242
asg243
(lp426
I117
aI8
aI10
aI0
aI7
aI54
aI7
aI27
aI9
aI12
asg245
(lp427
I0
aI0
aI0
aI0
aI0
aI0
aI0
aI0
aI0
aI0
asg247
(lp428
I1400
aI6100
aI6100
aI14700
aI8400
aI1300
aI9400
aI4000
aI10500
aI6600
asss.