(dp0
S'Other'
p1
(dp2
S'count'
p3
I3783
sS'truepos'
p4
I30
sS'falseneg'
p5
I6
sS'correction'
p6
S'no'
p7
sS'unknownyes'
p8
I6
sS'falsepos'
p9
I0
sS'unique'
p10
I2200
ssS'Range Error'
p11
(dp12
S'count'
p13
I15789
sS'truepos'
p14
I19
sS'falseneg'
p15
I10
sS'correction'
p16
S'no'
p17
sS'unknownyes'
p18
I3
sS'falsepos'
p19
I0
sS'unique'
p20
I9600
ssS'Improper Control of a Resource Through its Lifetime'
p21
(dp22
g3
I8366
sg4
I53
sg5
I24
sg6
g7
sg8
I4
sg9
I0
sg10
I5000
ssS'Arbitrary Code'
p23
(dp24
g3
I5067
sg4
I60
sg5
I21
sg6
g7
sg8
I37
sg9
I0
sg10
I3100
ss.