(dp0
S'Code Quality'
p1
(dp2
S'count'
p3
I6292
sS'truepos'
p4
I14
sS'falseneg'
p5
I11
sS'correction'
p6
S'no'
p7
sS'unknownyes'
p8
I4
sS'falsepos'
p9
I0
sS'unique'
p10
I4500
ssS'all'
p11
(dp12
g3
I11210
sg4
I177
sg5
I89
sg6
g7
sg8
I5
sg9
I0
sg10
I8700
ssS'Range Error'
p13
(dp14
g3
I5993
sg4
I10
sg5
I8
sg6
g7
sg8
I14
sg9
I0
sg10
I3900
ssS'Improper Control of a Resource Through its Lifetime'
p15
(dp16
S'count'
p17
I10769
sS'truepos'
p18
I55
sS'falseneg'
p19
I24
sS'correction'
p20
S'no'
p21
sS'unknownyes'
p22
I2
sS'falsepos'
p23
I0
sS'unique'
p24
I7400
ssS'Arbitrary Code'
p25
(dp26
g17
I14261
sg18
I80
sg19
I37
sg20
g21
sg22
I1
sg23
I0
sg24
I11000
ss.