(dp0
S'Other'
p1
(dp2
S'count'
p3
I15700
sS'truepos'
p4
I29
sS'falseneg'
p5
I12
sS'correction'
p6
S'no'
p7
sS'unknownyes'
p8
I1
sS'falsepos'
p9
I0
sS'unique'
p10
I15700
ssS'Improper Control of a Resource Through its Lifetime'
p11
(dp12
g3
I13800
sg4
I58
sg5
I23
sg6
g7
sg8
I0
sg9
I0
sg10
I13800
ssS'Arbitrary Code'
p13
(dp14
g3
I15300
sg4
I82
sg5
I36
sg6
g7
sg8
I0
sg9
I0
sg10
I15300
ss.