(dp0
S'Other'
p1
(dp2
S'count'
p3
I7675
sS'truepos'
p4
I28
sS'falseneg'
p5
I5
sS'correction'
p6
S'no'
p7
sS'unknownyes'
p8
I9
sS'falsepos'
p9
I0
sS'unique'
p10
I4300
ssS'Improper Control of a Resource Through its Lifetime'
p11
(dp12
g3
I12247
sg4
I71
sg5
I8
sg6
g7
sg8
I2
sg9
I0
sg10
I8400
ssS'Arbitrary Code'
p13
(dp14
g3
I6157
sg4
I86
sg5
I19
sg6
g7
sg8
I13
sg9
I0
sg10
I5300
ss.