(dp0
S'all'
p1
(dp2
S'count'
p3
I8317
sS'truepos'
p4
I253
sS'falseneg'
p5
I6
sS'correction'
p6
S'no'
p7
sS'unknownyes'
p8
I12
sS'falsepos'
p9
I0
sS'unique'
p10
I6100
ssS'Improper Control of a Resource Through its Lifetime'
p11
(dp12
g3
I8442
sg4
I75
sg5
I3
sg6
g7
sg8
I3
sg9
I0
sg10
I5700
ssS'Code Quality'
p13
(dp14
g3
I4783
sg4
I23
sg5
I0
sg6
g7
sg8
I6
sg9
I0
sg10
I3400
ssS'Other'
p15
(dp16
g3
I8174
sg4
I31
sg5
I1
sg6
g7
sg8
I10
sg9
I0
sg10
I4900
ssS'Range Error'
p17
(dp18
g3
I9875
sg4
I28
sg5
I1
sg6
g7
sg8
I3
sg9
I0
sg10
I5500
ssS'Arbitrary Code'
p19
(dp20
g3
I8727
sg4
I100
sg5
I8
sg6
g7
sg8
I10
sg9
I0
sg10
I6400
ss.