(dp0
S'Code Quality'
p1
(dp2
S'count'
p3
I24650
sS'truepos'
p4
I29
sS'falseneg'
p5
I0
sS'correction'
p6
S'machine'
p7
sS'unknownyes'
p8
I0
sS'falsepos'
p9
I0
sS'unique'
p10
I16800
ssS'Other'
p11
(dp12
g3
I19300
sg4
I41
sg5
I0
sg6
g7
sg8
I1
sg9
I0
sg10
I12900
ssS'Range Error'
p13
(dp14
g3
I20000
sg4
I31
sg5
I0
sg6
g7
sg8
I1
sg9
I0
sg10
I13400
ssS'Improper Control of a Resource Through its Lifetime'
p15
(dp16
g3
I21400
sg4
I81
sg5
I0
sg6
g7
sg8
I0
sg9
I0
sg10
I14500
ssS'Arbitrary Code'
p17
(dp18
g3
I17850
sg4
I115
sg5
I3
sg6
g7
sg8
I0
sg9
I0
sg10
I12000
ss.