(dp0
S'Other'
p1
(dp2
S'count'
p3
I15200
sS'truepos'
p4
I21
sS'falseneg'
p5
I21
sS'correction'
p6
S'no'
p7
sS'unknownyes'
p8
I0
sS'falsepos'
p9
I0
sS'unique'
p10
I15200
ssS'Improper Control of a Resource Through its Lifetime'
p11
(dp12
g3
I11800
sg4
I49
sg5
I31
sg6
g7
sg8
I1
sg9
I0
sg10
I11800
ssS'Arbitrary Code'
p13
(dp14
g3
I15200
sg4
I62
sg5
I56
sg6
g7
sg8
I0
sg9
I0
sg10
I15200
ss.