(dp0
S'all'
p1
(dp2
S'count'
p3
I31141
sS'truepos'
p4
I233
sS'falseneg'
p5
I37
sS'correction'
p6
S'machine'
p7
sS'unknownyes'
p8
I1
sS'falsepos'
p9
I0
sS'unique'
p10
I15700
ssS'Improper Control of a Resource Through its Lifetime'
p11
(dp12
S'count'
p13
I25134
sS'truepos'
p14
I71
sS'falseneg'
p15
I9
sS'correction'
p16
S'machine'
p17
sS'unknownyes'
p18
I1
sS'falsepos'
p19
I0
sS'unique'
p20
I12600
ssS'Code Quality'
p21
(dp22
g3
I34109
sg4
I22
sg5
I7
sg6
g7
sg8
I0
sg9
I0
sg10
I17700
ssS'Other'
p23
(dp24
g13
I30720
sg14
I35
sg15
I6
sg16
g17
sg18
I1
sg19
I0
sg20
I16800
ssS'Range Error'
p25
(dp26
g3
I33710
sg4
I27
sg5
I5
sg6
g7
sg8
I0
sg9
I0
sg10
I17800
ssS'Arbitrary Code'
p27
(dp28
g13
I24451
sg14
I93
sg15
I25
sg16
g17
sg18
I0
sg19
I0
sg20
I12400
ss.