(dp0
S'Other'
p1
(dp2
S'count'
p3
I9481
sS'truepos'
p4
I31
sS'falseneg'
p5
I9
sS'correction'
p6
S'no'
p7
sS'unknownyes'
p8
I2
sS'falsepos'
p9
I0
sS'unique'
p10
I6600
ssS'Improper Control of a Resource Through its Lifetime'
p11
(dp12
g3
I9765
sg4
I59
sg5
I19
sg6
g7
sg8
I3
sg9
I0
sg10
I6900
ssS'Arbitrary Code'
p13
(dp14
g3
I12150
sg4
I76
sg5
I37
sg6
g7
sg8
I5
sg9
I0
sg10
I8800
ss.