(dp0
S'Code Quality'
p1
(dp2
S'count'
p3
I30650
sS'truepos'
p4
I22
sS'falseneg'
p5
I7
sS'correction'
p6
S'machine'
p7
sS'unknownyes'
p8
I0
sS'falsepos'
p9
I0
sS'unique'
p10
I21500
ssS'Other'
p11
(dp12
g3
I21550
sg4
I28
sg5
I13
sg6
g7
sg8
I1
sg9
I0
sg10
I14400
ssS'Improper Control of a Resource Through its Lifetime'
p13
(dp14
g3
I21050
sg4
I65
sg5
I16
sg6
g7
sg8
I0
sg9
I0
sg10
I14100
ssS'Range Error'
p15
(dp16
S'count'
p17
I22150
sS'truepos'
p18
I28
sS'falseneg'
p19
I4
sS'correction'
p20
S'machine'
p21
sS'unknownyes'
p22
I0
sS'falsepos'
p23
I0
sS'unique'
p24
I14800
ssS'Arbitrary Code'
p25
(dp26
g3
I22200
sg4
I82
sg5
I35
sg6
g7
sg8
I1
sg9
I0
sg10
I15000
ss.