(dp0
S'Code Quality'
p1
(dp2
S'count'
p3
I2286
sS'truepos'
p4
I16
sS'falseneg'
p5
I5
sS'correction'
p6
S'no'
p7
sS'unknownyes'
p8
I8
sS'falsepos'
p9
I0
sS'unique'
p10
I1400
ssS'all'
p11
(dp12
g3
I7776
sg4
I194
sg5
I57
sg6
g7
sg8
I20
sg9
I0
sg10
I5600
ssS'Range Error'
p13
(dp14
g3
I7488
sg4
I15
sg5
I5
sg6
g7
sg8
I12
sg9
I0
sg10
I4500
ssS'Improper Control of a Resource Through its Lifetime'
p15
(dp16
S'count'
p17
I7055
sS'truepos'
p18
I63
sS'falseneg'
p19
I15
sS'correction'
p20
S'no'
p21
sS'unknownyes'
p22
I3
sS'falsepos'
p23
I0
sS'unique'
p24
I4400
ssS'Arbitrary Code'
p25
(dp26
g17
I10659
sg18
I82
sg19
I29
sg20
g21
sg22
I7
sg23
I0
sg24
I8400
ss.