(dp0
S'Other'
p1
(dp2
S'count'
p3
I12800
sS'truepos'
p4
I31
sS'falseneg'
p5
I10
sS'correction'
p6
S'no'
p7
sS'unknownyes'
p8
I1
sS'falsepos'
p9
I0
sS'unique'
p10
I12800
ssS'Range Error'
p11
(dp12
g3
I17400
sg4
I25
sg5
I7
sg6
g7
sg8
I0
sg9
I0
sg10
I17400
ssS'Improper Control of a Resource Through its Lifetime'
p13
(dp14
g3
I14000
sg4
I56
sg5
I25
sg6
g7
sg8
I0
sg9
I0
sg10
I14000
ssS'Arbitrary Code'
p15
(dp16
g3
I13600
sg4
I79
sg5
I38
sg6
g7
sg8
I1
sg9
I0
sg10
I13600
ss.