(dp0
S'Other'
p1
(dp2
S'count'
p3
I15700
sS'truepos'
p4
I27
sS'falseneg'
p5
I14
sS'correction'
p6
S'no'
p7
sS'unknownyes'
p8
I1
sS'falsepos'
p9
I0
sS'unique'
p10
I15700
ssS'Improper Control of a Resource Through its Lifetime'
p11
(dp12
g3
I13700
sg4
I57
sg5
I24
sg6
g7
sg8
I0
sg9
I0
sg10
I13700
ssS'Range Error'
p13
(dp14
S'count'
p15
I17300
sS'truepos'
p16
I24
sS'falseneg'
p17
I8
sS'correction'
p18
S'no'
p19
sS'unknownyes'
p20
I0
sS'falsepos'
p21
I0
sS'unique'
p22
I17300
ssS'Arbitrary Code'
p23
(dp24
g3
I13700
sg4
I79
sg5
I39
sg6
g7
sg8
I0
sg9
I0
sg10
I13700
ss.