(dp0
S'all'
p1
(dp2
S'count'
p3
I33800
sS'truepos'
p4
I269
sS'falseneg'
p5
I1
sS'correction'
p6
S'no'
p7
sS'unknownyes'
p8
I1
sS'falsepos'
p9
I0
sS'unique'
p10
I16900
ssS'Improper Control of a Resource Through its Lifetime'
p11
(dp12
S'count'
p13
I28200
sS'truepos'
p14
I81
sS'falseneg'
p15
I0
sS'correction'
p16
S'no'
p17
sS'unknownyes'
p18
I0
sS'falsepos'
p19
I0
sS'unique'
p20
I14100
ssS'Code Quality'
p21
(dp22
g3
I32800
sg4
I29
sg5
I0
sg6
g7
sg8
I0
sg9
I0
sg10
I16400
ssS'Other'
p23
(dp24
g13
I28800
sg14
I41
sg15
I0
sg16
g17
sg18
I1
sg19
I0
sg20
I14400
ssS'Range Error'
p25
(dp26
g3
I36000
sg4
I31
sg5
I1
sg6
g7
sg8
I0
sg9
I0
sg10
I18000
ssS'Arbitrary Code'
p27
(dp28
g13
I21400
sg14
I114
sg15
I2
sg16
g17
sg18
I2
sg19
I0
sg20
I10700
ss.