(dp0
S'Other'
p1
(dp2
S'count'
p3
I25833
sS'truepos'
p4
I39
sS'falseneg'
p5
I2
sS'correction'
p6
S'machine'
p7
sS'unknownyes'
p8
I1
sS'falsepos'
p9
I0
sS'unique'
p10
I13700
ssS'Improper Control of a Resource Through its Lifetime'
p11
(dp12
g3
I28160
sg4
I78
sg5
I3
sg6
g7
sg8
I0
sg9
I0
sg10
I14300
ssS'Arbitrary Code'
p13
(dp14
g3
I18291
sg4
I112
sg5
I5
sg6
g7
sg8
I1
sg9
I0
sg10
I9300
ss.