(dp0
S'all'
p1
(dp2
S'count'
p3
I33200
sS'truepos'
p4
I220
sS'falseneg'
p5
I50
sS'correction'
p6
S'no'
p7
sS'unknownyes'
p8
I1
sS'falsepos'
p9
I0
sS'unique'
p10
I16600
ssS'Improper Control of a Resource Through its Lifetime'
p11
(dp12
S'count'
p13
I29400
sS'truepos'
p14
I67
sS'falseneg'
p15
I14
sS'correction'
p16
S'no'
p17
sS'unknownyes'
p18
I0
sS'falsepos'
p19
I0
sS'unique'
p20
I14700
ssS'Code Quality'
p21
(dp22
g3
I33200
sg4
I22
sg5
I7
sg6
g7
sg8
I0
sg9
I0
sg10
I16600
ssS'Other'
p23
(dp24
g13
I28000
sg14
I36
sg15
I5
sg16
g17
sg18
I1
sg19
I0
sg20
I14000
ssS'Range Error'
p25
(dp26
g3
I37000
sg4
I26
sg5
I6
sg6
g7
sg8
I0
sg9
I0
sg10
I18500
ssS'Arbitrary Code'
p27
(dp28
g13
I26800
sg14
I91
sg15
I27
sg16
g17
sg18
I0
sg19
I0
sg20
I13400
ss.