(dp0
S'Other'
p1
(dp2
S'count'
p3
I14900
sS'truepos'
p4
I34
sS'falseneg'
p5
I7
sS'correction'
p6
S'no'
p7
sS'unknownyes'
p8
I1
sS'falsepos'
p9
I0
sS'unique'
p10
I14900
ssS'Range Error'
p11
(dp12
g3
I17100
sg4
I27
sg5
I5
sg6
g7
sg8
I0
sg9
I0
sg10
I17100
ssS'Improper Control of a Resource Through its Lifetime'
p13
(dp14
g3
I14100
sg4
I62
sg5
I19
sg6
g7
sg8
I0
sg9
I0
sg10
I14100
ssS'Arbitrary Code'
p15
(dp16
g3
I13800
sg4
I93
sg5
I25
sg6
g7
sg8
I0
sg9
I0
sg10
I13800
ss.