(dp0
S'Improper Control of a Resource Through its Lifetime'
p1
(dp2
S'count'
p3
I20250
sS'truepos'
p4
I68
sS'falseneg'
p5
I13
sS'correction'
p6
S'machine'
p7
sS'unknownyes'
p8
I0
sS'falsepos'
p9
I0
sS'unique'
p10
I13600
ssS'Arbitrary Code'
p11
(dp12
g3
I19650
sg4
I99
sg5
I19
sg6
g7
sg8
I0
sg9
I0
sg10
I13200
ss.