(dp0
S'all'
p1
(dp2
S'count'
p3
I33000
sS'truepos'
p4
I224
sS'falseneg'
p5
I46
sS'correction'
p6
S'no'
p7
sS'unknownyes'
p8
I1
sS'falsepos'
p9
I0
sS'unique'
p10
I16500
ssS'Improper Control of a Resource Through its Lifetime'
p11
(dp12
S'count'
p13
I31400
sS'truepos'
p14
I68
sS'falseneg'
p15
I13
sS'correction'
p16
S'no'
p17
sS'unknownyes'
p18
I0
sS'falsepos'
p19
I0
sS'unique'
p20
I15700
ssS'Code Quality'
p21
(dp22
g3
I33600
sg4
I26
sg5
I3
sg6
g7
sg8
I0
sg9
I0
sg10
I16800
ssS'Other'
p23
(dp24
g13
I28600
sg14
I35
sg15
I6
sg16
g17
sg18
I1
sg19
I0
sg20
I14300
ssS'Range Error'
p25
(dp26
g3
I36000
sg4
I26
sg5
I5
sg6
g7
sg8
I1
sg9
I0
sg10
I18000
ssS'Arbitrary Code'
p27
(dp28
g13
I27400
sg14
I97
sg15
I21
sg16
g17
sg18
I0
sg19
I0
sg20
I13700
ss.