(dp0
S'all'
p1
(dp2
S'count'
p3
I8201
sS'truepos'
p4
I257
sS'falseneg'
p5
I0
sS'correction'
p6
S'no'
p7
sS'unknownyes'
p8
I14
sS'falsepos'
p9
I0
sS'unique'
p10
I6200
ssS'Improper Control of a Resource Through its Lifetime'
p11
(dp12
g3
I10135
sg4
I79
sg5
I0
sg6
g7
sg8
I2
sg9
I0
sg10
I7200
ssS'Code Quality'
p13
(dp14
g3
I3779
sg4
I26
sg5
I0
sg6
g7
sg8
I3
sg9
I0
sg10
I2800
ssS'Other'
p15
(dp16
g3
I6470
sg4
I31
sg5
I0
sg6
g7
sg8
I11
sg9
I0
sg10
I3800
ssS'Range Error'
p17
(dp18
g3
I13172
sg4
I31
sg5
I0
sg6
g7
sg8
I1
sg9
I0
sg10
I8600
ssS'Arbitrary Code'
p19
(dp20
g3
I8523
sg4
I108
sg5
I0
sg6
g7
sg8
I10
sg9
I0
sg10
I6700
ss.