(dp0
S'Code Quality'
p1
(dp2
S'count'
p3
I36000
sS'truepos'
p4
I27
sS'falseneg'
p5
I2
sS'correction'
p6
S'no'
p7
sS'unknownyes'
p8
I0
sS'falsepos'
p9
I0
sS'unique'
p10
I18000
ssS'Other'
p11
(dp12
g3
I30800
sg4
I37
sg5
I4
sg6
g7
sg8
I1
sg9
I0
sg10
I15400
ssS'Range Error'
p13
(dp14
g3
I38800
sg4
I27
sg5
I5
sg6
g7
sg8
I0
sg9
I0
sg10
I19400
ssS'Improper Control of a Resource Through its Lifetime'
p15
(dp16
g3
I25200
sg4
I64
sg5
I17
sg6
g7
sg8
I0
sg9
I0
sg10
I12600
ssS'Arbitrary Code'
p17
(dp18
g3
I27400
sg4
I95
sg5
I23
sg6
g7
sg8
I0
sg9
I0
sg10
I13700
ss.