(dp0
S'Other'
p1
(dp2
S'count'
p3
I22900
sS'truepos'
p4
I29
sS'falseneg'
p5
I12
sS'correction'
p6
S'machine'
p7
sS'unknownyes'
p8
I1
sS'falsepos'
p9
I0
sS'unique'
p10
I15400
ssS'Improper Control of a Resource Through its Lifetime'
p11
(dp12
g3
I21800
sg4
I59
sg5
I22
sg6
g7
sg8
I0
sg9
I0
sg10
I14800
ssS'Range Error'
p13
(dp14
S'count'
p15
I28600
sS'truepos'
p16
I23
sS'falseneg'
p17
I9
sS'correction'
p18
S'machine'
p19
sS'unknownyes'
p20
I0
sS'falsepos'
p21
I0
sS'unique'
p22
I20000
ssS'Arbitrary Code'
p23
(dp24
g3
I20900
sg4
I79
sg5
I39
sg6
g7
sg8
I0
sg9
I0
sg10
I14200
ss.