(dp0
S'all'
p1
(dp2
S'count'
p3
I32434
sS'truepos'
p4
I226
sS'falseneg'
p5
I44
sS'correction'
p6
S'machine'
p7
sS'unknownyes'
p8
I1
sS'falsepos'
p9
I0
sS'unique'
p10
I16300
ssS'Improper Control of a Resource Through its Lifetime'
p11
(dp12
S'count'
p13
I29541
sS'truepos'
p14
I70
sS'falseneg'
p15
I11
sS'correction'
p16
S'machine'
p17
sS'unknownyes'
p18
I0
sS'falsepos'
p19
I0
sS'unique'
p20
I17300
ssS'Code Quality'
p21
(dp22
g3
I33616
sg4
I26
sg5
I3
sg6
g7
sg8
I0
sg9
I0
sg10
I17600
ssS'Other'
p23
(dp24
g13
I29926
sg14
I37
sg15
I4
sg16
g17
sg18
I1
sg19
I0
sg20
I15600
ssS'Range Error'
p25
(dp26
g3
I30219
sg4
I29
sg5
I2
sg6
g7
sg8
I1
sg9
I0
sg10
I15600
ssS'Arbitrary Code'
p27
(dp28
g13
I25161
sg14
I104
sg15
I13
sg16
g17
sg18
I1
sg19
I0
sg20
I12700
ss.