(dp0
S'Other'
p1
(dp2
S'count'
p3
I13783
sS'truepos'
p4
I27
sS'falseneg'
p5
I11
sS'correction'
p6
S'no'
p7
sS'unknownyes'
p8
I4
sS'falsepos'
p9
I0
sS'unique'
p10
I9300
ssS'Range Error'
p11
(dp12
g3
I10681
sg4
I23
sg5
I7
sg6
g7
sg8
I2
sg9
I0
sg10
I6700
ssS'Improper Control of a Resource Through its Lifetime'
p13
(dp14
g3
I13074
sg4
I60
sg5
I20
sg6
g7
sg8
I1
sg9
I0
sg10
I9900
ssS'Arbitrary Code'
p15
(dp16
g3
I8559
sg4
I78
sg5
I32
sg6
g7
sg8
I8
sg9
I0
sg10
I7000
ss.