(dp0
S'all'
p1
(dp2
S'count'
p3
I24000
sS'truepos'
p4
I245
sS'falseneg'
p5
I25
sS'correction'
p6
S'machine'
p7
sS'unknownyes'
p8
I1
sS'falsepos'
p9
I0
sS'unique'
p10
I16100
ssS'Improper Control of a Resource Through its Lifetime'
p11
(dp12
S'count'
p13
I18950
sS'truepos'
p14
I71
sS'falseneg'
p15
I10
sS'correction'
p16
S'machine'
p17
sS'unknownyes'
p18
I0
sS'falsepos'
p19
I0
sS'unique'
p20
I13300
ssS'Code Quality'
p21
(dp22
g3
I24850
sg4
I26
sg5
I3
sg6
g7
sg8
I0
sg9
I0
sg10
I17100
ssS'Other'
p23
(dp24
g13
I20950
sg14
I40
sg15
I1
sg16
g17
sg18
I1
sg19
I0
sg20
I14400
ssS'Range Error'
p25
(dp26
g3
I25750
sg4
I28
sg5
I3
sg6
g7
sg8
I1
sg9
I0
sg10
I17500
ssS'Arbitrary Code'
p27
(dp28
g13
I15550
sg14
I98
sg15
I16
sg16
g17
sg18
I4
sg19
I0
sg20
I10500
ss.