(dp0
S'all'
p1
(dp2
S'machine'
p3
(dp4
S'count'
p5
(lp6
I25100
aI25150
aI25400
aI25550
aI23800
aI24550
aI25350
aI25150
aI24950
aI25450
asS'truepos'
p7
(lp8
I267
aI269
aI266
aI264
aI266
aI266
aI265
aI268
aI266
aI269
asS'falseneg'
p9
(lp10
I3
aI1
aI4
aI6
aI4
aI4
aI5
aI2
aI4
aI1
asS'correction'
p11
(lp12
S'machine'
p13
aS'machine'
p14
aS'machine'
p15
aS'machine'
p16
aS'machine'
p17
aS'machine'
p18
aS'machine'
p19
aS'machine'
p20
aS'machine'
p21
aS'machine'
p22
asS'unknownyes'
p23
(lp24
I1
aI1
aI1
aI1
aI1
aI1
aI1
aI1
aI1
aI1
asS'falsepos'
p25
(lp26
I0
aI0
aI0
aI0
aI0
aI0
aI0
aI0
aI0
aI0
asS'unique'
p27
(lp28
I16800
aI16800
aI17000
aI17100
aI15900
aI16400
aI17000
aI16800
aI16700
aI17000
assS'majority'
p29
(dp30
S'count'
p31
(lp32
I33600
aI33800
aI33400
aI33400
aI33200
aI34600
aI33600
aI33800
aI34200
aI33600
asS'truepos'
p33
(lp34
I270
aI269
aI268
aI267
aI265
aI263
aI269
aI268
aI267
aI267
asS'falseneg'
p35
(lp36
I0
aI1
aI2
aI3
aI5
aI7
aI1
aI2
aI3
aI3
asS'correction'
p37
(lp38
S'no'
p39
aS'no'
p40
aS'no'
p41
aS'no'
p42
aS'no'
p43
aS'no'
p44
aS'no'
p45
aS'no'
p46
aS'no'
p47
aS'no'
p48
asS'unknownyes'
p49
(lp50
I1
aI1
aI1
aI1
aI1
aI1
aI1
aI1
aI1
aI1
asS'falsepos'
p51
(lp52
I0
aI0
aI0
aI0
aI0
aI0
aI0
aI0
aI0
aI0
asS'unique'
p53
(lp54
I16800
aI16900
aI16700
aI16700
aI16600
aI17300
aI16800
aI16900
aI17100
aI16800
assS'none'
p55
(dp56
S'count'
p57
(lp58
I16700
aI16700
aI16700
aI16900
aI16400
aI14800
aI17100
aI16500
aI16600
aI16600
asS'truepos'
p59
(lp60
I242
aI236
aI242
aI247
aI253
aI238
aI242
aI245
aI250
aI257
asS'falseneg'
p61
(lp62
I28
aI34
aI28
aI23
aI17
aI32
aI28
aI25
aI20
aI13
asS'correction'
p63
(lp64
S'no'
p65
aS'no'
p66
aS'no'
p67
aS'no'
p68
aS'no'
p69
aS'no'
p70
aS'no'
p71
aS'no'
p72
aS'no'
p73
aS'no'
p74
asS'unknownyes'
p75
(lp76
I1
aI1
aI1
aI1
aI1
aI1
aI1
aI1
aI1
aI1
asS'falsepos'
p77
(lp78
I0
aI0
aI0
aI0
aI0
aI0
aI0
aI0
aI0
aI0
asS'unique'
p79
(lp80
I16700
aI16700
aI16700
aI16900
aI16400
aI14800
aI17100
aI16500
aI16600
aI16600
assS'machine3'
p81
(dp82
S'count'
p83
(lp84
I33652
aI33945
aI33444
aI33237
aI33745
aI33646
aI33740
aI31346
aI33742
asS'truepos'
p85
(lp86
I270
aI270
aI270
aI269
aI270
aI270
aI270
aI268
aI270
asS'falseneg'
p87
(lp88
I0
aI0
aI0
aI1
aI0
aI0
aI0
aI2
aI0
asS'correction'
p89
(lp90
S'machine'
p91
aS'machine'
p92
aS'machine'
p93
aS'machine'
p94
aS'machine'
p95
aS'machine'
p96
aS'machine'
p97
aS'machine'
p98
aS'machine'
p99
asS'unknownyes'
p100
(lp101
I1
aI1
aI1
aI1
aI1
aI1
aI1
aI1
aI1
asS'falsepos'
p102
(lp103
I0
aI0
aI0
aI0
aI0
aI0
aI0
aI0
aI0
asS'unique'
p104
(lp105
I16800
aI16900
aI16700
aI16700
aI16800
aI16900
aI16800
aI15700
aI16800
assS'knee'
p106
(dp107
S'count'
p108
(lp109
I8828
aI8509
aI8113
aI9625
aI8123
aI7916
aI9809
aI7317
aI8632
aI7925
asS'truepos'
p110
(lp111
I244
aI257
aI252
aI257
aI250
aI251
aI256
aI251
aI247
aI251
asS'falseneg'
p112
(lp113
I8
aI3
aI5
aI6
aI9
aI7
aI6
aI7
aI9
aI8
asS'correction'
p114
(lp115
S'no'
p116
aS'no'
p117
aS'no'
p118
aS'no'
p119
aS'no'
p120
aS'no'
p121
aS'no'
p122
aS'no'
p123
aS'no'
p124
aS'no'
p125
asS'unknownyes'
p126
(lp127
I19
aI11
aI14
aI8
aI12
aI13
aI9
aI13
aI15
aI12
asS'falsepos'
p128
(lp129
I0
aI0
aI0
aI0
aI0
aI0
aI0
aI0
aI0
aI0
asS'unique'
p130
(lp131
I6600
aI6200
aI5900
aI7300
aI6100
aI5900
aI7100
aI5500
aI6600
aI6100
asssS'Improper Control of a Resource Through its Lifetime'
p132
(dp133
g3
(dp134
S'count'
p135
(lp136
I21050
aI21050
aI23000
aI19600
aI18250
aI18850
aI22950
aI20000
aI19800
aI18400
asS'truepos'
p137
(lp138
I79
aI81
aI80
aI80
aI80
aI81
aI81
aI81
aI81
aI79
asS'falseneg'
p139
(lp140
I2
aI0
aI1
aI1
aI1
aI0
aI0
aI0
aI0
aI2
asS'correction'
p141
(lp142
S'machine'
p143
aS'machine'
p144
aS'machine'
p145
aS'machine'
p146
aS'machine'
p147
aS'machine'
p148
aS'machine'
p149
aS'machine'
p150
aS'machine'
p151
aS'machine'
p152
asS'unknownyes'
p153
(lp154
I0
aI0
aI0
aI0
aI0
aI0
aI0
aI0
aI0
aI0
asS'falsepos'
p155
(lp156
I0
aI0
aI0
aI0
aI0
aI0
aI0
aI0
aI0
aI0
asS'unique'
p157
(lp158
I14200
aI14200
aI15900
aI13200
aI12200
aI12600
aI15800
aI13400
aI13300
aI12300
assg29
(dp159
S'count'
p160
(lp161
I27800
aI28200
aI26800
aI27600
aI23800
aI25000
aI32000
aI26800
aI26400
aI25400
asS'truepos'
p162
(lp163
I80
aI81
aI81
aI80
aI81
aI80
aI80
aI79
aI79
aI77
asS'falseneg'
p164
(lp165
I1
aI0
aI0
aI1
aI0
aI1
aI1
aI2
aI2
aI4
asS'correction'
p166
(lp167
S'no'
p168
aS'no'
p169
aS'no'
p170
aS'no'
p171
aS'no'
p172
aS'no'
p173
aS'no'
p174
aS'no'
p175
aS'no'
p176
aS'no'
p177
asS'unknownyes'
p178
(lp179
I0
aI0
aI0
aI0
aI0
aI0
aI0
aI0
aI0
aI0
asS'falsepos'
p180
(lp181
I0
aI0
aI0
aI0
aI0
aI0
aI0
aI0
aI0
aI0
asS'unique'
p182
(lp183
I13900
aI14100
aI13400
aI13800
aI11900
aI12500
aI16000
aI13400
aI13200
aI12700
assg55
(dp184
S'count'
p185
(lp186
I14400
aI14500
aI13700
aI13900
aI11900
aI12400
aI15900
aI13900
aI13700
aI12100
asS'truepos'
p187
(lp188
I68
aI74
aI78
aI76
aI74
aI70
aI74
aI74
aI73
aI70
asS'falseneg'
p189
(lp190
I13
aI7
aI3
aI5
aI7
aI10
aI7
aI7
aI8
aI9
asS'correction'
p191
(lp192
S'no'
p193
aS'no'
p194
aS'no'
p195
aS'no'
p196
aS'no'
p197
aS'no'
p198
aS'no'
p199
aS'no'
p200
aS'no'
p201
aS'no'
p202
asS'unknownyes'
p203
(lp204
I0
aI0
aI0
aI0
aI0
aI1
aI0
aI0
aI0
aI2
asS'falsepos'
p205
(lp206
I0
aI0
aI0
aI0
aI0
aI0
aI0
aI0
aI0
aI0
asS'unique'
p207
(lp208
I14400
aI14500
aI13700
aI13900
aI11900
aI12400
aI15900
aI13900
aI13700
aI12100
assg81
(dp209
S'count'
p210
(lp211
I27171
aI27374
aI27671
aI27076
aI23775
aI25371
aI24276
aI26675
aI26376
aI24075
asS'truepos'
p212
(lp213
I81
aI80
aI81
aI81
aI80
aI79
aI80
aI80
aI81
aI81
asS'falseneg'
p214
(lp215
I0
aI1
aI0
aI0
aI1
aI2
aI1
aI1
aI0
aI0
asS'correction'
p216
(lp217
S'machine'
p218
aS'machine'
p219
aS'machine'
p220
aS'machine'
p221
aS'machine'
p222
aS'machine'
p223
aS'machine'
p224
aS'machine'
p225
aS'machine'
p226
aS'machine'
p227
asS'unknownyes'
p228
(lp229
I0
aI0
aI0
aI0
aI0
aI0
aI0
aI0
aI0
aI0
asS'falsepos'
p230
(lp231
I0
aI0
aI0
aI0
aI0
aI0
aI0
aI0
aI0
aI0
asS'unique'
p232
(lp233
I13800
aI13900
aI14000
aI13700
aI11900
aI12700
aI12900
aI13400
aI13300
aI12100
assg106
(dp234
S'count'
p235
(lp236
I9537
aI8638
aI7642
aI6333
aI7236
aI7839
aI12534
aI6440
aI8939
aI6329
asS'truepos'
p237
(lp238
I77
aI75
aI77
aI72
aI77
aI75
aI78
aI77
aI77
aI77
asS'falseneg'
p239
(lp240
I1
aI2
aI1
aI1
aI1
aI3
aI1
aI2
aI1
aI0
asS'correction'
p241
(lp242
S'no'
p243
aS'no'
p244
aS'no'
p245
aS'no'
p246
aS'no'
p247
aS'no'
p248
aS'no'
p249
aS'no'
p250
aS'no'
p251
aS'no'
p252
asS'unknownyes'
p253
(lp254
I3
aI4
aI3
aI8
aI3
aI3
aI2
aI2
aI3
aI4
asS'falsepos'
p255
(lp256
I0
aI0
aI0
aI0
aI0
aI0
aI0
aI0
aI0
aI0
asS'unique'
p257
(lp258
I6300
aI5200
aI5600
aI3400
aI4900
aI5100
aI8400
aI4100
aI5900
aI3700
asssS'Code Quality'
p259
(dp260
g3
(dp261
g5
(lp262
I23100
aI24150
aI24150
aI23250
aI19600
aI22400
aI25000
aI24850
aI26000
aI24500
asg7
(lp263
I28
aI28
aI28
aI29
aI29
aI29
aI29
aI29
aI29
aI29
asg9
(lp264
I1
aI1
aI1
aI0
aI0
aI0
aI0
aI0
aI0
aI0
asg11
(lp265
g13
ag14
ag15
ag16
ag17
ag18
ag19
ag20
ag21
ag22
asg23
(lp266
I0
aI0
aI0
aI0
aI0
aI0
aI0
aI0
aI0
aI0
asg25
(lp267
I0
aI0
aI0
aI0
aI0
aI0
aI0
aI0
aI0
aI0
asg27
(lp268
I15600
aI16400
aI16400
aI15700
aI13100
aI15100
aI17200
aI16700
aI18000
aI16800
assg29
(dp269
g31
(lp270
I31400
aI32800
aI32400
aI30400
aI27600
aI30400
aI33800
aI33400
aI30600
aI33600
asg33
(lp271
I27
aI29
aI29
aI28
aI28
aI29
aI29
aI28
aI28
aI29
asg35
(lp272
I2
aI0
aI0
aI1
aI1
aI0
aI0
aI1
aI1
aI0
asg37
(lp273
g39
ag40
ag41
ag42
ag43
ag44
ag45
ag46
ag47
ag48
asg49
(lp274
I0
aI0
aI0
aI0
aI0
aI0
aI0
aI0
aI0
aI0
asg51
(lp275
I0
aI0
aI0
aI0
aI0
aI0
aI0
aI0
aI0
aI0
asg53
(lp276
I15700
aI16400
aI16200
aI15200
aI13800
aI15200
aI16900
aI16700
aI15300
aI16800
assg55
(dp277
g57
(lp278
I15900
aI16400
aI16900
aI15500
aI13000
aI14500
aI16700
aI17600
aI15400
aI17200
asg59
(lp279
I29
aI28
aI26
aI28
aI27
aI26
aI24
aI26
aI28
aI26
asg61
(lp280
I0
aI1
aI3
aI1
aI2
aI3
aI5
aI3
aI1
aI3
asg63
(lp281
g65
ag66
ag67
ag68
ag69
ag70
ag71
ag72
ag73
ag74
asg75
(lp282
I0
aI0
aI0
aI0
aI0
aI0
aI0
aI0
aI0
aI0
asg77
(lp283
I0
aI0
aI0
aI0
aI0
aI0
aI0
aI0
aI0
aI0
asg79
(lp284
I15900
aI16400
aI16900
aI15500
aI13000
aI14500
aI16700
aI17600
aI15400
aI17200
assg81
(dp285
g83
(lp286
I30826
aI31725
aI31327
aI30828
aI26728
aI28925
aI33027
aI33027
aI30925
aI32223
asg85
(lp287
I29
aI29
aI29
aI29
aI29
aI28
aI29
aI29
aI29
aI29
asg87
(lp288
I0
aI0
aI0
aI0
aI0
aI1
aI0
aI0
aI0
aI0
asg89
(lp289
g91
ag92
ag93
ag94
ag95
aS'machine'
p290
ag96
ag97
ag98
ag99
asg100
(lp291
I0
aI0
aI0
aI0
aI0
aI0
aI0
aI0
aI0
aI0
asg102
(lp292
I0
aI0
aI0
aI0
aI0
aI0
aI0
aI0
aI0
aI0
asg104
(lp293
I15700
aI16300
aI16100
aI15700
aI13400
aI14700
aI17300
aI16700
aI15700
aI16800
assg106
(dp294
g108
(lp295
I6880
aI7982
aI5382
aI6082
aI3981
aI10579
aI8380
aI14076
aI4679
aI11679
asg110
(lp296
I24
aI26
aI24
aI25
aI25
aI26
aI25
aI29
aI23
aI25
asg112
(lp297
I1
aI2
aI2
aI1
aI0
aI0
aI2
aI0
aI1
aI0
asg114
(lp298
g116
ag117
ag118
ag119
ag120
ag121
ag122
ag123
ag124
ag125
asg126
(lp299
I4
aI1
aI3
aI3
aI4
aI3
aI2
aI0
aI5
aI4
asg128
(lp300
I0
aI0
aI0
aI0
aI0
aI0
aI0
aI0
aI0
aI0
asg130
(lp301
I3900
aI6400
aI3600
aI4800
aI2800
aI6600
aI5800
aI9000
aI3100
aI6600
asssS'Other'
p302
(dp303
g3
(dp304
g135
(lp305
I21550
aI20900
aI20400
aI20450
aI23150
aI22500
aI21250
aI19900
aI22000
aI19800
asg137
(lp306
I41
aI41
aI41
aI40
aI39
aI41
aI41
aI40
aI41
aI41
asg139
(lp307
I0
aI0
aI0
aI1
aI2
aI0
aI0
aI1
aI0
aI0
asg141
(lp308
g143
ag144
ag145
ag146
ag147
ag148
ag149
ag150
ag151
ag152
asg153
(lp309
I1
aI1
aI1
aI1
aI1
aI1
aI1
aI1
aI1
aI1
asg155
(lp310
I0
aI0
aI0
aI0
aI0
aI0
aI0
aI0
aI0
aI0
asg157
(lp311
I14700
aI14200
aI13700
aI13700
aI16300
aI15400
aI14600
aI13300
aI15600
aI13300
assg29
(dp312
g160
(lp313
I29600
aI28800
aI27600
aI27800
aI31800
aI30200
aI29200
aI25800
aI31800
aI27200
asg162
(lp314
I41
aI41
aI41
aI41
aI41
aI40
aI41
aI41
aI40
aI41
asg164
(lp315
I0
aI0
aI0
aI0
aI0
aI1
aI0
aI0
aI1
aI0
asg166
(lp316
g168
ag169
ag170
ag171
ag172
ag173
ag174
ag175
ag176
ag177
asg178
(lp317
I1
aI1
aI1
aI1
aI1
aI1
aI1
aI1
aI1
aI1
asg180
(lp318
I0
aI0
aI0
aI0
aI0
aI0
aI0
aI0
aI0
aI0
asg182
(lp319
I14800
aI14400
aI13800
aI13900
aI15900
aI15100
aI14600
aI12900
aI15900
aI13600
assg55
(dp320
g185
(lp321
I14700
aI14700
aI14300
aI14300
aI16300
aI15600
aI15500
aI11800
aI16100
aI13300
asg187
(lp322
I40
aI38
aI37
aI39
aI36
aI39
aI37
aI38
aI36
aI39
asg189
(lp323
I1
aI3
aI4
aI2
aI5
aI2
aI4
aI3
aI5
aI2
asg191
(lp324
g193
ag194
ag195
ag196
ag197
ag198
ag199
ag200
ag201
ag202
asg203
(lp325
I1
aI1
aI1
aI1
aI1
aI1
aI1
aI1
aI1
aI1
asg205
(lp326
I0
aI0
aI0
aI0
aI0
aI0
aI0
aI0
aI0
aI0
asg207
(lp327
I14700
aI14700
aI14300
aI14300
aI16300
aI15600
aI15500
aI11800
aI16100
aI13300
assg81
(dp328
g210
(lp329
I27636
aI27837
aI27139
aI26036
aI29540
aI29637
aI27937
aI26937
aI28436
aI27137
asg212
(lp330
I41
aI41
aI41
aI41
aI41
aI41
aI41
aI41
aI41
aI40
asg214
(lp331
I0
aI0
aI0
aI0
aI0
aI0
aI0
aI0
aI0
aI1
asg216
(lp332
g218
ag219
ag220
ag221
ag222
ag223
ag224
ag225
ag226
ag227
asg228
(lp333
I1
aI1
aI1
aI1
aI1
aI1
aI1
aI1
aI1
aI1
asg230
(lp334
I0
aI0
aI0
aI0
aI0
aI0
aI0
aI0
aI0
aI0
asg232
(lp335
I14300
aI14300
aI13700
aI13100
aI15800
aI15400
aI14600
aI13500
aI15600
aI13700
assg106
(dp336
g235
(lp337
I10874
aI8373
aI4273
aI3973
aI14171
aI9773
aI13564
aI3571
aI8969
aI4170
asg237
(lp338
I40
aI40
aI36
aI35
aI40
aI40
aI41
aI35
aI34
aI34
asg239
(lp339
I1
aI1
aI2
aI3
aI1
aI1
aI0
aI0
aI0
aI0
asg241
(lp340
g243
ag244
ag245
ag246
ag247
ag248
ag249
ag250
ag251
ag252
asg253
(lp341
I1
aI1
aI4
aI4
aI1
aI1
aI1
aI7
aI8
aI8
asg255
(lp342
I0
aI0
aI0
aI0
aI0
aI0
aI0
aI0
aI0
aI0
asg257
(lp343
I8500
aI6700
aI3100
aI2800
aI10900
aI7500
aI8800
aI2500
aI4900
aI2500
asssS'Range Error'
p344
(dp345
g3
(dp346
g5
(lp347
I24900
aI23250
aI22950
aI26300
aI25350
aI23800
aI22300
aI17000
aI25150
aI19150
asg7
(lp348
I32
aI30
aI32
aI31
aI30
aI32
aI31
aI32
aI31
aI32
asg9
(lp349
I0
aI2
aI0
aI1
aI2
aI0
aI0
aI0
aI1
aI0
asg11
(lp350
g13
ag14
ag15
ag16
ag17
ag18
ag19
ag20
ag21
ag22
asg23
(lp351
I0
aI0
aI0
aI0
aI0
aI0
aI1
aI0
aI0
aI0
asg25
(lp352
I0
aI0
aI0
aI0
aI0
aI0
aI0
aI0
aI0
aI0
asg27
(lp353
I17200
aI15900
aI16100
aI18200
aI17500
aI16100
aI15200
aI11400
aI17300
aI12800
assg29
(dp354
g31
(lp355
I34600
aI36000
aI34800
aI36200
aI33200
aI32000
aI30200
aI26400
aI34600
aI28000
asg33
(lp356
I32
aI31
aI32
aI32
aI32
aI31
aI31
aI32
aI32
aI31
asg35
(lp357
I0
aI1
aI0
aI0
aI0
aI1
aI0
aI0
aI0
aI1
asg37
(lp358
g39
ag40
ag41
ag42
ag43
ag44
ag45
ag46
ag47
ag48
asg49
(lp359
I0
aI0
aI0
aI0
aI0
aI0
aI1
aI0
aI0
aI0
asg51
(lp360
I0
aI0
aI0
aI0
aI0
aI0
aI0
aI0
aI0
aI0
asg53
(lp361
I17300
aI18000
aI17400
aI18100
aI16600
aI16000
aI15100
aI13200
aI17300
aI14000
assg55
(dp362
g57
(lp363
I17700
aI18800
aI18400
aI18000
aI16900
aI16000
aI15800
aI13200
aI18100
aI17700
asg59
(lp364
I31
aI28
aI29
aI29
aI29
aI31
aI30
aI30
aI29
aI28
asg61
(lp365
I1
aI3
aI2
aI3
aI3
aI1
aI1
aI2
aI3
aI4
asg63
(lp366
g65
ag66
ag67
ag68
ag69
ag70
ag71
ag72
ag73
ag74
asg75
(lp367
I0
aI1
aI1
aI0
aI0
aI0
aI1
aI0
aI0
aI0
asg77
(lp368
I0
aI0
aI0
aI0
aI0
aI0
aI0
aI0
aI0
aI0
asg79
(lp369
I17700
aI18800
aI18400
aI18000
aI16900
aI16000
aI15800
aI13200
aI18100
aI17700
assg81
(dp370
g83
(lp371
I32531
aI27229
aI29824
aI33028
aI32429
aI30730
aI29027
aI23628
aI34031
aI25729
asg85
(lp372
I32
aI32
aI31
aI31
aI32
aI32
aI31
aI32
aI32
aI32
asg87
(lp373
I0
aI0
aI1
aI1
aI0
aI0
aI0
aI0
aI0
aI0
asg89
(lp374
g91
ag92
ag93
ag94
ag95
ag290
ag96
ag97
ag98
ag99
asg100
(lp375
I0
aI0
aI0
aI0
aI0
aI0
aI1
aI0
aI0
aI0
asg102
(lp376
I0
aI0
aI0
aI0
aI0
aI0
aI0
aI0
aI0
aI0
asg104
(lp377
I17100
aI14200
aI16100
aI17500
aI17100
aI15700
aI15000
aI11900
aI17800
aI12900
assg106
(dp378
g108
(lp379
I9475
aI9273
aI18273
aI15473
aI9675
aI17373
aI10879
aI5875
aI11274
aI799
asg110
(lp380
I27
aI31
aI29
aI31
aI26
aI32
aI30
aI26
aI29
aI1
asg112
(lp381
I2
aI0
aI1
aI0
aI3
aI0
aI1
aI2
aI2
aI0
asg114
(lp382
g116
ag117
ag118
ag119
ag120
ag121
ag122
ag123
ag124
ag125
asg126
(lp383
I3
aI1
aI2
aI1
aI3
aI0
aI1
aI4
aI1
aI31
asg128
(lp384
I0
aI0
aI0
aI0
aI0
aI0
aI0
aI0
aI0
aI0
asg130
(lp385
I5300
aI6100
aI10100
aI10200
aI5800
aI10300
aI7100
aI3300
aI7200
aI700
asssS'Arbitrary Code'
p386
(dp387
g3
(dp388
g135
(lp389
I15000
aI13550
aI15000
aI16050
aI19800
aI17550
aI16900
aI14750
aI13950
aI15850
asg137
(lp390
I113
aI112
aI113
aI115
aI117
aI115
aI118
aI113
aI111
aI111
asg139
(lp391
I3
aI2
aI0
aI1
aI1
aI3
aI0
aI0
aI2
aI1
asg141
(lp392
g143
ag144
ag145
ag146
ag147
ag148
ag149
ag150
ag151
ag152
asg153
(lp393
I2
aI4
aI5
aI2
aI0
aI0
aI0
aI5
aI5
aI6
asg155
(lp394
I0
aI0
aI0
aI0
aI0
aI0
aI0
aI0
aI0
aI0
asg157
(lp395
I10100
aI9100
aI10100
aI11000
aI13400
aI11800
aI11400
aI9900
aI9400
aI10600
assg29
(dp396
g160
(lp397
I27800
aI21400
aI26000
aI28600
aI27200
aI26600
aI26600
aI23200
aI24800
aI23200
asg162
(lp398
I115
aI114
aI117
aI118
aI117
aI117
aI118
aI115
aI117
aI113
asg164
(lp399
I3
aI2
aI1
aI0
aI1
aI1
aI0
aI1
aI0
aI3
asg166
(lp400
g168
ag169
ag170
ag171
ag172
ag173
ag174
ag175
ag176
ag177
asg178
(lp401
I0
aI2
aI0
aI0
aI0
aI0
aI0
aI2
aI1
aI2
asg180
(lp402
I0
aI0
aI0
aI0
aI0
aI0
aI0
aI0
aI0
aI0
asg182
(lp403
I13900
aI10700
aI13000
aI14300
aI13600
aI13300
aI13300
aI11600
aI12400
aI11600
assg55
(dp404
g185
(lp405
I13200
aI12200
aI13000
aI13600
aI12700
aI14300
aI12200
aI11100
aI13300
aI11000
asg187
(lp406
I107
aI107
aI105
aI107
aI103
aI104
aI108
aI100
aI101
aI108
asg189
(lp407
I10
aI11
aI13
aI10
aI14
aI14
aI7
aI16
aI17
aI7
asg191
(lp408
g193
ag194
ag195
ag196
ag197
ag198
ag199
ag200
ag201
ag202
asg203
(lp409
I1
aI0
aI0
aI1
aI1
aI0
aI3
aI2
aI0
aI3
asg205
(lp410
I0
aI0
aI0
aI0
aI0
aI0
aI0
aI0
aI0
aI0
asg207
(lp411
I13200
aI12200
aI13000
aI13600
aI12700
aI14300
aI12200
aI11100
aI13300
aI11000
assg81
(dp412
g210
(lp413
I24206
aI17500
aI19003
aI23006
aI25905
aI24007
aI19906
aI19301
aI18998
aI19105
asg212
(lp414
I116
aI115
aI112
aI116
aI117
aI117
aI113
aI113
aI114
aI112
asg214
(lp415
I2
aI0
aI1
aI2
aI0
aI1
aI1
aI1
aI0
aI1
asg216
(lp416
g218
ag219
ag220
ag221
ag222
ag223
ag224
ag225
ag226
ag227
asg228
(lp417
I0
aI3
aI5
aI0
aI1
aI0
aI4
aI4
aI4
aI5
asg230
(lp418
I0
aI0
aI0
aI0
aI0
aI0
aI0
aI0
aI0
aI0
asg232
(lp419
I12200
aI8800
aI9600
aI11900
aI13100
aI12100
aI10100
aI9700
aI9600
aI9600
assg106
(dp420
g235
(lp421
I1599
aI4926
aI4244
aI11032
aI12129
aI8632
aI9132
aI6840
aI8939
aI5145
asg237
(lp422
I1
aI91
aI81
aI107
aI115
aI105
aI108
aI100
aI107
aI97
asg239
(lp423
I0
aI2
aI7
aI7
aI2
aI7
aI4
aI6
aI5
aI4
asg241
(lp424
g243
ag244
ag245
ag246
ag247
ag248
ag249
ag250
ag251
ag252
asg253
(lp425
I117
aI25
aI30
aI4
aI1
aI6
aI6
aI12
aI6
aI17
asg255
(lp426
I0
aI0
aI0
aI0
aI0
aI0
aI0
aI0
aI0
aI0
asg257
(lp427
I1400
aI3400
aI3400
aI8800
aI9800
aI6800
aI7400
aI5700
aI7500
aI4300
asss.