(dp0
S'Code Quality'
p1
(dp2
S'count'
p3
I6779
sS'truepos'
p4
I27
sS'falseneg'
p5
I0
sS'correction'
p6
S'no'
p7
sS'unknownyes'
p8
I2
sS'falsepos'
p9
I0
sS'unique'
p10
I5100
ssS'all'
p11
(dp12
g3
I9782
sg4
I260
sg5
I0
sg6
g7
sg8
I11
sg9
I0
sg10
I7000
ssS'Range Error'
p13
(dp14
g3
I11972
sg4
I31
sg5
I0
sg6
g7
sg8
I1
sg9
I0
sg10
I7800
ssS'Arbitrary Code'
p15
(dp16
S'count'
p17
I1599
sS'truepos'
p18
I1
sS'falseneg'
p19
I0
sS'correction'
p20
S'no'
p21
sS'unknownyes'
p22
I117
sS'falsepos'
p23
I0
sS'unique'
p24
I1400
ss.