(dp0
S'all'
p1
(dp2
S'count'
p3
I15900
sS'truepos'
p4
I195
sS'falseneg'
p5
I75
sS'correction'
p6
S'no'
p7
sS'unknownyes'
p8
I1
sS'falsepos'
p9
I0
sS'unique'
p10
I15900
ssS'Improper Control of a Resource Through its Lifetime'
p11
(dp12
g3
I13900
sg4
I57
sg5
I24
sg6
g7
sg8
I0
sg9
I0
sg10
I13900
ssS'Code Quality'
p13
(dp14
g3
I16900
sg4
I24
sg5
I5
sg6
g7
sg8
I0
sg9
I0
sg10
I16900
ssS'Other'
p15
(dp16
g3
I14400
sg4
I28
sg5
I13
sg6
g7
sg8
I1
sg9
I0
sg10
I14400
ssS'Range Error'
p17
(dp18
S'count'
p19
I17700
sS'truepos'
p20
I23
sS'falseneg'
p21
I9
sS'correction'
p22
S'no'
p23
sS'unknownyes'
p24
I0
sS'falsepos'
p25
I0
sS'unique'
p26
I17700
ssS'Arbitrary Code'
p27
(dp28
g3
I11600
sg4
I80
sg5
I35
sg6
g7
sg8
I3
sg9
I0
sg10
I11600
ss.