(dp0
S'Other'
p1
(dp2
S'count'
p3
I20700
sS'truepos'
p4
I38
sS'falseneg'
p5
I3
sS'correction'
p6
S'machine'
p7
sS'unknownyes'
p8
I1
sS'falsepos'
p9
I0
sS'unique'
p10
I14000
ssS'Range Error'
p11
(dp12
g3
I23350
sg4
I26
sg5
I6
sg6
g7
sg8
I0
sg9
I0
sg10
I15900
ssS'Improper Control of a Resource Through its Lifetime'
p13
(dp14
g3
I16650
sg4
I76
sg5
I5
sg6
g7
sg8
I0
sg9
I0
sg10
I11200
ssS'Arbitrary Code'
p15
(dp16
g3
I14450
sg4
I100
sg5
I13
sg6
g7
sg8
I5
sg9
I0
sg10
I9700
ss.