(dp0
S'Code Quality'
p1
(dp2
S'count'
p3
I33721
sS'truepos'
p4
I26
sS'falseneg'
p5
I3
sS'correction'
p6
S'machine'
p7
sS'unknownyes'
p8
I0
sS'falsepos'
p9
I0
sS'unique'
p10
I17100
ssS'Other'
p11
(dp12
g3
I27436
sg4
I41
sg5
I0
sg6
g7
sg8
I1
sg9
I0
sg10
I14500
ssS'Range Error'
p13
(dp14
g3
I32027
sg4
I32
sg5
I0
sg6
g7
sg8
I0
sg9
I0
sg10
I16500
ssS'Improper Control of a Resource Through its Lifetime'
p15
(dp16
g3
I27062
sg4
I80
sg5
I1
sg6
g7
sg8
I0
sg9
I0
sg10
I13600
ssS'Arbitrary Code'
p17
(dp18
g3
I20292
sg4
I109
sg5
I6
sg6
g7
sg8
I3
sg9
I0
sg10
I10300
ss.