(dp0
S'all'
p1
(dp2
S'count'
p3
I32400
sS'truepos'
p4
I202
sS'falseneg'
p5
I68
sS'correction'
p6
S'no'
p7
sS'unknownyes'
p8
I1
sS'falsepos'
p9
I0
sS'unique'
p10
I16200
ssS'Improper Control of a Resource Through its Lifetime'
p11
(dp12
g3
I27000
sg4
I62
sg5
I19
sg6
g7
sg8
I0
sg9
I0
sg10
I13500
ssS'Code Quality'
p13
(dp14
g3
I32200
sg4
I24
sg5
I5
sg6
g7
sg8
I0
sg9
I0
sg10
I16100
ssS'Other'
p15
(dp16
g3
I29400
sg4
I24
sg5
I17
sg6
g7
sg8
I1
sg9
I0
sg10
I14700
ssS'Range Error'
p17
(dp18
S'count'
p19
I34200
sS'truepos'
p20
I24
sS'falseneg'
p21
I7
sS'correction'
p22
S'no'
p23
sS'unknownyes'
p24
I1
sS'falsepos'
p25
I0
sS'unique'
p26
I17100
ssS'Arbitrary Code'
p27
(dp28
g3
I28600
sg4
I87
sg5
I31
sg6
g7
sg8
I0
sg9
I0
sg10
I14300
ss.