(dp0
S'Improper Control of a Resource Through its Lifetime'
p1
(dp2
S'count'
p3
I21150
sS'truepos'
p4
I68
sS'falseneg'
p5
I13
sS'correction'
p6
S'machine'
p7
sS'unknownyes'
p8
I0
sS'falsepos'
p9
I0
sS'unique'
p10
I14600
ssS'Arbitrary Code'
p11
(dp12
g3
I11900
sg4
I86
sg5
I24
sg6
g7
sg8
I8
sg9
I0
sg10
I8000
ss.