(dp0
S'all'
p1
(dp2
S'count'
p3
I32800
sS'truepos'
p4
I224
sS'falseneg'
p5
I46
sS'correction'
p6
S'no'
p7
sS'unknownyes'
p8
I1
sS'falsepos'
p9
I0
sS'unique'
p10
I16400
ssS'Improper Control of a Resource Through its Lifetime'
p11
(dp12
S'count'
p13
I29200
sS'truepos'
p14
I63
sS'falseneg'
p15
I18
sS'correction'
p16
S'no'
p17
sS'unknownyes'
p18
I0
sS'falsepos'
p19
I0
sS'unique'
p20
I14600
ssS'Code Quality'
p21
(dp22
g3
I31200
sg4
I28
sg5
I1
sg6
g7
sg8
I0
sg9
I0
sg10
I15600
ssS'Other'
p23
(dp24
g13
I25200
sg14
I32
sg15
I9
sg16
g17
sg18
I1
sg19
I0
sg20
I12600
ssS'Range Error'
p25
(dp26
g3
I36200
sg4
I26
sg5
I6
sg6
g7
sg8
I0
sg9
I0
sg10
I18100
ssS'Arbitrary Code'
p27
(dp28
g13
I29600
sg14
I101
sg15
I17
sg16
g17
sg18
I0
sg19
I0
sg20
I14800
ss.