(dp0
S'Other'
p1
(dp2
S'count'
p3
I14300
sS'truepos'
p4
I25
sS'falseneg'
p5
I16
sS'correction'
p6
S'no'
p7
sS'unknownyes'
p8
I1
sS'falsepos'
p9
I0
sS'unique'
p10
I14300
ssS'Range Error'
p11
(dp12
S'count'
p13
I21100
sS'truepos'
p14
I21
sS'falseneg'
p15
I11
sS'correction'
p16
S'no'
p17
sS'unknownyes'
p18
I0
sS'falsepos'
p19
I0
sS'unique'
p20
I21100
ssS'Improper Control of a Resource Through its Lifetime'
p21
(dp22
g3
I14700
sg4
I49
sg5
I32
sg6
g7
sg8
I0
sg9
I0
sg10
I14700
ssS'Arbitrary Code'
p23
(dp24
g3
I12300
sg4
I68
sg5
I49
sg6
g7
sg8
I1
sg9
I0
sg10
I12300
ss.