(dp0
S'all'
p1
(dp2
S'count'
p3
I25100
sS'truepos'
p4
I270
sS'falseneg'
p5
I0
sS'correction'
p6
S'machine'
p7
sS'unknownyes'
p8
I1
sS'falsepos'
p9
I0
sS'unique'
p10
I16800
ssS'Improper Control of a Resource Through its Lifetime'
p11
(dp12
g3
I17700
sg4
I81
sg5
I0
sg6
g7
sg8
I0
sg9
I0
sg10
I11900
ssS'Code Quality'
p13
(dp14
g3
I25100
sg4
I29
sg5
I0
sg6
g7
sg8
I0
sg9
I0
sg10
I16900
ssS'Other'
p15
(dp16
g3
I20950
sg4
I41
sg5
I0
sg6
g7
sg8
I1
sg9
I0
sg10
I14500
ssS'Range Error'
p17
(dp18
g3
I23500
sg4
I32
sg5
I0
sg6
g7
sg8
I0
sg9
I0
sg10
I16000
ssS'Arbitrary Code'
p19
(dp20
g3
I14650
sg4
I113
sg5
I0
sg6
g7
sg8
I5
sg9
I0
sg10
I9900
ss.