(dp0
S'Other'
p1
(dp2
S'count'
p3
I28431
sS'truepos'
p4
I40
sS'falseneg'
p5
I2
sS'correction'
p6
S'machine'
p7
sS'unknownyes'
p8
I0
sS'falsepos'
p9
I0
sS'unique'
p10
I16100
ssS'Range Error'
p11
(dp12
g3
I32419
sg4
I28
sg5
I4
sg6
g7
sg8
I0
sg9
I0
sg10
I17600
ssS'Improper Control of a Resource Through its Lifetime'
p13
(dp14
g3
I27363
sg4
I81
sg5
I0
sg6
g7
sg8
I0
sg9
I0
sg10
I13900
ssS'Arbitrary Code'
p15
(dp16
g3
I24775
sg4
I107
sg5
I10
sg6
g7
sg8
I1
sg9
I0
sg10
I12600
ss.