(dp0
S'all'
p1
(dp2
S'machine'
p3
(dp4
S'count'
p5
(lp6
I24650
aI23900
aI25100
aI25250
aI25300
aI25150
aI24750
aI24250
aI24000
aI25150
asS'truepos'
p7
(lp8
I258
aI263
aI257
aI263
aI260
aI262
aI258
aI262
aI250
aI254
asS'falseneg'
p9
(lp10
I12
aI7
aI13
aI7
aI10
aI8
aI12
aI8
aI20
aI16
asS'correction'
p11
(lp12
S'machine'
p13
aS'machine'
p14
aS'machine'
p15
aS'machine'
p16
aS'machine'
p17
aS'machine'
p18
aS'machine'
p19
aS'machine'
p20
aS'machine'
p21
aS'machine'
p22
asS'unknownyes'
p23
(lp24
I1
aI1
aI1
aI1
aI1
aI1
aI1
aI1
aI1
aI1
asS'falsepos'
p25
(lp26
I0
aI0
aI0
aI0
aI0
aI0
aI0
aI0
aI0
aI0
asS'unique'
p27
(lp28
I16500
aI16000
aI16800
aI16900
aI16900
aI16800
aI16600
aI16200
aI16100
aI16800
assS'majority'
p29
(dp30
S'count'
p31
(lp32
I33400
aI34400
aI33000
aI33200
aI34000
aI34200
aI33600
aI32800
aI33400
aI33600
asS'truepos'
p33
(lp34
I257
aI255
aI261
aI263
aI262
aI265
aI258
aI260
aI262
aI261
asS'falseneg'
p35
(lp36
I13
aI15
aI9
aI7
aI8
aI5
aI12
aI10
aI8
aI9
asS'correction'
p37
(lp38
S'no'
p39
aS'no'
p40
aS'no'
p41
aS'no'
p42
aS'no'
p43
aS'no'
p44
aS'no'
p45
aS'no'
p46
aS'no'
p47
aS'no'
p48
asS'unknownyes'
p49
(lp50
I1
aI1
aI1
aI1
aI1
aI1
aI1
aI1
aI1
aI1
asS'falsepos'
p51
(lp52
I0
aI0
aI0
aI0
aI0
aI0
aI0
aI0
aI0
aI0
asS'unique'
p53
(lp54
I16700
aI17200
aI16500
aI16600
aI17000
aI17100
aI16800
aI16400
aI16700
aI16800
assS'none'
p55
(dp56
S'count'
p57
(lp58
I17500
aI16200
aI16000
aI16700
aI15100
aI16200
aI17300
aI16600
aI16700
aI16300
asS'truepos'
p59
(lp60
I217
aI213
aI214
aI217
aI209
aI216
aI212
aI201
aI211
aI227
asS'falseneg'
p61
(lp62
I53
aI57
aI56
aI53
aI61
aI54
aI58
aI69
aI59
aI43
asS'correction'
p63
(lp64
S'no'
p65
aS'no'
p66
aS'no'
p67
aS'no'
p68
aS'no'
p69
aS'no'
p70
aS'no'
p71
aS'no'
p72
aS'no'
p73
aS'no'
p74
asS'unknownyes'
p75
(lp76
I1
aI1
aI1
aI1
aI1
aI1
aI1
aI1
aI1
aI1
asS'falsepos'
p77
(lp78
I0
aI0
aI0
aI0
aI0
aI0
aI0
aI0
aI0
aI0
asS'unique'
p79
(lp80
I17500
aI16200
aI16000
aI16700
aI15100
aI16200
aI17300
aI16600
aI16700
aI16300
assS'machine3'
p81
(dp82
S'count'
p83
(lp84
I33019
aI33505
aI34013
aI33006
aI33716
aI33718
aI32724
aI33531
aI33824
aI33903
asS'truepos'
p85
(lp86
I267
aI268
aI269
aI265
aI269
aI270
aI265
aI269
aI268
aI268
asS'falseneg'
p87
(lp88
I3
aI2
aI1
aI5
aI1
aI0
aI5
aI1
aI2
aI2
asS'correction'
p89
(lp90
S'machine'
p91
aS'machine'
p92
aS'machine'
p93
aS'machine'
p94
aS'machine'
p95
aS'machine'
p96
aS'machine'
p97
aS'machine'
p98
aS'machine'
p99
aS'machine'
p100
asS'unknownyes'
p101
(lp102
I1
aI1
aI1
aI1
aI1
aI1
aI1
aI1
aI1
aI1
asS'falsepos'
p103
(lp104
I0
aI0
aI0
aI0
aI0
aI0
aI0
aI0
aI0
aI0
asS'unique'
p105
(lp106
I16700
aI16700
aI17000
aI16600
aI16800
aI16800
aI16400
aI16700
aI16900
aI16900
assS'knee'
p107
(dp108
S'count'
p109
(lp110
I9628
aI8340
aI8337
aI10040
aI7533
aI6233
aI8562
aI7143
aI8849
aI7526
asS'truepos'
p111
(lp112
I236
aI244
aI241
aI244
aI236
aI215
aI222
aI234
aI239
aI241
asS'falseneg'
p113
(lp114
I20
aI13
aI18
aI18
aI18
aI21
aI28
aI19
aI16
aI15
asS'correction'
p115
(lp116
S'no'
p117
aS'no'
p118
aS'no'
p119
aS'no'
p120
aS'no'
p121
aS'no'
p122
aS'no'
p123
aS'no'
p124
aS'no'
p125
aS'no'
p126
asS'unknownyes'
p127
(lp128
I15
aI14
aI12
aI9
aI17
aI35
aI21
aI18
aI16
aI15
asS'falsepos'
p129
(lp130
I0
aI0
aI0
aI0
aI0
aI0
aI0
aI0
aI0
aI0
asS'unique'
p131
(lp132
I6700
aI6300
aI6300
aI7500
aI5200
aI4200
aI6600
aI5300
aI6700
aI5600
asssS'Improper Control of a Resource Through its Lifetime'
p133
(dp134
g3
(dp135
S'count'
p136
(lp137
I20300
aI21050
aI22350
aI20500
aI19000
aI15750
aI18200
aI20000
aI19800
aI15350
asS'truepos'
p138
(lp139
I78
aI80
aI77
aI76
aI75
aI77
aI75
aI76
aI81
aI78
asS'falseneg'
p140
(lp141
I3
aI1
aI4
aI5
aI6
aI3
aI6
aI5
aI0
aI3
asS'correction'
p142
(lp143
S'machine'
p144
ag14
aS'machine'
p145
aS'machine'
p146
aS'machine'
p147
aS'machine'
p148
aS'machine'
p149
aS'machine'
p150
aS'machine'
p151
aS'machine'
p152
asS'unknownyes'
p153
(lp154
I0
aI0
aI0
aI0
aI0
aI1
aI0
aI0
aI0
aI0
asS'falsepos'
p155
(lp156
I0
aI0
aI0
aI0
aI0
aI0
aI0
aI0
aI0
aI0
asS'unique'
p157
(lp158
I13700
aI14200
aI15500
aI13800
aI12700
aI10600
aI12800
aI13400
aI13300
aI10300
assg29
(dp159
S'count'
p160
(lp161
I27600
aI28200
aI28600
aI27400
aI29200
aI24600
aI31800
aI26200
aI25200
aI24000
asS'truepos'
p162
(lp163
I78
aI79
aI76
aI78
aI74
aI77
aI81
aI77
aI79
aI80
asS'falseneg'
p164
(lp165
I3
aI2
aI5
aI3
aI7
aI4
aI0
aI4
aI2
aI1
asS'correction'
p166
(lp167
S'no'
p168
aS'no'
p169
aS'no'
p170
aS'no'
p171
aS'no'
p172
aS'no'
p173
aS'no'
p174
aS'no'
p175
aS'no'
p176
aS'no'
p177
asS'unknownyes'
p178
(lp179
I0
aI0
aI0
aI0
aI0
aI0
aI0
aI0
aI0
aI0
asS'falsepos'
p180
(lp181
I0
aI0
aI0
aI0
aI0
aI0
aI0
aI0
aI0
aI0
asS'unique'
p182
(lp183
I13800
aI14100
aI14300
aI13700
aI14600
aI12300
aI15900
aI13100
aI12600
aI12000
assg55
(dp184
S'count'
p185
(lp186
I14800
aI14600
aI15100
aI12800
aI13600
aI11200
aI16000
aI13900
aI15500
aI13500
asS'truepos'
p187
(lp188
I63
aI64
aI64
aI65
aI62
aI66
aI63
aI70
aI58
aI65
asS'falseneg'
p189
(lp190
I18
aI17
aI17
aI16
aI19
aI15
aI18
aI11
aI23
aI16
asS'correction'
p191
(lp192
S'no'
p193
aS'no'
p194
aS'no'
p195
aS'no'
p196
aS'no'
p197
aS'no'
p198
aS'no'
p199
aS'no'
p200
aS'no'
p201
aS'no'
p202
asS'unknownyes'
p203
(lp204
I0
aI0
aI0
aI0
aI0
aI0
aI0
aI0
aI0
aI0
asS'falsepos'
p205
(lp206
I0
aI0
aI0
aI0
aI0
aI0
aI0
aI0
aI0
aI0
asS'unique'
p207
(lp208
I14800
aI14600
aI15100
aI12800
aI13600
aI11200
aI16000
aI13900
aI15500
aI13500
assg81
(dp209
S'count'
p210
(lp211
I28270
aI27769
aI26467
aI28664
aI24567
aI25265
aI30562
aI26266
aI26365
aI21865
asS'truepos'
p212
(lp213
I80
aI80
aI78
aI78
aI80
aI78
aI79
aI79
aI80
aI78
asS'falseneg'
p214
(lp215
I1
aI1
aI3
aI3
aI1
aI3
aI2
aI2
aI1
aI2
asS'correction'
p216
(lp217
S'machine'
p218
aS'machine'
p219
aS'machine'
p220
aS'machine'
p221
aS'machine'
p222
aS'machine'
p223
aS'machine'
p224
aS'machine'
p225
aS'machine'
p226
aS'machine'
p227
asS'unknownyes'
p228
(lp229
I0
aI0
aI0
aI0
aI0
aI0
aI0
aI0
aI0
aI1
asS'falsepos'
p230
(lp231
I0
aI0
aI0
aI0
aI0
aI0
aI0
aI0
aI0
aI0
asS'unique'
p232
(lp233
I14600
aI14100
aI13400
aI14600
aI12300
aI12700
aI16000
aI13200
aI13300
aI11000
assg107
(dp234
S'count'
p235
(lp236
I8142
aI9943
aI8147
aI8041
aI7044
aI7038
aI12746
aI8236
aI8147
aI7547
asS'truepos'
p237
(lp238
I73
aI76
aI76
aI73
aI75
aI76
aI71
aI78
aI68
aI69
asS'falseneg'
p239
(lp240
I5
aI3
aI2
aI5
aI3
aI2
aI7
aI1
aI9
aI9
asS'correction'
p241
(lp242
S'no'
p243
aS'no'
p244
aS'no'
p245
aS'no'
p246
aS'no'
p247
aS'no'
p248
aS'no'
p249
aS'no'
p250
aS'no'
p251
aS'no'
p252
asS'unknownyes'
p253
(lp254
I3
aI2
aI3
aI3
aI3
aI3
aI3
aI2
aI4
aI3
asS'falsepos'
p255
(lp256
I0
aI0
aI0
aI0
aI0
aI0
aI0
aI0
aI0
aI0
asS'unique'
p257
(lp258
I5300
aI6500
aI5600
aI5000
aI4700
aI4400
aI8100
aI5500
aI5600
aI5200
asssS'Code Quality'
p259
(dp260
g3
(dp261
g5
(lp262
I24450
aI27650
aI25350
aI22200
aI20950
aI18300
aI24550
aI26050
aI23750
aI25250
asg7
(lp263
I28
aI26
aI26
aI27
aI28
aI28
aI29
aI26
aI28
aI28
asg9
(lp264
I1
aI3
aI3
aI2
aI1
aI1
aI0
aI3
aI1
aI1
asg11
(lp265
g13
ag14
ag15
ag16
ag17
ag18
ag19
ag20
ag21
ag22
asg23
(lp266
I0
aI0
aI0
aI0
aI0
aI0
aI0
aI0
aI0
aI0
asg25
(lp267
I0
aI0
aI0
aI0
aI0
aI0
aI0
aI0
aI0
aI0
asg27
(lp268
I16500
aI19300
aI17200
aI15000
aI14000
aI12400
aI16900
aI17500
aI16000
aI17300
assg29
(dp269
g31
(lp270
I32000
aI36600
aI33600
aI33400
aI27400
aI30400
aI35000
aI33800
aI30200
aI34000
asg33
(lp271
I27
aI24
aI28
aI26
aI28
aI29
aI28
aI28
aI28
aI27
asg35
(lp272
I2
aI5
aI1
aI3
aI1
aI0
aI1
aI1
aI1
aI2
asg37
(lp273
g39
ag40
ag41
ag42
ag43
ag44
ag45
ag46
ag47
ag48
asg49
(lp274
I0
aI0
aI0
aI0
aI0
aI0
aI0
aI0
aI0
aI0
asg51
(lp275
I0
aI0
aI0
aI0
aI0
aI0
aI0
aI0
aI0
aI0
asg53
(lp276
I16000
aI18300
aI16800
aI16700
aI13700
aI15200
aI17500
aI16900
aI15100
aI17000
assg55
(dp277
g57
(lp278
I16500
aI16900
aI16400
aI17100
aI15000
aI17300
aI17500
aI16400
aI15500
aI18800
asg59
(lp279
I26
aI26
aI25
aI26
aI22
aI20
aI22
aI27
aI25
aI23
asg61
(lp280
I3
aI3
aI4
aI3
aI7
aI9
aI7
aI2
aI4
aI6
asg63
(lp281
g65
ag66
ag67
ag68
ag69
ag70
ag71
ag72
ag73
ag74
asg75
(lp282
I0
aI0
aI0
aI0
aI0
aI0
aI0
aI0
aI0
aI0
asg77
(lp283
I0
aI0
aI0
aI0
aI0
aI0
aI0
aI0
aI0
aI0
asg79
(lp284
I16500
aI16900
aI16400
aI17100
aI15000
aI17300
aI17500
aI16400
aI15500
aI18800
assg81
(dp285
g83
(lp286
I31226
aI31920
aI31127
aI31427
aI22225
aI29922
aI32622
aI34820
aI30920
aI31623
asg85
(lp287
I29
aI28
aI29
aI29
aI28
aI28
aI29
aI29
aI28
aI28
asg87
(lp288
I0
aI1
aI0
aI0
aI1
aI1
aI0
aI0
aI1
aI1
asg89
(lp289
g91
ag92
ag93
ag94
ag95
ag96
ag97
ag98
ag99
ag100
asg101
(lp290
I0
aI0
aI0
aI0
aI0
aI0
aI0
aI0
aI0
aI0
asg103
(lp291
I0
aI0
aI0
aI0
aI0
aI0
aI0
aI0
aI0
aI0
asg105
(lp292
I15900
aI16400
aI16000
aI16000
aI11200
aI15200
aI17100
aI17600
aI15700
aI16500
assg107
(dp293
g109
(lp294
I6184
aI5983
aI11175
aI4184
aI3581
aI4284
aI7380
aI11578
aI6282
aI6385
asg111
(lp295
I22
aI22
aI28
aI21
aI24
aI24
aI27
aI27
aI21
aI21
asg113
(lp296
I1
aI4
aI1
aI4
aI1
aI1
aI0
aI1
aI1
aI3
asg115
(lp297
g117
ag118
ag119
ag120
ag121
ag122
ag123
ag124
ag125
ag126
asg127
(lp298
I6
aI3
aI0
aI4
aI4
aI4
aI2
aI1
aI7
aI5
asg129
(lp299
I0
aI0
aI0
aI0
aI0
aI0
aI0
aI0
aI0
aI0
asg131
(lp300
I3600
aI3800
aI6700
aI2700
aI2500
aI3200
aI4200
aI6500
aI3600
aI4400
asssS'Other'
p301
(dp302
g3
(dp303
g136
(lp304
I21850
aI21200
aI17700
aI20000
aI22800
aI22200
aI21550
aI19600
aI21550
aI19350
asg138
(lp305
I40
aI40
aI38
aI41
aI41
aI41
aI39
aI38
aI36
aI39
asg140
(lp306
I1
aI1
aI3
aI0
aI0
aI0
aI2
aI3
aI5
aI2
asg142
(lp307
g144
ag14
ag145
ag146
ag147
ag148
ag149
ag150
ag151
ag152
asg153
(lp308
I1
aI1
aI1
aI1
aI1
aI1
aI1
aI1
aI1
aI1
asg155
(lp309
I0
aI0
aI0
aI0
aI0
aI0
aI0
aI0
aI0
aI0
asg157
(lp310
I14900
aI14400
aI11900
aI13400
aI15900
aI15200
aI14800
aI13100
aI15300
aI13000
assg29
(dp311
g160
(lp312
I31200
aI29600
aI27600
aI26800
aI33200
aI30800
aI29200
aI25600
aI31200
aI27200
asg162
(lp313
I38
aI40
aI41
aI40
aI37
aI40
aI41
aI39
aI39
aI41
asg164
(lp314
I3
aI1
aI0
aI1
aI4
aI1
aI0
aI2
aI2
aI0
asg166
(lp315
g168
ag169
ag170
ag171
ag172
ag173
ag174
ag175
ag176
ag177
asg178
(lp316
I1
aI1
aI1
aI1
aI1
aI1
aI1
aI1
aI1
aI1
asg180
(lp317
I0
aI0
aI0
aI0
aI0
aI0
aI0
aI0
aI0
aI0
asg182
(lp318
I15600
aI14800
aI13800
aI13400
aI16600
aI15400
aI14600
aI12800
aI15600
aI13600
assg55
(dp319
g185
(lp320
I14100
aI14700
aI12500
aI13600
aI15700
aI16200
aI14400
aI12300
aI16100
aI14300
asg187
(lp321
I34
aI36
aI34
aI37
aI33
aI33
aI38
aI36
aI31
aI31
asg189
(lp322
I7
aI5
aI7
aI4
aI8
aI8
aI3
aI5
aI10
aI10
asg191
(lp323
g193
ag194
ag195
ag196
ag197
ag198
ag199
ag200
ag201
ag202
asg203
(lp324
I1
aI1
aI1
aI1
aI1
aI1
aI1
aI1
aI1
aI1
asg205
(lp325
I0
aI0
aI0
aI0
aI0
aI0
aI0
aI0
aI0
aI0
asg207
(lp326
I14100
aI14700
aI12500
aI13600
aI15700
aI16200
aI14400
aI12300
aI16100
aI14300
assg81
(dp327
g210
(lp328
I28827
aI27427
aI28131
aI27031
aI29733
aI29235
aI27527
aI25734
aI29531
aI26332
asg212
(lp329
I40
aI41
aI40
aI41
aI41
aI41
aI41
aI41
aI41
aI41
asg214
(lp330
I1
aI0
aI1
aI0
aI0
aI0
aI0
aI0
aI0
aI0
asg216
(lp331
g218
ag219
ag220
ag221
ag222
ag223
ag224
ag225
ag226
ag227
asg228
(lp332
I1
aI1
aI1
aI1
aI1
aI1
aI1
aI1
aI1
aI1
asg230
(lp333
I0
aI0
aI0
aI0
aI0
aI0
aI0
aI0
aI0
aI0
asg232
(lp334
I14900
aI14100
aI14200
aI13600
aI15900
aI15200
aI14700
aI12900
aI16800
aI13300
assg107
(dp335
g235
(lp336
I9772
aI5377
aI4274
aI3178
aI14677
aI7380
aI10875
aI2981
aI16170
aI6874
asg237
(lp337
I39
aI30
aI34
aI27
aI37
aI31
aI37
aI29
aI40
aI40
asg239
(lp338
I2
aI7
aI4
aI3
aI4
aI2
aI4
aI4
aI1
aI1
asg241
(lp339
g243
ag244
ag245
ag246
ag247
ag248
ag249
ag250
ag251
ag252
asg253
(lp340
I1
aI5
aI4
aI12
aI1
aI9
aI1
aI9
aI1
aI1
asg255
(lp341
I0
aI0
aI0
aI0
aI0
aI0
aI0
aI0
aI0
aI0
asg257
(lp342
I7000
aI3900
aI3000
aI1800
aI9900
aI5300
aI8300
aI2000
aI11700
aI5400
asssS'Range Error'
p343
(dp344
g3
(dp345
g5
(lp346
I25800
aI26050
aI23100
aI25100
aI24000
aI23350
aI22150
aI22250
aI25000
aI20500
asg7
(lp347
I30
aI30
aI31
aI29
aI30
aI31
aI31
aI31
aI30
aI30
asg9
(lp348
I2
aI2
aI1
aI3
aI2
aI1
aI0
aI0
aI2
aI2
asg11
(lp349
g13
ag14
ag15
ag16
ag17
ag18
ag19
ag20
ag21
ag22
asg23
(lp350
I0
aI0
aI0
aI0
aI0
aI0
aI1
aI1
aI0
aI0
asg25
(lp351
I0
aI0
aI0
aI0
aI0
aI0
aI0
aI0
aI0
aI0
asg27
(lp352
I17800
aI17800
aI16200
aI17700
aI16600
aI15800
aI15100
aI15000
aI17200
aI13700
assg29
(dp353
g31
(lp354
I34600
aI35600
aI36000
aI37800
aI34200
aI31800
aI30200
aI25600
aI35000
aI29200
asg33
(lp355
I29
aI29
aI30
aI29
aI31
aI30
aI31
aI28
aI31
aI30
asg35
(lp356
I3
aI3
aI2
aI3
aI1
aI2
aI0
aI4
aI1
aI2
asg37
(lp357
g39
ag40
ag41
ag42
ag43
ag44
ag45
ag46
ag47
ag48
asg49
(lp358
I0
aI0
aI0
aI0
aI0
aI0
aI1
aI0
aI0
aI0
asg51
(lp359
I0
aI0
aI0
aI0
aI0
aI0
aI0
aI0
aI0
aI0
asg53
(lp360
I17300
aI17800
aI18000
aI18900
aI17100
aI15900
aI15100
aI12800
aI17500
aI14600
assg55
(dp361
g57
(lp362
I18700
aI16400
aI17900
aI19000
aI17700
aI16700
aI16300
aI14100
aI17800
aI13900
asg59
(lp363
I23
aI27
aI24
aI23
aI25
aI24
aI27
aI25
aI27
aI28
asg61
(lp364
I9
aI5
aI8
aI9
aI7
aI8
aI5
aI6
aI5
aI4
asg63
(lp365
g65
ag66
ag67
ag68
ag69
ag70
ag71
ag72
ag73
ag74
asg75
(lp366
I0
aI0
aI0
aI0
aI0
aI0
aI0
aI1
aI0
aI0
asg77
(lp367
I0
aI0
aI0
aI0
aI0
aI0
aI0
aI0
aI0
aI0
asg79
(lp368
I18700
aI16400
aI17900
aI19000
aI17700
aI16700
aI16300
aI14100
aI17800
aI13900
assg81
(dp369
g83
(lp370
I32327
aI28625
aI32026
aI29225
aI32427
aI31122
aI29427
aI22424
aI32423
aI26727
asg85
(lp371
I32
aI32
aI31
aI32
aI32
aI31
aI31
aI32
aI31
aI31
asg87
(lp372
I0
aI0
aI1
aI0
aI0
aI1
aI0
aI0
aI1
aI1
asg89
(lp373
g91
ag92
ag93
ag94
ag95
ag96
ag97
ag98
ag99
ag100
asg101
(lp374
I0
aI0
aI0
aI0
aI0
aI0
aI1
aI0
aI0
aI0
asg103
(lp375
I0
aI0
aI0
aI0
aI0
aI0
aI0
aI0
aI0
aI0
asg105
(lp376
I17000
aI14900
aI17200
aI17800
aI17100
aI15900
aI15200
aI11300
aI17000
aI13400
assg107
(dp377
g109
(lp378
I15778
aI5485
aI11178
aI24374
aI5793
aI13777
aI11577
aI9379
aI10377
aI799
asg111
(lp379
I29
aI18
aI27
aI30
aI11
aI29
aI31
aI29
aI26
aI1
asg113
(lp380
I2
aI2
aI2
aI1
aI2
aI3
aI0
aI1
aI2
aI0
asg115
(lp381
g117
ag118
ag119
ag120
ag121
ag122
ag123
ag124
ag125
ag126
asg127
(lp382
I1
aI12
aI3
aI1
aI19
aI0
aI1
aI2
aI4
aI31
asg129
(lp383
I0
aI0
aI0
aI0
aI0
aI0
aI0
aI0
aI0
aI0
asg131
(lp384
I10200
aI3800
aI6300
aI13500
aI3800
aI9000
aI8100
aI6200
aI5800
aI700
asssS'Arbitrary Code'
p385
(dp386
g3
(dp387
g136
(lp388
I16950
aI11000
aI15000
aI17550
aI18800
aI18950
aI17850
aI18750
aI16500
aI14600
asg138
(lp389
I109
aI108
aI106
aI113
aI113
aI113
aI108
aI115
aI114
aI113
asg140
(lp390
I8
aI4
aI10
aI5
aI5
aI5
aI8
aI3
aI3
aI3
asg142
(lp391
g144
ag14
ag145
ag146
ag147
ag148
ag149
ag150
ag151
ag152
asg153
(lp392
I1
aI6
aI2
aI0
aI0
aI0
aI2
aI0
aI1
aI2
asg155
(lp393
I0
aI0
aI0
aI0
aI0
aI0
aI0
aI0
aI0
aI0
asg157
(lp394
I11400
aI7400
aI10200
aI12000
aI12700
aI12700
aI12000
aI12700
aI11100
aI9800
assg29
(dp395
g160
(lp396
I28200
aI22200
aI25600
aI28800
aI26800
aI26400
aI26200
aI23200
aI23400
aI23000
asg162
(lp397
I113
aI111
aI112
aI117
aI110
aI112
aI117
aI106
aI112
aI115
asg164
(lp398
I5
aI5
aI6
aI1
aI8
aI6
aI1
aI10
aI5
aI1
asg166
(lp399
g168
ag169
ag170
ag171
ag172
ag173
ag174
ag175
ag176
ag177
asg178
(lp400
I0
aI2
aI0
aI0
aI0
aI0
aI0
aI2
aI1
aI2
asg180
(lp401
I0
aI0
aI0
aI0
aI0
aI0
aI0
aI0
aI0
aI0
asg182
(lp402
I14100
aI11100
aI12800
aI14400
aI13400
aI13200
aI13100
aI11600
aI11700
aI11500
assg55
(dp403
g185
(lp404
I15000
aI12000
aI13500
aI14700
aI14800
aI14700
aI13200
aI13700
aI11900
aI13300
asg187
(lp405
I98
aI94
aI94
aI96
aI94
aI94
aI96
aI101
aI91
aI88
asg189
(lp406
I20
aI23
aI23
aI22
aI24
aI24
aI21
aI17
aI25
aI30
asg191
(lp407
g193
ag194
ag195
ag196
ag197
ag198
ag199
ag200
ag201
ag202
asg203
(lp408
I0
aI1
aI1
aI0
aI0
aI0
aI1
aI0
aI2
aI0
asg205
(lp409
I0
aI0
aI0
aI0
aI0
aI0
aI0
aI0
aI0
aI0
asg207
(lp410
I15000
aI12000
aI13500
aI14700
aI14800
aI14700
aI13200
aI13700
aI11900
aI13300
assg81
(dp411
g210
(lp412
I27292
aI17492
aI20802
aI23585
aI17585
aI25094
aI24793
aI20286
aI19395
aI19888
asg212
(lp413
I116
aI110
aI115
aI115
aI110
aI116
aI116
aI112
aI113
aI111
asg214
(lp414
I2
aI4
aI1
aI3
aI2
aI2
aI2
aI3
aI1
aI2
asg216
(lp415
g218
ag219
ag220
ag221
ag222
ag223
ag224
ag225
ag226
ag227
asg228
(lp416
I0
aI4
aI2
aI0
aI6
aI0
aI0
aI3
aI4
aI5
asg230
(lp417
I0
aI0
aI0
aI0
aI0
aI0
aI0
aI0
aI0
aI0
asg232
(lp418
I14200
aI8800
aI10500
aI12200
aI9000
aI12600
aI12600
aI10200
aI9800
aI10000
assg107
(dp419
g235
(lp420
I1599
aI5343
aI6730
aI10639
aI5744
aI9033
aI7638
aI11934
aI9248
aI9642
asg237
(lp421
I1
aI89
aI94
aI97
aI82
aI102
aI99
aI103
aI98
aI102
asg239
(lp422
I0
aI8
aI10
aI12
aI11
aI9
aI6
aI9
aI11
aI10
asg241
(lp423
g243
ag244
ag245
ag246
ag247
ag248
ag249
ag250
ag251
ag252
asg253
(lp424
I117
aI21
aI14
aI9
aI25
aI7
aI13
aI6
aI9
aI6
asg255
(lp425
I0
aI0
aI0
aI0
aI0
aI0
aI0
aI0
aI0
aI0
asg257
(lp426
I1400
aI4100
aI4800
aI8100
aI4300
aI7100
aI5800
aI9000
aI7600
aI7800
asss.