(dp0
S'Improper Control of a Resource Through its Lifetime'
p1
(dp2
S'count'
p3
I19750
sS'truepos'
p4
I71
sS'falseneg'
p5
I10
sS'correction'
p6
S'machine'
p7
sS'unknownyes'
p8
I0
sS'falsepos'
p9
I0
sS'unique'
p10
I13300
ssS'Arbitrary Code'
p11
(dp12
g3
I16300
sg4
I100
sg5
I17
sg6
g7
sg8
I1
sg9
I0
sg10
I11000
ss.