(dp0
S'Code Quality'
p1
(dp2
S'count'
p3
I37609
sS'truepos'
p4
I22
sS'falseneg'
p5
I7
sS'correction'
p6
S'machine'
p7
sS'unknownyes'
p8
I0
sS'falsepos'
p9
I0
sS'unique'
p10
I20700
ssS'Other'
p11
(dp12
S'count'
p13
I29620
sS'truepos'
p14
I32
sS'falseneg'
p15
I9
sS'correction'
p16
S'machine'
p17
sS'unknownyes'
p18
I1
sS'falsepos'
p19
I0
sS'unique'
p20
I18200
ssS'Improper Control of a Resource Through its Lifetime'
p21
(dp22
g13
I27946
sg14
I68
sg15
I13
sg16
g17
sg18
I0
sg19
I0
sg20
I14100
ssS'Range Error'
p23
(dp24
g3
I34119
sg4
I29
sg5
I3
sg6
g7
sg8
I0
sg9
I0
sg10
I18000
ssS'Arbitrary Code'
p25
(dp26
g13
I23657
sg14
I98
sg15
I19
sg16
g17
sg18
I1
sg19
I0
sg20
I11900
ss.