(dp0
S'Code Quality'
p1
(dp2
S'count'
p3
I28925
sS'truepos'
p4
I28
sS'falseneg'
p5
I1
sS'correction'
p6
S'machine'
p7
sS'unknownyes'
p8
I0
sS'falsepos'
p9
I0
sS'unique'
p10
I14700
ssS'Other'
p11
(dp12
S'count'
p13
I29637
sS'truepos'
p14
I41
sS'falseneg'
p15
I0
sS'correction'
p16
S'machine'
p17
sS'unknownyes'
p18
I1
sS'falsepos'
p19
I0
sS'unique'
p20
I15400
ssS'Improper Control of a Resource Through its Lifetime'
p21
(dp22
g13
I25371
sg14
I79
sg15
I2
sg16
g17
sg18
I0
sg19
I0
sg20
I12700
ssS'Range Error'
p23
(dp24
g3
I30730
sg4
I32
sg5
I0
sg6
g7
sg8
I0
sg9
I0
sg10
I15700
ssS'Arbitrary Code'
p25
(dp26
g13
I24007
sg14
I117
sg15
I1
sg16
g17
sg18
I0
sg19
I0
sg20
I12100
ss.