(dp0
S'Other'
p1
(dp2
S'count'
p3
I14600
sS'truepos'
p4
I29
sS'falseneg'
p5
I12
sS'correction'
p6
S'no'
p7
sS'unknownyes'
p8
I1
sS'falsepos'
p9
I0
sS'unique'
p10
I14600
ssS'Range Error'
p11
(dp12
g3
I16100
sg4
I25
sg5
I7
sg6
g7
sg8
I0
sg9
I0
sg10
I16100
ssS'Improper Control of a Resource Through its Lifetime'
p13
(dp14
g3
I15000
sg4
I56
sg5
I25
sg6
g7
sg8
I0
sg9
I0
sg10
I15000
ssS'Arbitrary Code'
p15
(dp16
g3
I14300
sg4
I91
sg5
I27
sg6
g7
sg8
I0
sg9
I0
sg10
I14300
ss.