(dp0
S'Other'
p1
(dp2
S'count'
p3
I30123
sS'truepos'
p4
I40
sS'falseneg'
p5
I2
sS'correction'
p6
S'machine'
p7
sS'unknownyes'
p8
I0
sS'falsepos'
p9
I0
sS'unique'
p10
I16700
ssS'Improper Control of a Resource Through its Lifetime'
p11
(dp12
g3
I30358
sg4
I79
sg5
I2
sg6
g7
sg8
I0
sg9
I0
sg10
I15900
ssS'Arbitrary Code'
p13
(dp14
g3
I27378
sg4
I115
sg5
I2
sg6
g7
sg8
I1
sg9
I0
sg10
I13900
ss.