(dp0
S'Other'
p1
(dp2
S'count'
p3
I23250
sS'truepos'
p4
I34
sS'falseneg'
p5
I7
sS'correction'
p6
S'machine'
p7
sS'unknownyes'
p8
I1
sS'falsepos'
p9
I0
sS'unique'
p10
I15900
ssS'Range Error'
p11
(dp12
g3
I22800
sg4
I29
sg5
I3
sg6
g7
sg8
I0
sg9
I0
sg10
I15300
ssS'Improper Control of a Resource Through its Lifetime'
p13
(dp14
g3
I18700
sg4
I76
sg5
I4
sg6
g7
sg8
I1
sg9
I0
sg10
I12500
ssS'Arbitrary Code'
p15
(dp16
g3
I14250
sg4
I105
sg5
I9
sg6
g7
sg8
I4
sg9
I0
sg10
I9600
ss.