(dp0
S'Improper Control of a Resource Through its Lifetime'
p1
(dp2
S'count'
p3
I6866
sS'truepos'
p4
I58
sS'falseneg'
p5
I20
sS'correction'
p6
S'no'
p7
sS'unknownyes'
p8
I3
sS'falsepos'
p9
I0
sS'unique'
p10
I5000
ssS'Arbitrary Code'
p11
(dp12
g3
I11859
sg4
I83
sg5
I32
sg6
g7
sg8
I3
sg9
I0
sg10
I9700
ss.