(dp0
S'Improper Control of a Resource Through its Lifetime'
p1
(dp2
S'count'
p3
I13353
sS'truepos'
p4
I65
sS'falseneg'
p5
I13
sS'correction'
p6
S'no'
p7
sS'unknownyes'
p8
I3
sS'falsepos'
p9
I0
sS'unique'
p10
I8100
ssS'Arbitrary Code'
p11
(dp12
g3
I12348
sg4
I91
sg5
I22
sg6
g7
sg8
I5
sg9
I0
sg10
I9800
ss.