(dp0
S'Other'
p1
(dp2
S'count'
p3
I28227
sS'truepos'
p4
I40
sS'falseneg'
p5
I1
sS'correction'
p6
S'machine'
p7
sS'unknownyes'
p8
I1
sS'falsepos'
p9
I0
sS'unique'
p10
I14300
ssS'Improper Control of a Resource Through its Lifetime'
p11
(dp12
g3
I25855
sg4
I77
sg5
I4
sg6
g7
sg8
I0
sg9
I0
sg10
I13000
ssS'Arbitrary Code'
p13
(dp14
g3
I22680
sg4
I113
sg5
I5
sg6
g7
sg8
I0
sg9
I0
sg10
I11500
ss.