(dp0
S'Code Quality'
p1
(dp2
S'count'
p3
I32200
sS'truepos'
p4
I27
sS'falseneg'
p5
I2
sS'correction'
p6
S'no'
p7
sS'unknownyes'
p8
I0
sS'falsepos'
p9
I0
sS'unique'
p10
I16100
ssS'Other'
p11
(dp12
g3
I31600
sg4
I35
sg5
I6
sg6
g7
sg8
I1
sg9
I0
sg10
I15800
ssS'Range Error'
p13
(dp14
g3
I40600
sg4
I25
sg5
I6
sg6
g7
sg8
I1
sg9
I0
sg10
I20300
ssS'Improper Control of a Resource Through its Lifetime'
p15
(dp16
g3
I26600
sg4
I69
sg5
I12
sg6
g7
sg8
I0
sg9
I0
sg10
I13300
ssS'Arbitrary Code'
p17
(dp18
g3
I25200
sg4
I96
sg5
I21
sg6
g7
sg8
I1
sg9
I0
sg10
I12600
ss.