(dp0
S'all'
p1
(dp2
S'machine'
p3
(dp4
S'count'
p5
(lp6
I23000
aI21800
aI24700
aI25450
aI21100
asS'truepos'
p7
(lp8
I189
aI206
aI202
aI198
aI202
asS'falseneg'
p9
(lp10
I81
aI64
aI68
aI72
aI68
asS'correction'
p11
(lp12
S'machine'
p13
aS'machine'
p14
aS'machine'
p15
aS'machine'
p16
aS'machine'
p17
asS'unknownyes'
p18
(lp19
I1
aI1
aI1
aI1
aI1
asS'falsepos'
p20
(lp21
I0
aI0
aI0
aI0
aI0
asS'unique'
p22
(lp23
I15400
aI14600
aI16500
aI17500
aI14200
assS'majority'
p24
(dp25
S'count'
p26
(lp27
I31200
aI26200
aI34400
aI32800
aI34600
aI32400
aI34000
aI30200
aI30200
aI32600
asS'truepos'
p28
(lp29
I208
aI194
aI194
aI204
aI192
aI202
aI199
aI209
aI215
aI188
asS'falseneg'
p30
(lp31
I62
aI75
aI76
aI66
aI78
aI68
aI71
aI61
aI55
aI82
asS'correction'
p32
(lp33
S'no'
p34
aS'no'
p35
aS'no'
p36
aS'no'
p37
aS'no'
p38
aS'no'
p39
aS'no'
p40
aS'no'
p41
aS'no'
p42
aS'no'
p43
asS'unknownyes'
p44
(lp45
I1
aI2
aI1
aI1
aI1
aI1
aI1
aI1
aI1
aI1
asS'falsepos'
p46
(lp47
I0
aI0
aI0
aI0
aI0
aI0
aI0
aI0
aI0
aI0
asS'unique'
p48
(lp49
I15600
aI13100
aI17200
aI16400
aI17300
aI16200
aI17000
aI15100
aI15100
aI16300
assS'none'
p50
(dp51
sS'machine3'
p52
(dp53
S'count'
p54
(lp55
I32934
aI23348
aI30923
aI33735
aI31141
aI32434
aI25132
aI31632
asS'truepos'
p56
(lp57
I229
aI235
aI224
aI236
aI233
aI226
aI237
aI224
asS'falseneg'
p58
(lp59
I41
aI35
aI46
aI34
aI37
aI44
aI33
aI46
asS'correction'
p60
(lp61
S'machine'
p62
aS'machine'
p63
aS'machine'
p64
aS'machine'
p65
aS'machine'
p66
aS'machine'
p67
aS'machine'
p68
aS'machine'
p69
asS'unknownyes'
p70
(lp71
I1
aI1
aI1
aI1
aI1
aI1
aI1
aI1
asS'falsepos'
p72
(lp73
I0
aI0
aI0
aI0
aI0
aI0
aI0
aI0
asS'unique'
p74
(lp75
I16500
aI11700
aI15500
aI16900
aI15700
aI16300
aI12600
aI15800
assS'knee'
p76
(dp77
S'count'
p78
(lp79
I11199
aI10596
aI9699
aI12799
aI14399
aI11210
asS'truepos'
p80
(lp81
I188
aI183
aI175
aI188
aI187
aI177
asS'falseneg'
p82
(lp83
I74
aI81
aI82
aI77
aI81
aI89
asS'correction'
p84
(lp85
S'no'
p86
aS'no'
p87
aS'no'
p88
aS'no'
p89
aS'no'
p90
aS'no'
p91
asS'unknownyes'
p92
(lp93
I9
aI7
aI14
aI6
aI3
aI5
asS'falsepos'
p94
(lp95
I0
aI0
aI0
aI0
aI0
aI0
asS'unique'
p96
(lp97
I8700
aI8000
aI7200
aI9700
aI10800
aI8700
asssS'Improper Control of a Resource Through its Lifetime'
p98
(dp99
g3
(dp100
S'count'
p101
(lp102
I20150
aI23950
aI23750
aI21800
aI19300
aI16250
aI22350
aI21050
aI20550
aI17500
asS'truepos'
p103
(lp104
I58
aI57
aI64
aI59
aI64
aI60
aI58
aI65
aI50
aI59
asS'falseneg'
p105
(lp106
I23
aI24
aI17
aI22
aI17
aI20
aI23
aI16
aI31
aI21
asS'correction'
p107
(lp108
S'machine'
p109
aS'machine'
p110
aS'machine'
p111
aS'machine'
p112
aS'machine'
p113
aS'machine'
p114
aS'machine'
p115
aS'machine'
p116
aS'machine'
p117
aS'machine'
p118
asS'unknownyes'
p119
(lp120
I0
aI0
aI0
aI0
aI0
aI1
aI0
aI0
aI0
aI1
asS'falsepos'
p121
(lp122
I0
aI0
aI0
aI0
aI0
aI0
aI0
aI0
aI0
aI0
asS'unique'
p123
(lp124
I13600
aI16300
aI16400
aI14800
aI12900
aI10900
aI15400
aI14100
aI13800
aI11700
assg24
(dp125
g26
(lp126
I30200
aI30000
aI33000
aI28800
aI27200
aI27000
aI34800
aI29400
aI28600
aI24000
asg28
(lp127
I48
aI57
aI65
aI52
aI62
aI62
aI62
aI55
aI59
aI60
asg30
(lp128
I33
aI24
aI16
aI28
aI19
aI19
aI19
aI26
aI22
aI20
asg32
(lp129
g34
ag35
ag36
aS'no'
p130
ag38
ag39
aS'no'
p131
ag41
aS'no'
p132
aS'no'
p133
asg44
(lp134
I0
aI0
aI0
aI1
aI0
aI0
aI0
aI0
aI0
aI1
asg46
(lp135
I0
aI0
aI0
aI0
aI0
aI0
aI0
aI0
aI0
aI0
asg48
(lp136
I15100
aI15000
aI16500
aI14400
aI13600
aI13500
aI17400
aI14700
aI14300
aI12000
assg50
(dp137
S'count'
p138
(lp139
I14700
aI16800
aI15000
aI15300
aI14100
aI14600
aI17700
aI11800
aI15200
aI19700
asS'truepos'
p140
(lp141
I49
aI44
aI41
aI41
aI39
aI39
aI30
aI49
aI42
aI33
asS'falseneg'
p142
(lp143
I32
aI37
aI40
aI39
aI42
aI42
aI51
aI31
aI39
aI48
asS'correction'
p144
(lp145
S'no'
p146
aS'no'
p147
aS'no'
p148
aS'no'
p149
aS'no'
p150
aS'no'
p151
aS'no'
p152
aS'no'
p153
aS'no'
p154
aS'no'
p155
asS'unknownyes'
p156
(lp157
I0
aI0
aI0
aI1
aI0
aI0
aI0
aI1
aI0
aI0
asS'falsepos'
p158
(lp159
I0
aI0
aI0
aI0
aI0
aI0
aI0
aI0
aI0
aI0
asS'unique'
p160
(lp161
I14700
aI16800
aI15000
aI15300
aI14100
aI14600
aI17700
aI11800
aI15200
aI19700
assg52
(dp162
S'count'
p163
(lp164
I30336
aI26642
aI30230
aI29048
aI25134
aI24341
aI29541
aI27237
aI27946
aI23734
asS'truepos'
p165
(lp166
I73
aI72
aI70
aI73
aI71
aI70
aI70
aI70
aI68
aI66
asS'falseneg'
p167
(lp168
I8
aI9
aI11
aI8
aI9
aI11
aI11
aI11
aI13
aI15
asS'correction'
p169
(lp170
S'machine'
p171
aS'machine'
p172
aS'machine'
p173
aS'machine'
p174
aS'machine'
p175
aS'machine'
p176
aS'machine'
p177
aS'machine'
p178
aS'machine'
p179
ag69
asS'unknownyes'
p180
(lp181
I0
aI0
aI0
aI0
aI1
aI0
aI0
aI0
aI0
aI0
asS'falsepos'
p182
(lp183
I0
aI0
aI0
aI0
aI0
aI0
aI0
aI0
aI0
aI0
asS'unique'
p184
(lp185
I16800
aI13600
aI16700
aI14900
aI12600
aI12200
aI17300
aI13700
aI14100
aI11900
assg76
(dp186
S'count'
p187
(lp188
I12462
aI13074
aI8366
aI7567
aI9757
aI12277
aI11167
aI11269
aI10769
aI10269
asS'truepos'
p189
(lp190
I59
aI60
aI53
aI49
aI63
aI43
aI53
aI60
aI55
aI56
asS'falseneg'
p191
(lp192
I20
aI20
aI24
aI28
aI17
aI35
aI23
aI20
aI24
aI22
asS'correction'
p193
(lp194
S'no'
p195
aS'no'
p196
aS'no'
p197
ag87
aS'no'
p198
aS'no'
p199
ag89
aS'no'
p200
aS'no'
p201
aS'no'
p202
asS'unknownyes'
p203
(lp204
I2
aI1
aI4
aI4
aI1
aI3
aI5
aI1
aI2
aI3
asS'falsepos'
p205
(lp206
I0
aI0
aI0
aI0
aI0
aI0
aI0
aI0
aI0
aI0
asS'unique'
p207
(lp208
I8400
aI9900
aI5000
aI5000
aI6500
aI8600
aI7100
aI8300
aI7400
aI6800
asssS'Code Quality'
p209
(dp210
g3
(dp211
g5
(lp212
I26700
aI26350
aI26100
aI29250
aI27350
aI24850
aI30650
aI23750
asg7
(lp213
I22
aI21
aI22
aI21
aI23
aI24
aI22
aI27
asg9
(lp214
I7
aI8
aI7
aI8
aI6
aI5
aI7
aI2
asg11
(lp215
g13
ag110
ag111
ag14
ag15
ag16
ag116
ag17
asg18
(lp216
I0
aI0
aI0
aI0
aI0
aI0
aI0
aI0
asg20
(lp217
I0
aI0
aI0
aI0
aI0
aI0
aI0
aI0
asg22
(lp218
I18000
aI18000
aI17700
aI20100
aI19000
aI17100
aI21500
aI16000
assg24
(dp219
g26
(lp220
I35200
aI35400
aI34000
aI35000
aI29800
aI32200
aI38200
aI36600
aI34800
aI32800
asg28
(lp221
I23
aI26
aI22
aI20
aI26
aI24
aI25
aI22
aI21
aI24
asg30
(lp222
I6
aI3
aI7
aI9
aI3
aI5
aI4
aI7
aI8
aI5
asg32
(lp223
g34
ag35
ag36
ag37
ag38
ag39
ag40
ag41
ag42
ag43
asg44
(lp224
I0
aI0
aI0
aI0
aI0
aI0
aI0
aI0
aI0
aI0
asg46
(lp225
I0
aI0
aI0
aI0
aI0
aI0
aI0
aI0
aI0
aI0
asg48
(lp226
I17600
aI17700
aI17000
aI17500
aI14900
aI16100
aI19100
aI18300
aI17400
aI16400
assg50
(dp227
sg52
(dp228
g54
(lp229
I34817
aI34313
aI32718
aI28114
aI34109
aI34913
aI33616
aI35020
aI37609
aI32015
asg56
(lp230
I24
aI27
aI25
aI26
aI22
aI25
aI26
aI29
aI22
aI27
asg58
(lp231
I5
aI2
aI4
aI3
aI7
aI4
aI3
aI0
aI7
aI2
asg60
(lp232
g62
ag63
ag64
ag65
ag66
ag176
ag67
ag68
aS'machine'
p233
aS'machine'
p234
asg70
(lp235
I0
aI0
aI0
aI0
aI0
aI0
aI0
aI0
aI0
aI0
asg72
(lp236
I0
aI0
aI0
aI0
aI0
aI0
aI0
aI0
aI0
aI0
asg74
(lp237
I18200
aI17800
aI16800
aI14500
aI17700
aI20100
aI17600
aI17700
aI20700
aI16700
assg76
(dp238
g78
(lp239
I8886
aI10783
aI5990
aI11588
aI12386
aI6292
asg80
(lp240
I20
aI20
aI14
aI18
aI18
aI14
asg82
(lp241
I6
aI6
aI9
aI9
aI9
aI11
asg84
(lp242
g86
ag87
ag88
ag89
ag90
ag91
asg92
(lp243
I3
aI3
aI6
aI2
aI2
aI4
asg94
(lp244
I0
aI0
aI0
aI0
aI0
aI0
asg96
(lp245
I6200
aI6800
aI3700
aI8300
aI7300
aI4500
asssS'Other'
p246
(dp247
g3
(dp248
g101
(lp249
I23950
aI24750
aI22500
aI22900
aI23250
aI25750
aI24000
aI21550
aI24400
aI20600
asg103
(lp250
I27
aI32
aI33
aI29
aI25
aI30
aI34
aI28
aI31
aI29
asg105
(lp251
I14
aI9
aI9
aI12
aI16
aI11
aI7
aI13
aI10
aI12
asg107
(lp252
g109
ag110
ag111
ag112
ag113
ag114
ag115
ag116
ag117
ag118
asg119
(lp253
I1
aI1
aI0
aI1
aI1
aI1
aI1
aI1
aI1
aI1
asg121
(lp254
I0
aI0
aI0
aI0
aI0
aI0
aI0
aI0
aI0
aI0
asg123
(lp255
I16300
aI17100
aI16000
aI15400
aI16200
aI18800
aI18100
aI14400
aI17200
aI13900
assg24
(dp256
g26
(lp257
I31600
aI31200
aI29200
aI28200
aI33200
aI29400
aI30800
aI27200
aI32800
aI27800
asg28
(lp258
I35
aI30
aI26
aI33
aI31
aI24
aI30
aI28
aI34
aI35
asg30
(lp259
I6
aI11
aI15
aI8
aI10
aI17
aI11
aI13
aI7
aI6
asg32
(lp260
g34
ag35
ag36
ag130
ag38
ag39
ag131
ag41
ag132
ag133
asg44
(lp261
I1
aI1
aI1
aI1
aI1
aI1
aI1
aI1
aI1
aI1
asg46
(lp262
I0
aI0
aI0
aI0
aI0
aI0
aI0
aI0
aI0
aI0
asg48
(lp263
I15800
aI15600
aI14600
aI14100
aI16600
aI14700
aI15400
aI13600
aI16400
aI13900
assg50
(dp264
g138
(lp265
I15400
aI18300
aI15400
aI16300
aI18400
aI17300
aI15200
aI17300
aI14900
asg140
(lp266
I22
aI24
aI23
aI22
aI24
aI21
aI21
aI22
aI24
asg142
(lp267
I19
aI17
aI19
aI19
aI17
aI20
aI21
aI19
aI17
asg144
(lp268
g146
ag147
ag149
ag150
ag151
ag152
ag153
ag154
ag155
asg156
(lp269
I1
aI1
aI0
aI1
aI1
aI1
aI0
aI1
aI1
asg158
(lp270
I0
aI0
aI0
aI0
aI0
aI0
aI0
aI0
aI0
asg160
(lp271
I15400
aI18300
aI15400
aI16300
aI18400
aI17300
aI15200
aI17300
aI14900
assg52
(dp272
g163
(lp273
I28623
aI29021
aI30621
aI27424
aI30720
aI30122
aI29926
aI25718
aI29620
aI25311
asg165
(lp274
I37
aI35
aI33
aI34
aI35
aI40
aI37
aI35
aI32
aI29
asg167
(lp275
I4
aI6
aI9
aI7
aI6
aI1
aI4
aI6
aI9
aI12
asg169
(lp276
g171
ag172
ag173
ag174
ag175
ag176
ag177
ag178
ag179
ag69
asg180
(lp277
I1
aI1
aI0
aI1
aI1
aI1
aI1
aI1
aI1
aI1
asg182
(lp278
I0
aI0
aI0
aI0
aI0
aI0
aI0
aI0
aI0
aI0
asg184
(lp279
I16000
aI14900
aI16800
aI13900
aI16800
aI15700
aI15600
aI12900
aI18200
aI12900
assg76
(dp280
g187
(lp281
I4984
aI13783
aI3783
aI4785
aI15283
aI8475
aI21881
aI2288
aI3890
asg189
(lp282
I25
aI27
aI30
aI24
aI32
aI31
aI31
aI17
aI17
asg191
(lp283
I12
aI11
aI6
aI11
aI9
aI9
aI10
aI10
aI16
asg193
(lp284
g195
ag196
ag197
ag87
ag198
ag199
ag89
ag200
ag202
asg203
(lp285
I5
aI4
aI6
aI7
aI1
aI2
aI1
aI15
aI9
asg205
(lp286
I0
aI0
aI0
aI0
aI0
aI0
aI0
aI0
aI0
asg207
(lp287
I2900
aI9300
aI2200
aI3300
aI11600
aI5100
aI14500
aI1400
aI2400
asssS'Range Error'
p288
(dp289
g3
(dp290
g5
(lp291
I25850
aI24550
aI24200
aI28600
aI26800
aI24900
aI25500
aI22150
aI24550
asg7
(lp292
I24
aI24
aI26
aI23
aI27
aI21
aI28
aI28
aI27
asg9
(lp293
I8
aI8
aI6
aI9
aI5
aI11
aI3
aI4
aI5
asg11
(lp294
g13
ag110
aS'machine'
p295
aS'machine'
p296
ag14
ag15
ag16
aS'machine'
p297
ag17
asg18
(lp298
I0
aI0
aI0
aI0
aI0
aI0
aI1
aI0
aI0
asg20
(lp299
I0
aI0
aI0
aI0
aI0
aI0
aI0
aI0
aI0
asg22
(lp300
I17800
aI16800
aI16900
aI20000
aI18500
aI19000
aI17800
aI14800
aI16900
assg24
(dp301
S'count'
p302
(lp303
I36800
aI39400
aI38400
aI37400
aI39200
aI34200
aI36200
aI29600
aI34200
aI31400
asS'truepos'
p304
(lp305
I23
aI21
aI23
aI21
aI25
aI24
aI22
aI29
aI28
aI25
asS'falseneg'
p306
(lp307
I9
aI11
aI9
aI11
aI7
aI7
aI10
aI2
aI4
aI7
asS'correction'
p308
(lp309
S'no'
p310
aS'no'
p311
aS'no'
p312
ag37
ag38
aS'no'
p313
ag40
ag41
ag42
ag43
asS'unknownyes'
p314
(lp315
I0
aI0
aI0
aI0
aI0
aI1
aI0
aI1
aI0
aI0
asS'falsepos'
p316
(lp317
I0
aI0
aI0
aI0
aI0
aI0
aI0
aI0
aI0
aI0
asS'unique'
p318
(lp319
I18400
aI19700
aI19200
aI18700
aI19600
aI17100
aI18100
aI14800
aI17100
aI15700
assg50
(dp320
sg52
(dp321
g54
(lp322
I34016
aI31917
aI34113
aI33822
aI33710
aI35514
aI30219
aI29116
aI34119
aI33015
asg56
(lp323
I29
aI27
aI27
aI28
aI27
aI25
aI29
aI29
aI29
aI29
asg58
(lp324
I3
aI5
aI5
aI4
aI5
aI7
aI2
aI2
aI3
aI3
asg60
(lp325
g62
ag63
ag64
ag65
ag66
ag176
ag67
ag68
ag233
ag234
asg70
(lp326
I0
aI0
aI0
aI0
aI0
aI0
aI1
aI1
aI0
aI0
asg72
(lp327
I0
aI0
aI0
aI0
aI0
aI0
aI0
aI0
aI0
aI0
asg74
(lp328
I17900
aI17400
aI19900
aI18300
aI17800
aI18100
aI15600
aI14800
aI18000
aI17700
assg76
(dp329
g78
(lp330
I15185
aI10681
aI15789
aI5591
aI6095
aI6191
aI998
aI5993
aI799
asg80
(lp331
I20
aI23
aI19
aI9
aI8
aI13
aI2
aI10
aI1
asg82
(lp332
I9
aI7
aI10
aI6
aI6
aI4
aI3
aI8
aI0
asg84
(lp333
g86
ag196
aS'no'
p334
ag87
ag88
aS'no'
p335
ag90
ag91
ag202
asg92
(lp336
I3
aI2
aI3
aI17
aI18
aI15
aI27
aI14
aI31
asg94
(lp337
I0
aI0
aI0
aI0
aI0
aI0
aI0
aI0
aI0
asg96
(lp338
I8900
aI6700
aI9600
aI3500
aI4200
aI4100
aI800
aI3900
aI700
asssS'Arbitrary Code'
p339
(dp340
g3
(dp341
g101
(lp342
I20050
aI13400
aI18650
aI20900
aI24000
aI17550
aI21000
aI22200
aI12750
aI14900
asg103
(lp343
I91
aI81
aI79
aI79
aI78
aI90
aI85
aI82
aI83
aI85
asg105
(lp344
I27
aI34
aI38
aI39
aI40
aI27
aI33
aI35
aI28
aI29
asg107
(lp345
g109
ag110
ag111
ag112
ag113
ag114
ag115
ag116
ag117
ag118
asg119
(lp346
I0
aI3
aI1
aI0
aI0
aI1
aI0
aI1
aI7
aI4
asg121
(lp347
I0
aI0
aI0
aI0
aI0
aI0
aI0
aI0
aI0
aI0
asg123
(lp348
I13800
aI9000
aI12500
aI14200
aI16300
aI11800
aI14100
aI15000
aI8600
aI10000
assg24
(dp349
g26
(lp350
I28000
aI24400
aI27000
aI28400
aI28400
aI28600
aI26600
aI24600
aI23200
aI25000
asg28
(lp351
I97
aI90
aI95
aI88
aI92
aI87
aI90
aI85
aI83
aI89
asg30
(lp352
I21
aI24
aI22
aI30
aI26
aI31
aI27
aI31
aI35
aI28
asg32
(lp353
g34
ag35
ag36
ag130
ag38
ag39
ag131
ag41
ag132
ag133
asg44
(lp354
I0
aI4
aI1
aI0
aI0
aI0
aI1
aI2
aI0
aI1
asg46
(lp355
I0
aI0
aI0
aI0
aI0
aI0
aI0
aI0
aI0
aI0
asg48
(lp356
I14000
aI12200
aI13500
aI14200
aI14200
aI14300
aI13300
aI12300
aI11600
aI12500
assg50
(dp357
g138
(lp358
I16900
aI12700
aI12600
aI15300
aI13100
aI15600
aI15300
aI15200
aI14000
aI14400
asg140
(lp359
I56
aI64
aI63
aI58
aI63
aI53
aI59
aI62
aI54
aI65
asg142
(lp360
I62
aI54
aI53
aI60
aI55
aI65
aI59
aI56
aI64
aI53
asg144
(lp361
g146
ag147
ag148
ag149
ag150
ag151
ag152
ag153
ag154
ag155
asg156
(lp362
I0
aI0
aI2
aI0
aI0
aI0
aI0
aI0
aI0
aI0
asg158
(lp363
I0
aI0
aI0
aI0
aI0
aI0
aI0
aI0
aI0
aI0
asg160
(lp364
I16900
aI12700
aI12600
aI15300
aI13100
aI15600
aI15300
aI15200
aI14000
aI14400
assg52
(dp365
g163
(lp366
I23557
aI24755
aI25351
aI24153
aI24451
aI26064
aI25161
aI19266
aI23657
aI21958
asg165
(lp367
I101
aI89
aI95
aI88
aI93
aI96
aI104
aI100
aI98
aI93
asg167
(lp368
I16
aI29
aI23
aI29
aI25
aI22
aI13
aI14
aI19
aI21
asg169
(lp369
g171
ag172
ag173
ag174
ag175
ag176
ag177
ag178
ag179
ag69
asg180
(lp370
I1
aI0
aI0
aI1
aI0
aI0
aI1
aI4
aI1
aI4
asg182
(lp371
I0
aI0
aI0
aI0
aI0
aI0
aI0
aI0
aI0
aI0
asg184
(lp372
I11900
aI12500
aI12900
aI13000
aI12400
aI13200
aI12700
aI9700
aI11900
aI11000
assg76
(dp373
g187
(lp374
I1599
aI8559
aI5067
aI4960
aI10156
aI10855
aI3468
aI13248
aI14261
aI6865
asg189
(lp375
I1
aI78
aI60
aI57
aI82
aI75
aI57
aI84
aI80
aI65
asg191
(lp376
I0
aI32
aI21
aI26
aI27
aI38
aI20
aI32
aI37
aI32
asg193
(lp377
g195
ag196
ag197
ag87
ag198
ag199
ag89
ag200
ag201
ag202
asg203
(lp378
I117
aI8
aI37
aI35
aI9
aI5
aI41
aI2
aI1
aI21
asg205
(lp379
I0
aI0
aI0
aI0
aI0
aI0
aI0
aI0
aI0
aI0
asg207
(lp380
I1400
aI7000
aI3100
aI3300
aI7400
aI8100
aI2400
aI9200
aI11000
aI4700
asss.