(dp0
S'all'
p1
(dp2
S'count'
p3
I6862
sS'truepos'
p4
I198
sS'falseneg'
p5
I37
sS'correction'
p6
S'no'
p7
sS'unknownyes'
p8
I36
sS'falsepos'
p9
I0
sS'unique'
p10
I4800
ssS'Improper Control of a Resource Through its Lifetime'
p11
(dp12
g3
I8049
sg4
I73
sg5
I5
sg6
g7
sg8
I3
sg9
I0
sg10
I5000
ssS'Code Quality'
p13
(dp14
g3
I2882
sg4
I19
sg5
I4
sg6
g7
sg8
I6
sg9
I0
sg10
I1800
ssS'Other'
p15
(dp16
g3
I8478
sg4
I29
sg5
I7
sg6
g7
sg8
I6
sg9
I0
sg10
I5500
ssS'Range Error'
p17
(dp18
g3
I11081
sg4
I29
sg5
I2
sg6
g7
sg8
I1
sg9
I0
sg10
I8000
ssS'Arbitrary Code'
p19
(dp20
g3
I5453
sg4
I77
sg5
I16
sg6
g7
sg8
I25
sg9
I0
sg10
I4200
ss.