(dp0
S'Improper Control of a Resource Through its Lifetime'
p1
(dp2
S'count'
p3
I21550
sS'truepos'
p4
I69
sS'falseneg'
p5
I12
sS'correction'
p6
S'machine'
p7
sS'unknownyes'
p8
I0
sS'falsepos'
p9
I0
sS'unique'
p10
I14700
ssS'Arbitrary Code'
p11
(dp12
g3
I15150
sg4
I95
sg5
I21
sg6
g7
sg8
I2
sg9
I0
sg10
I10200
ss.