(dp0
S'Code Quality'
p1
(dp2
S'count'
p3
I3984
sS'truepos'
p4
I21
sS'falseneg'
p5
I4
sS'correction'
p6
S'no'
p7
sS'unknownyes'
p8
I4
sS'falsepos'
p9
I0
sS'unique'
p10
I2400
ssS'Other'
p11
(dp12
g3
I5979
sg4
I28
sg5
I6
sg6
g7
sg8
I8
sg9
I0
sg10
I3900
ssS'Range Error'
p13
(dp14
g3
I2890
sg4
I15
sg5
I4
sg6
g7
sg8
I13
sg9
I0
sg10
I1800
ssS'Improper Control of a Resource Through its Lifetime'
p15
(dp16
g3
I9460
sg4
I59
sg5
I14
sg6
g7
sg8
I8
sg9
I0
sg10
I5500
ssS'Arbitrary Code'
p17
(dp18
g3
I11250
sg4
I91
sg5
I25
sg6
g7
sg8
I2
sg9
I0
sg10
I9100
ss.