(dp0
S'all'
p1
(dp2
S'count'
p3
I31200
sS'truepos'
p4
I208
sS'falseneg'
p5
I62
sS'correction'
p6
S'no'
p7
sS'unknownyes'
p8
I1
sS'falsepos'
p9
I0
sS'unique'
p10
I15600
ssS'Improper Control of a Resource Through its Lifetime'
p11
(dp12
g3
I30200
sg4
I48
sg5
I33
sg6
g7
sg8
I0
sg9
I0
sg10
I15100
ssS'Code Quality'
p13
(dp14
g3
I35200
sg4
I23
sg5
I6
sg6
g7
sg8
I0
sg9
I0
sg10
I17600
ssS'Other'
p15
(dp16
g3
I31600
sg4
I35
sg5
I6
sg6
g7
sg8
I1
sg9
I0
sg10
I15800
ssS'Range Error'
p17
(dp18
S'count'
p19
I36800
sS'truepos'
p20
I23
sS'falseneg'
p21
I9
sS'correction'
p22
S'no'
p23
sS'unknownyes'
p24
I0
sS'falsepos'
p25
I0
sS'unique'
p26
I18400
ssS'Arbitrary Code'
p27
(dp28
g3
I28000
sg4
I97
sg5
I21
sg6
g7
sg8
I0
sg9
I0
sg10
I14000
ss.