(dp0
S'all'
p1
(dp2
S'count'
p3
I26200
sS'truepos'
p4
I194
sS'falseneg'
p5
I75
sS'correction'
p6
S'no'
p7
sS'unknownyes'
p8
I2
sS'falsepos'
p9
I0
sS'unique'
p10
I13100
ssS'Improper Control of a Resource Through its Lifetime'
p11
(dp12
g3
I30000
sg4
I57
sg5
I24
sg6
g7
sg8
I0
sg9
I0
sg10
I15000
ssS'Code Quality'
p13
(dp14
g3
I35400
sg4
I26
sg5
I3
sg6
g7
sg8
I0
sg9
I0
sg10
I17700
ssS'Other'
p15
(dp16
g3
I31200
sg4
I30
sg5
I11
sg6
g7
sg8
I1
sg9
I0
sg10
I15600
ssS'Range Error'
p17
(dp18
S'count'
p19
I39400
sS'truepos'
p20
I21
sS'falseneg'
p21
I11
sS'correction'
p22
S'no'
p23
sS'unknownyes'
p24
I0
sS'falsepos'
p25
I0
sS'unique'
p26
I19700
ssS'Arbitrary Code'
p27
(dp28
g3
I24400
sg4
I90
sg5
I24
sg6
g7
sg8
I4
sg9
I0
sg10
I12200
ss.