(dp0
S'all'
p1
(dp2
S'machine'
p3
(dp4
S'count'
p5
(lp6
I24950
aI25300
aI24950
aI25100
aI25300
aI25300
aI24750
aI25300
aI25250
aI25150
asS'truepos'
p7
(lp8
I270
aI270
aI270
aI270
aI270
aI270
aI270
aI270
aI270
aI270
asS'falseneg'
p9
(lp10
I0
aI0
aI0
aI0
aI0
aI0
aI0
aI0
aI0
aI0
asS'correction'
p11
(lp12
S'machine'
p13
aS'machine'
p14
aS'machine'
p15
aS'machine'
p16
aS'machine'
p17
aS'machine'
p18
aS'machine'
p19
aS'machine'
p20
aS'machine'
p21
aS'machine'
p22
asS'unknownyes'
p23
(lp24
I1
aI1
aI1
aI1
aI1
aI1
aI1
aI1
aI1
aI1
asS'falsepos'
p25
(lp26
I0
aI0
aI0
aI0
aI0
aI0
aI0
aI0
aI0
aI0
asS'unique'
p27
(lp28
I16700
aI16900
aI16700
aI16800
aI16900
aI16900
aI16600
aI16900
aI16900
aI16800
assS'majority'
p29
(dp30
S'count'
p31
(lp32
I33600
aI33600
aI33800
aI33600
aI33800
aI33600
aI33800
aI33600
aI33600
aI33400
asS'truepos'
p33
(lp34
I270
aI270
aI270
aI270
aI270
aI270
aI270
aI270
aI270
aI270
asS'falseneg'
p35
(lp36
I0
aI0
aI0
aI0
aI0
aI0
aI0
aI0
aI0
aI0
asS'correction'
p37
(lp38
S'no'
p39
aS'no'
p40
aS'no'
p41
aS'no'
p42
aS'no'
p43
aS'no'
p44
aS'no'
p45
aS'no'
p46
aS'no'
p47
aS'no'
p48
asS'unknownyes'
p49
(lp50
I1
aI1
aI1
aI1
aI1
aI1
aI1
aI1
aI1
aI1
asS'falsepos'
p51
(lp52
I0
aI0
aI0
aI0
aI0
aI0
aI0
aI0
aI0
aI0
asS'unique'
p53
(lp54
I16800
aI16800
aI16900
aI16800
aI16900
aI16800
aI16900
aI16800
aI16800
aI16700
assS'none'
p55
(dp56
S'count'
p57
(lp58
I16800
aI16800
aI16900
aI16800
aI16900
aI16800
aI16900
aI16800
aI16800
aI16700
asS'truepos'
p59
(lp60
I270
aI270
aI270
aI270
aI270
aI270
aI270
aI270
aI270
aI270
asS'falseneg'
p61
(lp62
I0
aI0
aI0
aI0
aI0
aI0
aI0
aI0
aI0
aI0
asS'correction'
p63
(lp64
S'no'
p65
aS'no'
p66
aS'no'
p67
aS'no'
p68
aS'no'
p69
aS'no'
p70
aS'no'
p71
aS'no'
p72
aS'no'
p73
aS'no'
p74
asS'unknownyes'
p75
(lp76
I1
aI1
aI1
aI1
aI1
aI1
aI1
aI1
aI1
aI1
asS'falsepos'
p77
(lp78
I0
aI0
aI0
aI0
aI0
aI0
aI0
aI0
aI0
aI0
asS'unique'
p79
(lp80
I16800
aI16800
aI16900
aI16800
aI16900
aI16800
aI16900
aI16800
aI16800
aI16700
assS'machine3'
p81
(dp82
S'count'
p83
(lp84
I33470
aI33970
aI33470
aI33670
aI33970
aI33970
aI33170
aI33970
aI33870
aI33770
asS'truepos'
p85
(lp86
I270
aI270
aI270
aI270
aI270
aI270
aI270
aI270
aI270
aI270
asS'falseneg'
p87
(lp88
I0
aI0
aI0
aI0
aI0
aI0
aI0
aI0
aI0
aI0
asS'correction'
p89
(lp90
S'machine'
p91
aS'machine'
p92
aS'machine'
p93
aS'machine'
p94
aS'machine'
p95
aS'machine'
p96
aS'machine'
p97
aS'machine'
p98
aS'machine'
p99
aS'machine'
p100
asS'unknownyes'
p101
(lp102
I1
aI1
aI1
aI1
aI1
aI1
aI1
aI1
aI1
aI1
asS'falsepos'
p103
(lp104
I0
aI0
aI0
aI0
aI0
aI0
aI0
aI0
aI0
aI0
asS'unique'
p105
(lp106
I16700
aI16900
aI16700
aI16800
aI16900
aI16900
aI16600
aI16900
aI16900
aI16800
assS'knee'
p107
(dp108
S'count'
p109
(lp110
I9782
aI8007
aI7887
aI8793
aI7993
aI7690
aI9686
aI6991
aI8903
aI7799
asS'truepos'
p111
(lp112
I260
aI259
aI256
aI259
aI259
aI258
aI261
aI253
aI260
aI260
asS'falseneg'
p113
(lp114
I0
aI0
aI0
aI0
aI0
aI0
aI0
aI0
aI0
aI0
asS'correction'
p115
(lp116
S'no'
p117
aS'no'
p118
aS'no'
p119
aS'no'
p120
aS'no'
p121
aS'no'
p122
aS'no'
p123
aS'no'
p124
aS'no'
p125
aS'no'
p126
asS'unknownyes'
p127
(lp128
I11
aI12
aI15
aI12
aI12
aI13
aI10
aI18
aI11
aI11
asS'falsepos'
p129
(lp130
I0
aI0
aI0
aI0
aI0
aI0
aI0
aI0
aI0
aI0
asS'unique'
p131
(lp132
I7000
aI6200
aI5600
aI6500
aI5900
aI5600
aI7100
aI5100
aI6800
aI5900
asssS'Improper Control of a Resource Through its Lifetime'
p133
(dp134
g3
(dp135
S'count'
p136
(lp137
I20300
aI21050
aI20350
aI20350
aI19150
aI16850
aI23100
aI19700
aI19800
aI18550
asS'truepos'
p138
(lp139
I81
aI81
aI81
aI81
aI81
aI81
aI81
aI81
aI81
aI81
asS'falseneg'
p140
(lp141
I0
aI0
aI0
aI0
aI0
aI0
aI0
aI0
aI0
aI0
asS'correction'
p142
(lp143
S'machine'
p144
aS'machine'
p145
aS'machine'
p146
aS'machine'
p147
aS'machine'
p148
aS'machine'
p149
aS'machine'
p150
aS'machine'
p151
aS'machine'
p152
aS'machine'
p153
asS'unknownyes'
p154
(lp155
I0
aI0
aI0
aI0
aI0
aI0
aI0
aI0
aI0
aI0
asS'falsepos'
p156
(lp157
I0
aI0
aI0
aI0
aI0
aI0
aI0
aI0
aI0
aI0
asS'unique'
p158
(lp159
I13700
aI14200
aI13700
aI13700
aI12800
aI11300
aI15900
aI13200
aI13300
aI12400
assg29
(dp160
S'count'
p161
(lp162
I27600
aI28200
aI26800
aI27200
aI23800
aI24600
aI31800
aI26000
aI27000
aI26400
asS'truepos'
p163
(lp164
I81
aI81
aI81
aI81
aI81
aI80
aI81
aI81
aI81
aI81
asS'falseneg'
p165
(lp166
I0
aI0
aI0
aI0
aI0
aI0
aI0
aI0
aI0
aI0
asS'correction'
p167
(lp168
S'no'
p169
aS'no'
p170
aS'no'
p171
aS'no'
p172
aS'no'
p173
aS'no'
p174
aS'no'
p175
aS'no'
p176
aS'no'
p177
aS'no'
p178
asS'unknownyes'
p179
(lp180
I0
aI0
aI0
aI0
aI0
aI1
aI0
aI0
aI0
aI0
asS'falsepos'
p181
(lp182
I0
aI0
aI0
aI0
aI0
aI0
aI0
aI0
aI0
aI0
asS'unique'
p183
(lp184
I13800
aI14100
aI13400
aI13600
aI11900
aI12300
aI15900
aI13000
aI13500
aI13200
assg55
(dp185
S'count'
p186
(lp187
I13800
aI14100
aI13400
aI13600
aI11900
aI12300
aI15900
aI13000
aI13500
aI13200
asS'truepos'
p188
(lp189
I81
aI81
aI81
aI81
aI81
aI80
aI81
aI81
aI81
aI81
asS'falseneg'
p190
(lp191
I0
aI0
aI0
aI0
aI0
aI0
aI0
aI0
aI0
aI0
asS'correction'
p192
(lp193
S'no'
p194
aS'no'
p195
aS'no'
p196
aS'no'
p197
aS'no'
p198
aS'no'
p199
aS'no'
p200
aS'no'
p201
aS'no'
p202
aS'no'
p203
asS'unknownyes'
p204
(lp205
I0
aI0
aI0
aI0
aI0
aI1
aI0
aI0
aI0
aI0
asS'falsepos'
p206
(lp207
I0
aI0
aI0
aI0
aI0
aI0
aI0
aI0
aI0
aI0
asS'unique'
p208
(lp209
I13800
aI14100
aI13400
aI13600
aI11900
aI12300
aI15900
aI13000
aI13500
aI13200
assg81
(dp210
S'count'
p211
(lp212
I26981
aI27981
aI27081
aI27081
aI25581
aI22481
aI30381
aI26281
aI26381
aI24781
asS'truepos'
p213
(lp214
I81
aI81
aI81
aI81
aI81
aI81
aI81
aI81
aI81
aI81
asS'falseneg'
p215
(lp216
I0
aI0
aI0
aI0
aI0
aI0
aI0
aI0
aI0
aI0
asS'correction'
p217
(lp218
S'machine'
p219
aS'machine'
p220
aS'machine'
p221
aS'machine'
p222
aS'machine'
p223
aS'machine'
p224
aS'machine'
p225
aS'machine'
p226
aS'machine'
p227
aS'machine'
p228
asS'unknownyes'
p229
(lp230
I0
aI0
aI0
aI0
aI0
aI0
aI0
aI0
aI0
aI0
asS'falsepos'
p231
(lp232
I0
aI0
aI0
aI0
aI0
aI0
aI0
aI0
aI0
aI0
asS'unique'
p233
(lp234
I13700
aI14200
aI13700
aI13700
aI12800
aI11300
aI15900
aI13200
aI13300
aI12400
assg107
(dp235
S'count'
p236
(lp237
I9025
aI6729
aI8533
aI6132
aI7428
aI13031
aI7628
aI8031
aI5928
asS'truepos'
p238
(lp239
I78
aI78
aI78
aI77
aI78
aI80
aI79
aI78
aI77
asS'falseneg'
p240
(lp241
I0
aI0
aI0
aI0
aI0
aI0
aI0
aI0
aI0
asS'correction'
p242
(lp243
S'no'
p244
aS'no'
p245
aS'no'
p246
aS'no'
p247
aS'no'
p248
aS'no'
p249
aS'no'
p250
aS'no'
p251
aS'no'
p252
asS'unknownyes'
p253
(lp254
I3
aI3
aI3
aI4
aI3
aI1
aI2
aI3
aI4
asS'falsepos'
p255
(lp256
I0
aI0
aI0
aI0
aI0
aI0
aI0
aI0
aI0
asS'unique'
p257
(lp258
I5500
aI4300
aI5900
aI4200
aI4900
aI8800
aI4900
aI5300
aI3600
asssS'Code Quality'
p259
(dp260
g3
(dp261
g5
(lp262
I22950
aI24000
aI22950
aI23250
aI19600
aI22400
aI25000
aI24100
aI22550
aI24500
asg7
(lp263
I29
aI29
aI29
aI29
aI29
aI29
aI29
aI29
aI29
aI29
asg9
(lp264
I0
aI0
aI0
aI0
aI0
aI0
aI0
aI0
aI0
aI0
asg11
(lp265
g13
ag14
ag15
ag16
ag17
ag18
ag19
ag20
ag21
ag22
asg23
(lp266
I0
aI0
aI0
aI0
aI0
aI0
aI0
aI0
aI0
aI0
asg25
(lp267
I0
aI0
aI0
aI0
aI0
aI0
aI0
aI0
aI0
aI0
asg27
(lp268
I15500
aI16300
aI15600
aI15700
aI13100
aI15100
aI17200
aI16200
aI15200
aI16800
assg29
(dp269
g31
(lp270
I31800
aI32800
aI32400
aI31800
aI27000
aI30400
aI33800
aI31800
aI30400
aI33600
asg33
(lp271
I29
aI29
aI29
aI29
aI29
aI29
aI29
aI29
aI29
aI29
asg35
(lp272
I0
aI0
aI0
aI0
aI0
aI0
aI0
aI0
aI0
aI0
asg37
(lp273
g39
ag40
ag41
ag42
ag43
ag44
ag45
ag46
ag47
ag48
asg49
(lp274
I0
aI0
aI0
aI0
aI0
aI0
aI0
aI0
aI0
aI0
asg51
(lp275
I0
aI0
aI0
aI0
aI0
aI0
aI0
aI0
aI0
aI0
asg53
(lp276
I15900
aI16400
aI16200
aI15900
aI13500
aI15200
aI16900
aI15900
aI15200
aI16800
assg55
(dp277
g57
(lp278
I15900
aI16400
aI16200
aI15900
aI13500
aI15200
aI16900
aI15900
aI15200
aI16800
asg59
(lp279
I29
aI29
aI29
aI29
aI29
aI29
aI29
aI29
aI29
aI29
asg61
(lp280
I0
aI0
aI0
aI0
aI0
aI0
aI0
aI0
aI0
aI0
asg63
(lp281
g65
ag66
ag67
ag68
ag69
ag70
ag71
ag72
ag73
ag74
asg75
(lp282
I0
aI0
aI0
aI0
aI0
aI0
aI0
aI0
aI0
aI0
asg77
(lp283
I0
aI0
aI0
aI0
aI0
aI0
aI0
aI0
aI0
aI0
asg79
(lp284
I15900
aI16400
aI16200
aI15900
aI13500
aI15200
aI16900
aI15900
aI15200
aI16800
assg81
(dp285
g83
(lp286
I30429
aI31729
aI30329
aI30829
aI26129
aI29729
aI32829
aI32029
aI29929
aI32229
asg85
(lp287
I29
aI29
aI29
aI29
aI29
aI29
aI29
aI29
aI29
aI29
asg87
(lp288
I0
aI0
aI0
aI0
aI0
aI0
aI0
aI0
aI0
aI0
asg89
(lp289
g91
ag92
ag93
ag94
ag95
ag96
ag97
ag98
ag99
ag100
asg101
(lp290
I0
aI0
aI0
aI0
aI0
aI0
aI0
aI0
aI0
aI0
asg103
(lp291
I0
aI0
aI0
aI0
aI0
aI0
aI0
aI0
aI0
aI0
asg105
(lp292
I15500
aI16300
aI15600
aI15700
aI13100
aI15100
aI17200
aI16200
aI15200
aI16800
assg107
(dp293
g109
(lp294
I6779
aI7577
aI14375
aI6379
aI3381
aI2082
aI8376
aI14272
aI5979
aI6976
asg111
(lp295
I27
aI26
aI29
aI26
aI25
aI18
aI27
aI29
aI26
aI25
asg113
(lp296
I0
aI0
aI0
aI0
aI0
aI0
aI0
aI0
aI0
aI0
asg115
(lp297
g117
ag118
ag119
ag120
ag121
ag122
ag123
ag124
ag125
ag126
asg127
(lp298
I2
aI3
aI0
aI3
aI4
aI11
aI2
aI0
aI3
aI4
asg129
(lp299
I0
aI0
aI0
aI0
aI0
aI0
aI0
aI0
aI0
aI0
asg131
(lp300
I5100
aI5200
aI9900
aI4700
aI2600
aI1200
aI5600
aI8700
aI4400
aI4200
asssS'Other'
p301
(dp302
g3
(dp303
g136
(lp304
I20950
aI20900
aI20550
aI20150
aI22500
aI22500
aI21250
aI18250
aI22150
aI19950
asg138
(lp305
I41
aI41
aI41
aI41
aI41
aI41
aI41
aI41
aI41
aI41
asg140
(lp306
I0
aI0
aI0
aI0
aI0
aI0
aI0
aI0
aI0
aI0
asg142
(lp307
g144
ag145
ag146
ag147
ag148
ag149
ag150
ag151
ag152
ag153
asg154
(lp308
I1
aI1
aI1
aI1
aI1
aI1
aI1
aI1
aI1
aI1
asg156
(lp309
I0
aI0
aI0
aI0
aI0
aI0
aI0
aI0
aI0
aI0
asg158
(lp310
I14300
aI14200
aI13800
aI13500
aI15700
aI15400
aI14600
aI12200
aI15700
aI13400
assg29
(dp311
g161
(lp312
I29600
aI28800
aI27600
aI27800
aI31800
aI31000
aI29200
aI25800
aI31400
aI27200
asg163
(lp313
I41
aI41
aI41
aI41
aI41
aI41
aI41
aI41
aI41
aI41
asg165
(lp314
I0
aI0
aI0
aI0
aI0
aI0
aI0
aI0
aI0
aI0
asg167
(lp315
g169
ag170
ag171
ag172
ag173
ag174
ag175
ag176
ag177
ag178
asg179
(lp316
I1
aI1
aI1
aI1
aI1
aI1
aI1
aI1
aI1
aI1
asg181
(lp317
I0
aI0
aI0
aI0
aI0
aI0
aI0
aI0
aI0
aI0
asg183
(lp318
I14800
aI14400
aI13800
aI13900
aI15900
aI15500
aI14600
aI12900
aI15700
aI13600
assg55
(dp319
g186
(lp320
I14800
aI14400
aI13800
aI13900
aI15900
aI15500
aI14600
aI12900
aI15700
aI13600
asg188
(lp321
I41
aI41
aI41
aI41
aI41
aI41
aI41
aI41
aI41
aI41
asg190
(lp322
I0
aI0
aI0
aI0
aI0
aI0
aI0
aI0
aI0
aI0
asg192
(lp323
g194
ag195
ag196
ag197
ag198
ag199
ag200
ag201
ag202
ag203
asg204
(lp324
I1
aI1
aI1
aI1
aI1
aI1
aI1
aI1
aI1
aI1
asg206
(lp325
I0
aI0
aI0
aI0
aI0
aI0
aI0
aI0
aI0
aI0
asg208
(lp326
I14800
aI14400
aI13800
aI13900
aI15900
aI15500
aI14600
aI12900
aI15700
aI13600
assg81
(dp327
g211
(lp328
I27641
aI27641
aI27341
aI26841
aI29341
aI29641
aI27941
aI24341
aI28641
aI26541
asg213
(lp329
I41
aI41
aI41
aI41
aI41
aI41
aI41
aI41
aI41
aI41
asg215
(lp330
I0
aI0
aI0
aI0
aI0
aI0
aI0
aI0
aI0
aI0
asg217
(lp331
g219
ag220
ag221
ag222
ag223
ag224
ag225
ag226
ag227
ag228
asg229
(lp332
I1
aI1
aI1
aI1
aI1
aI1
aI1
aI1
aI1
aI1
asg231
(lp333
I0
aI0
aI0
aI0
aI0
aI0
aI0
aI0
aI0
aI0
asg233
(lp334
I14300
aI14200
aI13800
aI13500
aI15700
aI15400
aI14600
aI12200
aI15700
aI13400
assg107
(dp335
g236
(lp336
I7973
aI4275
aI3074
aI8368
aI10164
aI6272
aI2874
aI10669
aI3369
asg238
(lp337
I41
aI38
aI31
aI32
aI41
aI31
aI34
aI32
aI31
asg240
(lp338
I0
aI0
aI0
aI0
aI0
aI0
aI0
aI0
aI0
asg242
(lp339
g244
ag245
ag246
ag247
ag248
ag249
ag250
ag251
ag252
asg253
(lp340
I1
aI4
aI11
aI10
aI1
aI11
aI8
aI10
aI11
asg255
(lp341
I0
aI0
aI0
aI0
aI0
aI0
aI0
aI0
aI0
asg257
(lp342
I6500
aI3500
aI2200
aI4800
aI6800
aI4100
aI2200
aI6400
aI2000
asssS'Range Error'
p343
(dp344
g3
(dp345
g5
(lp346
I24650
aI24650
aI22800
aI23100
aI24600
aI23200
aI22150
aI16100
aI25900
aI19900
asg7
(lp347
I32
aI32
aI32
aI32
aI32
aI32
aI31
aI32
aI32
aI32
asg9
(lp348
I0
aI0
aI0
aI0
aI0
aI0
aI0
aI0
aI0
aI0
asg11
(lp349
g13
ag14
ag15
ag16
ag17
ag18
ag19
ag20
ag21
ag22
asg23
(lp350
I0
aI0
aI0
aI0
aI0
aI0
aI1
aI0
aI0
aI0
asg25
(lp351
I0
aI0
aI0
aI0
aI0
aI0
aI0
aI0
aI0
aI0
asg27
(lp352
I17000
aI16800
aI16000
aI16100
aI17000
aI15700
aI15100
aI10800
aI17800
aI13300
assg29
(dp353
g31
(lp354
I34600
aI34000
aI34800
aI36200
aI33200
aI31600
aI30200
aI26400
aI34600
aI27200
asg33
(lp355
I32
aI32
aI32
aI32
aI32
aI32
aI31
aI32
aI32
aI32
asg35
(lp356
I0
aI0
aI0
aI0
aI0
aI0
aI0
aI0
aI0
aI0
asg37
(lp357
g39
ag40
ag41
ag42
ag43
ag44
ag45
ag46
ag47
ag48
asg49
(lp358
I0
aI0
aI0
aI0
aI0
aI0
aI1
aI0
aI0
aI0
asg51
(lp359
I0
aI0
aI0
aI0
aI0
aI0
aI0
aI0
aI0
aI0
asg53
(lp360
I17300
aI17000
aI17400
aI18100
aI16600
aI15800
aI15100
aI13200
aI17300
aI13600
assg55
(dp361
g57
(lp362
I17300
aI17000
aI17400
aI18100
aI16600
aI15800
aI15100
aI13200
aI17300
aI13600
asg59
(lp363
I32
aI32
aI32
aI32
aI32
aI32
aI31
aI32
aI32
aI32
asg61
(lp364
I0
aI0
aI0
aI0
aI0
aI0
aI0
aI0
aI0
aI0
asg63
(lp365
g65
ag66
ag67
ag68
ag69
ag70
ag71
ag72
ag73
ag74
asg75
(lp366
I0
aI0
aI0
aI0
aI0
aI0
aI1
aI0
aI0
aI0
asg77
(lp367
I0
aI0
aI0
aI0
aI0
aI0
aI0
aI0
aI0
aI0
asg79
(lp368
I17300
aI17000
aI17400
aI18100
aI16600
aI15800
aI15100
aI13200
aI17300
aI13600
assg81
(dp369
g83
(lp370
I32332
aI32532
aI29632
aI30132
aI32232
aI30732
aI29231
aI21432
aI34032
aI26532
asg85
(lp371
I32
aI32
aI32
aI32
aI32
aI32
aI31
aI32
aI32
aI32
asg87
(lp372
I0
aI0
aI0
aI0
aI0
aI0
aI0
aI0
aI0
aI0
asg89
(lp373
g91
ag92
ag93
ag94
ag95
ag96
ag97
ag98
ag99
ag100
asg101
(lp374
I0
aI0
aI0
aI0
aI0
aI0
aI1
aI0
aI0
aI0
asg103
(lp375
I0
aI0
aI0
aI0
aI0
aI0
aI0
aI0
aI0
aI0
asg105
(lp376
I17000
aI16800
aI16000
aI16100
aI17000
aI15700
aI15100
aI10800
aI17800
aI13300
assg107
(dp377
g109
(lp378
I11972
aI10471
aI12370
aI14471
aI15172
aI8170
aI11472
aI10271
aI14471
aI799
asg111
(lp379
I31
aI31
aI30
aI31
aI31
aI31
aI31
aI31
aI31
aI1
asg113
(lp380
I0
aI0
aI0
aI0
aI0
aI0
aI0
aI0
aI0
aI0
asg115
(lp381
g117
ag118
ag119
ag120
ag121
ag122
ag123
ag124
ag125
ag126
asg127
(lp382
I1
aI1
aI2
aI1
aI1
aI1
aI1
aI1
aI1
aI31
asg129
(lp383
I0
aI0
aI0
aI0
aI0
aI0
aI0
aI0
aI0
aI0
asg131
(lp384
I7800
aI6500
aI6800
aI9000
aI9900
aI4800
aI7500
aI6400
aI9000
aI700
asssS'Arbitrary Code'
p385
(dp386
g3
(dp387
g136
(lp388
I18150
aI16600
aI13650
aI15750
aI19400
aI17250
aI18100
aI17350
aI13800
aI13700
asg138
(lp389
I118
aI116
aI113
aI116
aI118
aI118
aI118
aI116
aI113
aI114
asg140
(lp390
I0
aI0
aI0
aI0
aI0
aI0
aI0
aI0
aI0
aI0
asg142
(lp391
g144
ag145
ag146
ag147
ag148
ag149
ag150
ag151
ag152
ag153
asg154
(lp392
I0
aI2
aI5
aI2
aI0
aI0
aI0
aI2
aI5
aI4
asg156
(lp393
I0
aI0
aI0
aI0
aI0
aI0
aI0
aI0
aI0
aI0
asg158
(lp394
I12200
aI11100
aI9200
aI10800
aI13100
aI11600
aI12200
aI11600
aI9300
aI9200
assg29
(dp395
g161
(lp396
I27600
aI22600
aI26200
aI28600
aI26600
aI26600
aI26600
aI22400
aI24800
aI23200
asg163
(lp397
I118
aI116
aI118
aI118
aI117
aI118
aI118
aI116
aI117
aI116
asg165
(lp398
I0
aI0
aI0
aI0
aI0
aI0
aI0
aI0
aI0
aI0
asg167
(lp399
g169
ag170
ag171
ag172
ag173
ag174
ag175
ag176
ag177
ag178
asg179
(lp400
I0
aI2
aI0
aI0
aI1
aI0
aI0
aI2
aI1
aI2
asg181
(lp401
I0
aI0
aI0
aI0
aI0
aI0
aI0
aI0
aI0
aI0
asg183
(lp402
I13800
aI11300
aI13100
aI14300
aI13300
aI13300
aI13300
aI11200
aI12400
aI11600
assg55
(dp403
g186
(lp404
I13800
aI11300
aI13100
aI14300
aI13300
aI13300
aI13300
aI11200
aI12400
aI11600
asg188
(lp405
I118
aI116
aI118
aI118
aI117
aI118
aI118
aI116
aI117
aI116
asg190
(lp406
I0
aI0
aI0
aI0
aI0
aI0
aI0
aI0
aI0
aI0
asg192
(lp407
g194
ag195
ag196
ag197
ag198
ag199
ag200
ag201
ag202
ag203
asg204
(lp408
I0
aI2
aI0
aI0
aI1
aI0
aI0
aI2
aI1
aI2
asg206
(lp409
I0
aI0
aI0
aI0
aI0
aI0
aI0
aI0
aI0
aI0
asg208
(lp410
I13800
aI11300
aI13100
aI14300
aI13300
aI13300
aI13300
aI11200
aI12400
aI11600
assg81
(dp411
g211
(lp412
I24218
aI22216
aI18213
aI20816
aI25818
aI23018
aI24118
aI23216
aI18413
aI18314
asg213
(lp413
I118
aI116
aI113
aI116
aI118
aI118
aI118
aI116
aI113
aI114
asg215
(lp414
I0
aI0
aI0
aI0
aI0
aI0
aI0
aI0
aI0
aI0
asg217
(lp415
g219
ag220
ag221
ag222
ag223
ag224
ag225
ag226
ag227
ag228
asg229
(lp416
I0
aI2
aI5
aI2
aI0
aI0
aI0
aI2
aI5
aI4
asg231
(lp417
I0
aI0
aI0
aI0
aI0
aI0
aI0
aI0
aI0
aI0
asg233
(lp418
I12200
aI11100
aI9200
aI10800
aI13100
aI11600
aI12200
aI11600
aI9300
aI9200
assg107
(dp419
S'count'
p420
(lp421
I1599
aI5527
aI6816
aI10021
aI12018
aI9115
aI8122
aI8033
aI8029
aI5120
asS'truepos'
p422
(lp423
I1
aI100
aI105
aI112
aI117
aI112
aI110
aI108
aI106
aI98
asS'falseneg'
p424
(lp425
I0
aI0
aI0
aI0
aI0
aI0
aI0
aI0
aI0
aI0
asS'correction'
p426
(lp427
S'no'
p428
ag244
ag245
ag246
ag247
ag248
ag249
ag250
ag251
ag252
asS'unknownyes'
p429
(lp430
I117
aI18
aI13
aI6
aI1
aI6
aI8
aI10
aI12
aI20
asS'falsepos'
p431
(lp432
I0
aI0
aI0
aI0
aI0
aI0
aI0
aI0
aI0
aI0
asS'unique'
p433
(lp434
I1400
aI4300
aI5000
aI7900
aI9500
aI6900
aI6400
aI6700
aI6500
aI3700
asss.