(dp0
S'all'
p1
(dp2
S'count'
p3
I7913
sS'truepos'
p4
I248
sS'falseneg'
p5
I7
sS'correction'
p6
S'no'
p7
sS'unknownyes'
p8
I16
sS'falsepos'
p9
I0
sS'unique'
p10
I5700
ssS'Improper Control of a Resource Through its Lifetime'
p11
(dp12
g3
I7248
sg4
I74
sg5
I5
sg6
g7
sg8
I2
sg9
I0
sg10
I5300
ssS'Code Quality'
p13
(dp14
g3
I2883
sg4
I21
sg5
I1
sg6
g7
sg8
I7
sg9
I0
sg10
I1700
ssS'Other'
p15
(dp16
g3
I4778
sg4
I35
sg5
I3
sg6
g7
sg8
I4
sg9
I0
sg10
I3800
ssS'Range Error'
p17
(dp18
g3
I9276
sg4
I29
sg5
I2
sg6
g7
sg8
I1
sg9
I0
sg10
I6200
ssS'Arbitrary Code'
p19
(dp20
g3
I8832
sg4
I100
sg5
I6
sg6
g7
sg8
I12
sg9
I0
sg10
I6700
ss.