(dp0
S'all'
p1
(dp2
S'count'
p3
I32714
sS'truepos'
p4
I267
sS'falseneg'
p5
I3
sS'correction'
p6
S'machine'
p7
sS'unknownyes'
p8
I1
sS'falsepos'
p9
I0
sS'unique'
p10
I16300
ssS'Improper Control of a Resource Through its Lifetime'
p11
(dp12
g3
I23359
sg4
I76
sg5
I5
sg6
g7
sg8
I0
sg9
I0
sg10
I11700
ssS'Code Quality'
p13
(dp14
g3
I28825
sg4
I28
sg5
I1
sg6
g7
sg8
I0
sg9
I0
sg10
I14500
ssS'Other'
p15
(dp16
g3
I29232
sg4
I41
sg5
I0
sg6
g7
sg8
I1
sg9
I0
sg10
I15200
ssS'Range Error'
p17
(dp18
g3
I27524
sg4
I30
sg5
I1
sg6
g7
sg8
I1
sg9
I0
sg10
I13900
ssS'Arbitrary Code'
p19
(dp20
g3
I19990
sg4
I114
sg5
I4
sg6
g7
sg8
I0
sg9
I0
sg10
I10100
ss.