(dp0
S'Other'
p1
(dp2
S'count'
p3
I15500
sS'truepos'
p4
I22
sS'falseneg'
p5
I19
sS'correction'
p6
S'no'
p7
sS'unknownyes'
p8
I1
sS'falsepos'
p9
I0
sS'unique'
p10
I15500
ssS'Improper Control of a Resource Through its Lifetime'
p11
(dp12
g3
I14300
sg4
I53
sg5
I28
sg6
g7
sg8
I0
sg9
I0
sg10
I14300
ssS'Range Error'
p13
(dp14
S'count'
p15
I18800
sS'truepos'
p16
I21
sS'falseneg'
p17
I11
sS'correction'
p18
S'no'
p19
sS'unknownyes'
p20
I0
sS'falsepos'
p21
I0
sS'unique'
p22
I18800
ssS'Arbitrary Code'
p23
(dp24
g3
I10900
sg4
I67
sg5
I47
sg6
g7
sg8
I4
sg9
I0
sg10
I10900
ss.