(dp0
S'Code Quality'
p1
(dp2
S'count'
p3
I26100
sS'truepos'
p4
I22
sS'falseneg'
p5
I7
sS'correction'
p6
S'machine'
p7
sS'unknownyes'
p8
I0
sS'falsepos'
p9
I0
sS'unique'
p10
I17700
ssS'Other'
p11
(dp12
g3
I22500
sg4
I33
sg5
I9
sg6
g7
sg8
I0
sg9
I0
sg10
I16000
ssS'Improper Control of a Resource Through its Lifetime'
p13
(dp14
g3
I23750
sg4
I64
sg5
I17
sg6
g7
sg8
I0
sg9
I0
sg10
I16400
ssS'Range Error'
p15
(dp16
S'count'
p17
I24200
sS'truepos'
p18
I26
sS'falseneg'
p19
I6
sS'correction'
p20
S'machine'
p21
sS'unknownyes'
p22
I0
sS'falsepos'
p23
I0
sS'unique'
p24
I16900
ssS'Arbitrary Code'
p25
(dp26
g3
I18650
sg4
I79
sg5
I38
sg6
g7
sg8
I1
sg9
I0
sg10
I12500
ss.