(dp0
S'all'
p1
(dp2
S'est'
p3
(dp4
S'x'
p5
(lp6
sS'semi'
p7
(lp8
ssS'pos'
p9
(dp10
g5
(lp11
I0
aI1000
aI2000
aI3000
aI4000
aI5000
aI6000
aI7000
aI8000
aI9000
aI10000
aI11000
aI12000
aI13000
aI14000
aI15000
aI16000
aI17000
aI18000
aI19000
aI20000
aI21000
aI22000
aI23000
aI24000
aI25000
aI26000
aI27000
aI28000
aI28750
asg9
(lp12
I0
aI17
aI24
aI24
aI24
aI24
aI24
aI24
aI24
aI25
aI29
aI53
aI110
aI146
aI184
aI207
aI231
aI252
aI258
aI263
aI267
aI268
aI268
aI268
aI268
aI269
aI269
aI270
aI270
aI271
asssS'Improper Control of a Resource Through its Lifetime'
p13
(dp14
S'est'
p15
(dp16
S'x'
p17
(lp18
sS'semi'
p19
(lp20
ssS'pos'
p21
(dp22
g17
(lp23
I0
aI1000
aI2000
aI3000
aI4000
aI5000
aI6000
aI7000
aI8000
aI9000
aI10000
aI11000
aI12000
aI13000
aI14000
aI15000
aI16000
aI17000
aI18000
aI19000
aI20000
aI21000
aI22000
aI23000
aI24000
aI25000
asg21
(lp24
I0
aI4
aI8
aI9
aI12
aI13
aI14
aI19
aI22
aI22
aI32
aI40
aI60
aI63
aI68
aI68
aI68
aI68
aI68
aI71
aI73
aI79
aI79
aI79
aI79
aI81
asssS'Code Quality'
p25
(dp26
S'est'
p27
(dp28
S'x'
p29
(lp30
sS'semi'
p31
(lp32
ssS'pos'
p33
(dp34
g29
(lp35
I0
aI1000
aI2000
aI3000
aI4000
aI5000
aI6000
aI7000
aI8000
aI9000
aI10000
aI11000
aI12000
aI13000
aI14000
aI15000
aI16000
aI17000
aI18000
aI19000
aI20000
aI21000
aI22000
aI23000
aI24000
aI25000
asg33
(lp36
I0
aI1
aI4
aI4
aI6
aI6
aI7
aI8
aI14
aI14
aI15
aI16
aI20
aI20
aI20
aI20
aI20
aI20
aI20
aI20
aI21
aI24
aI25
aI26
aI27
aI29
asssS'Other'
p37
(dp38
S'est'
p39
(dp40
S'x'
p41
(lp42
sS'semi'
p43
(lp44
ssS'pos'
p45
(dp46
g41
(lp47
I0
aI1000
aI2000
aI3000
aI4000
aI5000
aI6000
aI7000
aI8000
aI9000
aI10000
aI11000
aI12000
aI13000
aI14000
aI15000
aI16000
aI17000
aI18000
aI19000
aI20000
aI21000
aI22000
aI23000
aI24000
aI25000
asg45
(lp48
I0
aI4
aI7
aI8
aI10
aI10
aI10
aI13
aI22
aI22
aI22
aI22
aI22
aI22
aI24
aI28
aI30
aI30
aI34
aI35
aI37
aI39
aI39
aI39
aI41
aI42
asssS'Range Error'
p49
(dp50
S'est'
p51
(dp52
S'x'
p53
(lp54
sS'semi'
p55
(lp56
ssS'pos'
p57
(dp58
g53
(lp59
I0
aI1000
aI2000
aI3000
aI4000
aI5000
aI6000
aI7000
aI8000
aI9000
aI10000
aI11000
aI12000
aI13000
aI14000
aI15000
aI16000
aI17000
aI18000
aI19000
aI20000
aI21000
aI22000
aI23000
aI24000
asg57
(lp60
I0
aI2
aI6
aI7
aI9
aI10
aI10
aI11
aI11
aI11
aI11
aI21
aI25
aI27
aI28
aI28
aI28
aI28
aI28
aI28
aI28
aI29
aI29
aI31
aI32
asssS'Arbitrary Code'
p61
(dp62
S'est'
p63
(dp64
S'x'
p65
(lp66
sS'semi'
p67
(lp68
ssS'pos'
p69
(dp70
g65
(lp71
I0
aI1000
aI2000
aI3000
aI4000
aI5000
aI6000
aI7000
aI8000
aI9000
aI10000
aI11000
aI12000
aI13000
aI14000
aI15000
aI16000
aI17000
aI18000
aI19000
aI20000
aI21000
aI22000
aI23000
aI24000
aI25000
aI26000
aI27000
aI28000
aI28750
asg69
(lp72
I0
aI6
aI10
aI13
aI14
aI17
aI35
aI36
aI47
aI61
aI69
aI69
aI69
aI69
aI69
aI72
aI80
aI84
aI87
aI102
aI111
aI116
aI116
aI117
aI117
aI117
aI117
aI117
aI117
aI118
asss.