(dp0
S'Arbitrary Code'
p1
(dp2
S'est'
p3
(dp4
S'x'
p5
(lp6
I100
aI200
aI300
aI400
aI500
aI600
aI700
aI800
aI900
aI1000
aI1100
aI1200
aI1300
aI1400
aI1500
aI1600
aI1700
aI1800
aI1900
aI2000
aI2100
aI2200
aI2300
aI2400
aI2500
aI2600
aI2700
aI2800
aI2900
aI3000
aI3100
aI3200
aI3300
aI3400
aI3500
aI3600
aI3700
aI3800
aI3900
aI4000
aI4100
aI4200
aI4300
aI4400
aI4500
aI4600
aI4700
aI4800
aI4900
aI5000
aI5100
aI5200
aI5300
aI5400
aI5500
aI5600
aI5700
aI5800
aI5900
aI6000
aI6100
aI6200
aI6300
aI6400
aI6500
aI6600
aI6700
aI6800
aI6900
aI7000
aI7100
aI7200
aI7300
aI7400
aI7500
aI7600
aI7700
aI7800
aI7900
aI8000
aI8100
aI8200
aI8300
aI8400
aI8500
aI8600
aI8700
aI8800
aI8900
aI9000
aI9100
aI9200
aI9300
aI9400
aI9500
aI9600
aI9700
aI9800
aI9900
aI10000
aI10100
aI10200
aI10300
aI10400
aI10500
aI10600
aI10700
aI10800
aI10900
aI11000
aI11100
aI11200
aI11300
aI11400
aI11500
aI11600
aI11700
aI11800
aI11900
aI12000
aI12100
aI12200
aI12300
aI12400
aI12500
aI12600
aI12700
aI12800
aI12900
aI13000
aI13100
aI13200
aI13300
aI13400
aI13500
aI13600
aI13700
aI13800
aI13900
aI14000
aI14100
aI14200
aI14300
aI14400
aI14500
aI14600
aI14700
aI14800
aI14900
aI15000
aI15100
aI15200
aI15300
aI15400
aI15500
aI15600
aI15700
aI15800
aI15900
aI16000
aI16100
aI16200
aI16300
aI16400
aI16500
aI16600
aI16700
aI16800
aI16900
aI17000
aI17100
aI17200
aI17300
aI17400
aI17500
aI17600
aI17700
aI17800
aI17900
aI18000
aI18100
aI18200
aI18300
aI18400
aI18500
aI18600
aI18700
aI18800
aI18900
aI19000
aI19100
aI19200
aI19300
aI19400
aI19500
aI19600
aI19700
aI19800
aI19900
asS'semi'
p7
(lp8
I157
aI125
aI110
aI106
aI101
aI111
aI103
aI106
aI119
aI126
aI128
aI136
aI135
aI144
aI144
aI138
aI139
aI133
aI127
aI128
aI138
aI143
aI139
aI148
aI152
aI146
aI138
aI127
aI123
aI119
aI116
aI119
aI116
aI125
aI125
aI124
aI121
aI120
aI119
aI114
aI119
aI118
aI121
aI142
aI158
aI153
aI141
aI140
aI148
aI153
aI150
aI151
aI150
aI136
aI136
aI142
aI140
aI137
aI142
aI131
aI138
aI131
aI135
aI130
aI130
aI133
aI135
aI128
aI130
aI130
aI131
aI130
aI129
aI127
aI129
aI132
aI127
aI126
aI126
aI126
aI126
aI130
aI129
aI129
aI126
aI129
aI125
aI125
aI126
aI126
aI124
aI125
aI124
aI125
aI126
aI125
aI123
aI123
aI123
aI122
aI124
aI124
aI124
aI123
aI124
aI123
aI123
aI123
aI122
aI122
aI122
aI125
aI126
aI127
aI126
aI125
aI125
aI126
aI125
aI125
aI125
aI125
aI125
aI124
aI124
aI124
aI124
aI124
aI124
aI123
aI124
aI123
aI123
aI124
aI123
aI123
aI123
aI123
aI123
aI123
aI122
aI122
aI122
aI122
aI122
aI122
aI122
aI122
aI122
aI122
aI122
aI122
aI121
aI121
aI121
aI121
aI121
aI121
aI121
aI121
aI121
aI121
aI121
aI121
aI121
aI121
aI121
aI121
aI121
aI121
aI120
aI120
aI120
aI120
aI120
aI120
aI120
aI120
aI120
aI120
aI120
aI120
aI120
aI120
aI120
aI120
aI120
aI120
aI120
aI120
aI120
aI120
aI120
aI120
aI120
aI120
aI120
aI120
aI119
assS'pos'
p9
(dp10
g5
(lp11
I0
aI100
aI200
aI300
aI400
aI500
aI600
aI700
aI800
aI900
aI1000
aI1100
aI1200
aI1300
aI1400
aI1500
aI1600
aI1700
aI1800
aI1900
aI2000
aI2100
aI2200
aI2300
aI2400
aI2500
aI2600
aI2700
aI2800
aI2900
aI3000
aI3100
aI3200
aI3300
aI3400
aI3500
aI3600
aI3700
aI3800
aI3900
aI4000
aI4100
aI4200
aI4300
aI4400
aI4500
aI4600
aI4700
aI4800
aI4900
aI5000
aI5100
aI5200
aI5300
aI5400
aI5500
aI5600
aI5700
aI5800
aI5900
aI6000
aI6100
aI6200
aI6300
aI6400
aI6500
aI6600
aI6700
aI6800
aI6900
aI7000
aI7100
aI7200
aI7300
aI7400
aI7500
aI7600
aI7700
aI7800
aI7900
aI8000
aI8100
aI8200
aI8300
aI8400
aI8500
aI8600
aI8700
aI8800
aI8900
aI9000
aI9100
aI9200
aI9300
aI9400
aI9500
aI9600
aI9700
aI9800
aI9900
aI10000
aI10100
aI10200
aI10300
aI10400
aI10500
aI10600
aI10700
aI10800
aI10900
aI11000
aI11100
aI11200
aI11300
aI11400
aI11500
aI11600
aI11700
aI11800
aI11900
aI12000
aI12100
aI12200
aI12300
aI12400
aI12500
aI12600
aI12700
aI12800
aI12900
aI13000
aI13100
aI13200
aI13300
aI13400
aI13500
aI13600
aI13700
aI13800
aI13900
aI14000
aI14100
aI14200
aI14300
aI14400
aI14500
aI14600
aI14700
aI14800
aI14900
aI15000
aI15100
aI15200
aI15300
aI15400
aI15500
aI15600
aI15700
aI15800
aI15900
aI16000
aI16100
aI16200
aI16300
aI16400
aI16500
aI16600
aI16700
aI16800
aI16900
aI17000
aI17100
aI17200
aI17300
aI17400
aI17500
aI17600
aI17700
aI17800
aI17900
aI18000
aI18100
aI18200
aI18300
aI18400
aI18500
aI18600
aI18700
aI18800
aI18900
aI19000
aI19100
aI19200
aI19300
aI19400
aI19500
aI19600
aI19700
aI19800
aI19900
asg9
(lp12
I0
aI17
aI18
aI21
aI25
aI27
aI33
aI33
aI36
aI41
aI45
aI48
aI53
aI55
aI60
aI62
aI63
aI65
aI66
aI68
aI70
aI75
aI78
aI80
aI83
aI85
aI86
aI87
aI87
aI87
aI87
aI87
aI90
aI91
aI93
aI94
aI94
aI94
aI95
aI95
aI95
aI97
aI97
aI99
aI103
aI105
aI106
aI107
aI107
aI108
aI109
aI109
aI109
aI109
aI109
aI109
aI110
aI111
aI113
aI113
aI113
aI113
aI113
aI113
aI113
aI113
aI114
aI114
aI114
aI115
aI115
aI115
aI115
aI115
aI115
aI115
aI115
aI115
aI115
aI115
aI115
aI115
aI116
aI116
aI116
aI116
aI116
aI116
aI116
aI116
aI116
aI116
aI116
aI116
aI116
aI116
aI116
aI116
aI116
aI116
aI116
aI117
aI117
aI117
aI117
aI117
aI117
aI117
aI117
aI117
aI117
aI117
aI118
aI119
aI119
aI119
aI119
aI119
aI119
aI119
aI119
aI119
aI119
aI119
aI119
aI119
aI119
aI119
aI119
aI119
aI119
aI119
aI119
aI119
aI119
aI119
aI119
aI119
aI119
aI119
aI119
aI119
aI119
aI119
aI119
aI119
aI119
aI119
aI119
aI119
aI119
aI119
aI119
aI119
aI119
aI119
aI119
aI119
aI119
aI119
aI119
aI119
aI119
aI119
aI119
aI119
aI119
aI119
aI119
aI119
aI119
aI119
aI119
aI119
aI119
aI119
aI119
aI119
aI119
aI119
aI119
aI119
aI119
aI119
aI119
aI119
aI119
aI119
aI119
aI119
aI119
aI119
aI119
aI119
aI119
aI119
aI119
aI119
aI119
aI119
asss.