(dp0
S'all'
p1
(dp2
S'est'
p3
(dp4
S'x'
p5
(lp6
I200
aI300
aI400
aI500
aI600
aI700
aI800
aI900
aI1000
aI1100
aI1200
aI1300
aI1400
aI1500
aI1600
aI1700
aI1800
aI1900
aI2000
aI2100
aI2200
aI2300
aI2400
aI2500
aI2600
aI2700
aI2800
aI2900
aI3000
aI3100
aI3200
aI3300
aI3400
aI3500
aI3600
aI3700
aI3800
aI3900
aI4000
aI4100
aI4200
aI4300
aI4400
aI4500
aI4600
aI4700
aI4800
aI4900
aI5000
aI5100
aI5200
aI5300
aI5400
aI5500
aI5600
aI5700
aI5800
aI5900
aI6000
aI6100
aI6200
aI6300
aI6400
aI6500
aI6600
aI6700
aI6800
aI6900
aI7000
aI7100
aI7200
aI7300
aI7400
aI7500
aI7600
aI7700
aI7800
aI7900
aI8000
aI8100
aI8200
aI8300
aI8400
aI8500
aI8600
aI8700
aI8800
aI8900
aI9000
aI9100
aI9200
aI9300
aI9400
aI9500
aI9600
aI9700
aI9800
aI9900
aI10000
aI10100
aI10200
aI10300
aI10400
aI10500
aI10600
aI10700
aI10800
aI10900
aI11000
aI11100
aI11200
aI11300
aI11400
aI11500
aI11600
aI11700
aI11800
aI11900
aI12000
aI12100
aI12200
aI12300
aI12400
aI12500
aI12600
aI12700
aI12800
aI12900
aI13000
aI13100
aI13200
aI13300
aI13400
aI13500
aI13600
aI13700
aI13800
aI13900
aI14000
aI14100
aI14200
aI14300
aI14400
aI14500
aI14600
aI14700
aI14800
aI14900
aI15000
aI15100
aI15200
aI15300
aI15400
aI15500
aI15600
aI15700
aI15800
aI15900
aI16000
aI16100
aI16200
aI16300
aI16400
aI16500
aI16600
aI16700
aI16800
aI16900
aI17000
aI17100
aI17200
aI17300
aI17400
aI17500
aI17600
aI17700
aI17800
aI17900
aI18000
aI18100
aI18200
aI18300
aI18400
aI18500
aI18600
aI18700
aI18800
aI18900
aI19000
aI19100
aI19200
aI19300
aI19400
aI19500
aI19600
aI19700
aI19800
aI19900
aI20000
aI20100
aI20200
aI20300
aI20400
aI20500
aI20600
aI20700
aI20800
aI20900
aI21000
aI21100
aI21200
aI21300
aI21400
aI21500
aI21600
aI21700
aI21800
aI21900
aI22000
aI22100
aI22200
aI22300
aI22400
aI22500
aI22600
aI22700
aI22800
aI22900
aI23000
aI23100
aI23200
aI23300
aI23400
aI23500
aI23600
aI23700
aI23800
aI23900
aI24000
aI24100
aI24200
aI24300
aI24400
aI24500
aI24600
aI24700
aI24800
asS'semi'
p7
(lp8
I188
aI144
aI172
aI190
aI197
aI210
aI223
aI210
aI213
aI226
aI234
aI224
aI248
aI238
aI254
aI271
aI247
aI251
aI248
aI244
aI256
aI262
aI268
aI273
aI274
aI274
aI270
aI270
aI274
aI271
aI266
aI264
aI271
aI261
aI262
aI265
aI266
aI264
aI263
aI261
aI259
aI260
aI259
aI256
aI256
aI271
aI268
aI271
aI271
aI277
aI277
aI277
aI273
aI276
aI276
aI273
aI277
aI279
aI278
aI277
aI273
aI275
aI271
aI272
aI272
aI270
aI271
aI270
aI270
aI269
aI269
aI274
aI275
aI275
aI273
aI273
aI274
aI276
aI275
aI277
aI277
aI277
aI277
aI276
aI276
aI276
aI276
aI276
aI275
aI275
aI274
aI274
aI275
aI274
aI274
aI273
aI273
aI273
aI273
aI276
aI275
aI275
aI275
aI275
aI275
aI274
aI274
aI273
aI274
aI275
aI274
aI274
aI274
aI274
aI274
aI274
aI274
aI273
aI273
aI273
aI273
aI273
aI273
aI273
aI273
aI272
aI272
aI272
aI272
aI272
aI272
aI272
aI272
aI272
aI272
aI272
aI272
aI272
aI272
aI272
aI272
aI272
aI271
aI271
aI271
aI271
aI271
aI271
aI271
aI271
aI271
aI271
aI271
aI271
aI271
aI271
aI271
aI271
aI271
aI271
aI271
aI271
aI271
aI271
aI271
aI271
aI270
aI270
aI270
aI270
aI270
aI270
aI270
aI270
aI270
aI270
aI270
aI270
aI270
aI270
aI270
aI270
aI270
aI270
aI270
aI270
aI270
aI270
aI270
aI270
aI270
aI270
aI270
aI270
aI270
aI270
aI270
aI270
aI270
aI270
aI270
aI270
aI270
aI270
aI270
aI270
aI270
aI270
aI270
aI270
aI270
aI270
aI270
aI270
aI270
aI270
aI270
aI270
aI270
aI270
aI270
aI270
aI270
aI270
aI270
aI270
aI270
aI270
aI270
aI270
aI270
aI270
aI270
aI270
aI270
aI270
aI270
aI270
aI270
aI270
aI270
aI270
aI270
aI270
aI270
aI270
aI271
assS'pos'
p9
(dp10
g5
(lp11
I0
aI100
aI200
aI300
aI400
aI500
aI600
aI700
aI800
aI900
aI1000
aI1100
aI1200
aI1300
aI1400
aI1500
aI1600
aI1700
aI1800
aI1900
aI2000
aI2100
aI2200
aI2300
aI2400
aI2500
aI2600
aI2700
aI2800
aI2900
aI3000
aI3100
aI3200
aI3300
aI3400
aI3500
aI3600
aI3700
aI3800
aI3900
aI4000
aI4100
aI4200
aI4300
aI4400
aI4500
aI4600
aI4700
aI4800
aI4900
aI5000
aI5100
aI5200
aI5300
aI5400
aI5500
aI5600
aI5700
aI5800
aI5900
aI6000
aI6100
aI6200
aI6300
aI6400
aI6500
aI6600
aI6700
aI6800
aI6900
aI7000
aI7100
aI7200
aI7300
aI7400
aI7500
aI7600
aI7700
aI7800
aI7900
aI8000
aI8100
aI8200
aI8300
aI8400
aI8500
aI8600
aI8700
aI8800
aI8900
aI9000
aI9100
aI9200
aI9300
aI9400
aI9500
aI9600
aI9700
aI9800
aI9900
aI10000
aI10100
aI10200
aI10300
aI10400
aI10500
aI10600
aI10700
aI10800
aI10900
aI11000
aI11100
aI11200
aI11300
aI11400
aI11500
aI11600
aI11700
aI11800
aI11900
aI12000
aI12100
aI12200
aI12300
aI12400
aI12500
aI12600
aI12700
aI12800
aI12900
aI13000
aI13100
aI13200
aI13300
aI13400
aI13500
aI13600
aI13700
aI13800
aI13900
aI14000
aI14100
aI14200
aI14300
aI14400
aI14500
aI14600
aI14700
aI14800
aI14900
aI15000
aI15100
aI15200
aI15300
aI15400
aI15500
aI15600
aI15700
aI15800
aI15900
aI16000
aI16100
aI16200
aI16300
aI16400
aI16500
aI16600
aI16700
aI16800
aI16900
aI17000
aI17100
aI17200
aI17300
aI17400
aI17500
aI17600
aI17700
aI17800
aI17900
aI18000
aI18100
aI18200
aI18300
aI18400
aI18500
aI18600
aI18700
aI18800
aI18900
aI19000
aI19100
aI19200
aI19300
aI19400
aI19500
aI19600
aI19700
aI19800
aI19900
aI20000
aI20100
aI20200
aI20300
aI20400
aI20500
aI20600
aI20700
aI20800
aI20900
aI21000
aI21100
aI21200
aI21300
aI21400
aI21500
aI21600
aI21700
aI21800
aI21900
aI22000
aI22100
aI22200
aI22300
aI22400
aI22500
aI22600
aI22700
aI22800
aI22900
aI23000
aI23100
aI23200
aI23300
aI23400
aI23500
aI23600
aI23700
aI23800
aI23900
aI24000
aI24100
aI24200
aI24300
aI24400
aI24500
aI24600
aI24700
aI24800
asg9
(lp12
I0
aI0
aI2
aI13
aI40
aI61
aI78
aI93
aI106
aI114
aI126
aI139
aI145
aI151
aI159
aI164
aI171
aI176
aI177
aI182
aI186
aI190
aI195
aI199
aI202
aI205
aI207
aI212
aI215
aI218
aI219
aI219
aI221
aI222
aI223
aI224
aI228
aI232
aI233
aI234
aI234
aI235
aI238
aI238
aI238
aI238
aI240
aI247
aI248
aI249
aI249
aI251
aI253
aI253
aI253
aI255
aI256
aI257
aI257
aI258
aI258
aI258
aI258
aI258
aI258
aI258
aI259
aI259
aI259
aI259
aI259
aI260
aI260
aI261
aI263
aI263
aI263
aI263
aI263
aI264
aI266
aI266
aI268
aI268
aI268
aI268
aI268
aI268
aI268
aI268
aI268
aI268
aI268
aI268
aI268
aI268
aI268
aI268
aI268
aI268
aI268
aI269
aI269
aI269
aI269
aI269
aI269
aI269
aI269
aI269
aI270
aI270
aI270
aI270
aI270
aI270
aI270
aI270
aI270
aI270
aI270
aI270
aI270
aI270
aI270
aI270
aI270
aI270
aI270
aI270
aI270
aI270
aI270
aI270
aI270
aI270
aI270
aI270
aI270
aI270
aI270
aI270
aI270
aI270
aI270
aI270
aI270
aI270
aI270
aI270
aI270
aI270
aI270
aI270
aI270
aI270
aI270
aI270
aI270
aI270
aI270
aI270
aI270
aI270
aI270
aI270
aI270
aI270
aI270
aI270
aI270
aI270
aI270
aI270
aI270
aI270
aI270
aI270
aI270
aI270
aI270
aI270
aI270
aI270
aI270
aI270
aI270
aI270
aI270
aI270
aI270
aI270
aI270
aI270
aI270
aI270
aI270
aI270
aI270
aI270
aI270
aI270
aI270
aI270
aI270
aI270
aI270
aI270
aI270
aI270
aI270
aI270
aI270
aI270
aI270
aI270
aI270
aI270
aI270
aI270
aI270
aI270
aI270
aI270
aI270
aI270
aI270
aI270
aI270
aI270
aI270
aI270
aI270
aI270
aI270
aI270
aI270
aI270
aI270
aI270
aI270
aI270
aI270
aI270
aI270
aI270
aI270
aI270
aI271
asssS'Improper Control of a Resource Through its Lifetime'
p13
(dp14
g3
(dp15
g5
(lp16
I200
aI300
aI400
aI500
aI600
aI700
aI800
aI900
aI1000
aI1100
aI1200
aI1300
aI1400
aI1500
aI1600
aI1700
aI1800
aI1900
aI2000
aI2100
aI2200
aI2300
aI2400
aI2500
aI2600
aI2700
aI2800
aI2900
aI3000
aI3100
aI3200
aI3300
aI3400
aI3500
aI3600
aI3700
aI3800
aI3900
aI4000
aI4100
aI4200
aI4300
aI4400
aI4500
aI4600
aI4700
aI4800
aI4900
aI5000
aI5100
aI5200
aI5300
aI5400
aI5500
aI5600
aI5700
aI5800
aI5900
aI6000
aI6100
aI6200
aI6300
aI6400
aI6500
aI6600
aI6700
aI6800
aI6900
aI7000
aI7100
aI7200
aI7300
aI7400
aI7500
aI7600
aI7700
aI7800
aI7900
aI8000
aI8100
aI8200
aI8300
aI8400
aI8500
aI8600
aI8700
aI8800
aI8900
aI9000
aI9100
aI9200
aI9300
aI9400
aI9500
aI9600
aI9700
aI9800
aI9900
aI10000
aI10100
aI10200
aI10300
aI10400
aI10500
aI10600
aI10700
aI10800
aI10900
aI11000
aI11100
aI11200
aI11300
aI11400
aI11500
aI11600
aI11700
aI11800
aI11900
aI12000
aI12100
aI12200
aI12300
aI12400
aI12500
aI12600
aI12700
aI12800
aI12900
aI13000
aI13100
aI13200
asg7
(lp17
I173
aI118
aI91
aI83
aI73
aI71
aI78
aI80
aI80
aI79
aI76
aI82
aI80
aI78
aI76
aI79
aI85
aI81
aI86
aI92
aI104
aI106
aI102
aI100
aI102
aI97
aI102
aI104
aI109
aI103
aI103
aI102
aI101
aI99
aI99
aI95
aI96
aI95
aI97
aI94
aI94
aI93
aI92
aI91
aI91
aI90
aI90
aI89
aI89
aI88
aI88
aI87
aI87
aI87
aI86
aI86
aI87
aI86
aI87
aI87
aI86
aI86
aI84
aI85
aI85
aI85
aI85
aI86
aI85
aI85
aI85
aI84
aI85
aI84
aI84
aI84
aI84
aI83
aI84
aI83
aI83
aI83
aI83
aI83
aI83
aI82
aI83
aI82
aI83
aI82
aI82
aI82
aI82
aI82
aI82
aI84
aI83
aI83
aI83
aI83
aI83
aI83
aI83
aI82
aI83
aI82
aI82
aI82
aI82
aI82
aI82
aI82
aI82
aI82
aI82
aI82
aI82
aI82
aI82
aI82
aI82
aI82
aI82
aI82
aI82
aI82
aI82
aI82
aI82
aI82
aI81
assg9
(dp18
g5
(lp19
I0
aI100
aI200
aI300
aI400
aI500
aI600
aI700
aI800
aI900
aI1000
aI1100
aI1200
aI1300
aI1400
aI1500
aI1600
aI1700
aI1800
aI1900
aI2000
aI2100
aI2200
aI2300
aI2400
aI2500
aI2600
aI2700
aI2800
aI2900
aI3000
aI3100
aI3200
aI3300
aI3400
aI3500
aI3600
aI3700
aI3800
aI3900
aI4000
aI4100
aI4200
aI4300
aI4400
aI4500
aI4600
aI4700
aI4800
aI4900
aI5000
aI5100
aI5200
aI5300
aI5400
aI5500
aI5600
aI5700
aI5800
aI5900
aI6000
aI6100
aI6200
aI6300
aI6400
aI6500
aI6600
aI6700
aI6800
aI6900
aI7000
aI7100
aI7200
aI7300
aI7400
aI7500
aI7600
aI7700
aI7800
aI7900
aI8000
aI8100
aI8200
aI8300
aI8400
aI8500
aI8600
aI8700
aI8800
aI8900
aI9000
aI9100
aI9200
aI9300
aI9400
aI9500
aI9600
aI9700
aI9800
aI9900
aI10000
aI10100
aI10200
aI10300
aI10400
aI10500
aI10600
aI10700
aI10800
aI10900
aI11000
aI11100
aI11200
aI11300
aI11400
aI11500
aI11600
aI11700
aI11800
aI11900
aI12000
aI12100
aI12200
aI12300
aI12400
aI12500
aI12600
aI12700
aI12800
aI12900
aI13000
aI13100
aI13200
asg9
(lp20
I0
aI0
aI1
aI5
aI8
aI13
aI19
aI24
aI28
aI31
aI33
aI34
aI35
aI39
aI40
aI40
aI41
aI44
aI47
aI50
aI53
aI57
aI61
aI63
aI64
aI66
aI68
aI69
aI72
aI74
aI75
aI75
aI76
aI76
aI76
aI76
aI76
aI76
aI77
aI77
aI78
aI78
aI78
aI78
aI78
aI78
aI78
aI78
aI78
aI78
aI78
aI78
aI78
aI78
aI78
aI78
aI78
aI78
aI79
aI79
aI79
aI79
aI79
aI79
aI79
aI79
aI79
aI79
aI80
aI80
aI80
aI80
aI80
aI80
aI80
aI80
aI80
aI80
aI80
aI80
aI80
aI80
aI80
aI80
aI80
aI80
aI80
aI80
aI80
aI80
aI80
aI80
aI80
aI80
aI80
aI80
aI80
aI81
aI81
aI81
aI81
aI81
aI81
aI81
aI81
aI81
aI81
aI81
aI81
aI81
aI81
aI81
aI81
aI81
aI81
aI81
aI81
aI81
aI81
aI81
aI81
aI81
aI81
aI81
aI81
aI81
aI81
aI81
aI81
aI81
aI81
aI81
aI81
asssS'Code Quality'
p21
(dp22
g3
(dp23
g5
(lp24
I500
aI600
aI700
aI800
aI900
aI1000
aI1100
aI1200
aI1300
aI1400
aI1500
aI1600
aI1700
aI1800
aI1900
aI2000
aI2100
aI2200
aI2300
aI2400
aI2500
aI2600
aI2700
aI2800
aI2900
aI3000
aI3100
aI3200
aI3300
aI3400
aI3500
aI3600
aI3700
aI3800
aI3900
aI4000
aI4100
aI4200
aI4300
aI4400
aI4500
aI4600
aI4700
aI4800
aI4900
aI5000
aI5100
aI5200
aI5300
aI5400
aI5500
aI5600
aI5700
aI5800
aI5900
aI6000
aI6100
aI6200
aI6300
aI6400
aI6500
aI6600
aI6700
aI6800
aI6900
aI7000
aI7100
aI7200
aI7300
aI7400
aI7500
aI7600
aI7700
aI7800
aI7900
aI8000
aI8100
aI8200
aI8300
aI8400
aI8500
aI8600
aI8700
aI8800
aI8900
aI9000
aI9100
aI9200
aI9300
aI9400
aI9500
aI9600
aI9700
aI9800
aI9900
aI10000
aI10100
aI10200
aI10300
aI10400
aI10500
aI10600
aI10700
aI10800
aI10900
aI11000
aI11100
aI11200
aI11300
aI11400
aI11500
aI11600
aI11700
aI11800
aI11900
aI12000
aI12100
aI12200
aI12300
aI12400
aI12500
aI12600
aI12700
aI12800
aI12900
aI13000
aI13100
aI13200
aI13300
aI13400
aI13500
aI13600
aI13700
aI13800
aI13900
aI14000
aI14100
aI14200
aI14300
aI14400
aI14500
aI14600
aI14700
aI14800
aI14900
aI15000
aI15100
aI15200
aI15300
aI15400
aI15500
aI15600
aI15700
aI15800
aI15900
asg7
(lp25
I185
aI108
aI98
aI92
aI90
aI87
aI86
aI84
aI83
aI82
aI82
aI82
aI81
aI80
aI80
aI80
aI79
aI79
aI79
aI91
aI85
aI84
aI84
aI83
aI83
aI82
aI82
aI81
aI85
aI72
aI74
aI64
aI62
aI61
aI60
aI73
aI80
aI90
aI73
aI41
aI43
aI45
aI44
aI43
aI43
aI42
aI42
aI41
aI39
aI40
aI40
aI40
aI41
aI40
aI41
aI41
aI40
aI42
aI41
aI40
aI39
aI39
aI39
aI38
aI38
aI38
aI38
aI37
aI37
aI36
aI36
aI35
aI36
aI36
aI36
aI35
aI35
aI35
aI35
aI35
aI34
aI35
aI34
aI34
aI34
aI33
aI34
aI33
aI33
aI33
aI33
aI33
aI32
aI32
aI32
aI32
aI32
aI33
aI32
aI32
aI32
aI32
aI32
aI32
aI31
aI32
aI32
aI32
aI32
aI32
aI31
aI31
aI31
aI31
aI31
aI31
aI31
aI31
aI31
aI31
aI31
aI31
aI30
aI31
aI30
aI30
aI31
aI31
aI30
aI30
aI30
aI31
aI30
aI30
aI30
aI30
aI30
aI30
aI30
aI30
aI30
aI30
aI30
aI30
aI30
aI30
aI30
aI30
aI30
aI30
aI30
aI30
aI30
aI30
aI29
assg9
(dp26
g5
(lp27
I0
aI100
aI200
aI300
aI400
aI500
aI600
aI700
aI800
aI900
aI1000
aI1100
aI1200
aI1300
aI1400
aI1500
aI1600
aI1700
aI1800
aI1900
aI2000
aI2100
aI2200
aI2300
aI2400
aI2500
aI2600
aI2700
aI2800
aI2900
aI3000
aI3100
aI3200
aI3300
aI3400
aI3500
aI3600
aI3700
aI3800
aI3900
aI4000
aI4100
aI4200
aI4300
aI4400
aI4500
aI4600
aI4700
aI4800
aI4900
aI5000
aI5100
aI5200
aI5300
aI5400
aI5500
aI5600
aI5700
aI5800
aI5900
aI6000
aI6100
aI6200
aI6300
aI6400
aI6500
aI6600
aI6700
aI6800
aI6900
aI7000
aI7100
aI7200
aI7300
aI7400
aI7500
aI7600
aI7700
aI7800
aI7900
aI8000
aI8100
aI8200
aI8300
aI8400
aI8500
aI8600
aI8700
aI8800
aI8900
aI9000
aI9100
aI9200
aI9300
aI9400
aI9500
aI9600
aI9700
aI9800
aI9900
aI10000
aI10100
aI10200
aI10300
aI10400
aI10500
aI10600
aI10700
aI10800
aI10900
aI11000
aI11100
aI11200
aI11300
aI11400
aI11500
aI11600
aI11700
aI11800
aI11900
aI12000
aI12100
aI12200
aI12300
aI12400
aI12500
aI12600
aI12700
aI12800
aI12900
aI13000
aI13100
aI13200
aI13300
aI13400
aI13500
aI13600
aI13700
aI13800
aI13900
aI14000
aI14100
aI14200
aI14300
aI14400
aI14500
aI14600
aI14700
aI14800
aI14900
aI15000
aI15100
aI15200
aI15300
aI15400
aI15500
aI15600
aI15700
aI15800
aI15900
asg9
(lp28
I0
aI0
aI0
aI0
aI0
aI1
aI1
aI1
aI1
aI1
aI1
aI1
aI1
aI1
aI1
aI1
aI1
aI1
aI1
aI1
aI1
aI1
aI1
aI1
aI2
aI2
aI2
aI2
aI2
aI2
aI2
aI2
aI2
aI3
aI4
aI5
aI6
aI6
aI6
aI6
aI8
aI13
aI18
aI18
aI20
aI22
aI24
aI24
aI24
aI25
aI25
aI25
aI25
aI25
aI25
aI26
aI27
aI27
aI27
aI28
aI28
aI28
aI29
aI29
aI29
aI29
aI29
aI29
aI29
aI29
aI29
aI29
aI29
aI29
aI29
aI29
aI29
aI29
aI29
aI29
aI29
aI29
aI29
aI29
aI29
aI29
aI29
aI29
aI29
aI29
aI29
aI29
aI29
aI29
aI29
aI29
aI29
aI29
aI29
aI29
aI29
aI29
aI29
aI29
aI29
aI29
aI29
aI29
aI29
aI29
aI29
aI29
aI29
aI29
aI29
aI29
aI29
aI29
aI29
aI29
aI29
aI29
aI29
aI29
aI29
aI29
aI29
aI29
aI29
aI29
aI29
aI29
aI29
aI29
aI29
aI29
aI29
aI29
aI29
aI29
aI29
aI29
aI29
aI29
aI29
aI29
aI29
aI29
aI29
aI29
aI29
aI29
aI29
aI29
aI29
aI29
aI29
aI29
aI29
aI29
asssS'Other'
p29
(dp30
g3
(dp31
g5
(lp32
I500
aI600
aI700
aI800
aI900
aI1000
aI1100
aI1200
aI1300
aI1400
aI1500
aI1600
aI1700
aI1800
aI1900
aI2000
aI2100
aI2200
aI2300
aI2400
aI2500
aI2600
aI2700
aI2800
aI2900
aI3000
aI3100
aI3200
aI3300
aI3400
aI3500
aI3600
aI3700
aI3800
aI3900
aI4000
aI4100
aI4200
aI4300
aI4400
aI4500
aI4600
aI4700
aI4800
aI4900
aI5000
aI5100
aI5200
aI5300
aI5400
aI5500
aI5600
aI5700
aI5800
aI5900
aI6000
aI6100
aI6200
aI6300
aI6400
aI6500
aI6600
aI6700
aI6800
aI6900
aI7000
aI7100
aI7200
aI7300
aI7400
aI7500
aI7600
aI7700
aI7800
aI7900
aI8000
aI8100
aI8200
aI8300
aI8400
aI8500
aI8600
aI8700
aI8800
aI8900
aI9000
aI9100
aI9200
aI9300
aI9400
aI9500
aI9600
aI9700
aI9800
aI9900
aI10000
aI10100
aI10200
aI10300
aI10400
aI10500
aI10600
aI10700
aI10800
aI10900
aI11000
aI11100
aI11200
aI11300
aI11400
aI11500
aI11600
aI11700
aI11800
aI11900
aI12000
aI12100
aI12200
aI12300
aI12400
aI12500
aI12600
aI12700
aI12800
aI12900
aI13000
aI13100
aI13200
aI13300
aI13400
aI13500
aI13600
aI13700
aI13800
aI13900
aI14000
aI14100
aI14200
aI14300
aI14400
aI14500
aI14600
aI14700
aI14800
aI14900
aI15000
aI15100
aI15200
aI15300
aI15400
aI15500
aI15600
aI15700
aI15800
aI15900
aI16000
aI16100
aI16200
aI16300
aI16400
aI16500
aI16600
aI16700
aI16800
aI16900
aI17000
aI17100
aI17200
aI17300
aI17400
aI17500
aI17600
aI17700
aI17800
aI17900
aI18000
aI18100
aI18200
aI18300
aI18400
aI18500
aI18600
aI18700
aI18800
aI18900
aI19000
aI19100
aI19200
aI19300
aI19400
aI19500
aI19600
aI19700
aI19800
aI19900
aI20000
aI20100
aI20200
aI20300
aI20400
aI20500
aI20600
aI20700
aI20800
aI20900
aI21000
aI21100
aI21200
aI21300
aI21400
aI21500
aI21600
aI21700
aI21800
aI21900
aI22000
aI22100
aI22200
aI22300
aI22400
aI22500
aI22600
aI22700
aI22800
aI22900
aI23000
aI23100
aI23200
aI23300
aI23400
aI23500
aI23600
aI23700
aI23800
aI23900
aI24000
aI24100
aI24200
aI24300
aI24400
aI24500
aI24600
aI24700
asg7
(lp33
I196
aI124
aI127
aI81
aI68
aI61
aI59
aI69
aI67
aI62
aI63
aI61
aI56
aI55
aI58
aI56
aI59
aI57
aI55
aI51
aI50
aI49
aI50
aI48
aI47
aI46
aI47
aI48
aI47
aI47
aI49
aI48
aI47
aI48
aI47
aI48
aI48
aI48
aI47
aI46
aI46
aI46
aI46
aI45
aI47
aI46
aI46
aI48
aI46
aI48
aI48
aI47
aI47
aI47
aI47
aI46
aI46
aI46
aI46
aI46
aI46
aI46
aI45
aI45
aI45
aI45
aI45
aI45
aI44
aI45
aI44
aI44
aI44
aI44
aI44
aI44
aI44
aI44
aI44
aI44
aI44
aI44
aI43
aI43
aI43
aI43
aI43
aI43
aI43
aI43
aI43
aI43
aI43
aI43
aI43
aI43
aI43
aI42
aI42
aI42
aI42
aI42
aI42
aI42
aI42
aI42
aI42
aI42
aI42
aI42
aI42
aI42
aI42
aI42
aI42
aI42
aI42
aI42
aI42
aI42
aI42
aI42
aI42
aI42
aI42
aI42
aI42
aI42
aI42
aI42
aI42
aI41
aI41
aI41
aI41
aI41
aI41
aI41
aI41
aI41
aI41
aI41
aI41
aI41
aI41
aI41
aI41
aI41
aI41
aI41
aI41
aI41
aI41
aI41
aI41
aI41
aI41
aI41
aI41
aI41
aI41
aI41
aI41
aI41
aI41
aI41
aI41
aI41
aI41
aI41
aI41
aI41
aI41
aI41
aI41
aI41
aI41
aI41
aI41
aI41
aI41
aI41
aI41
aI41
aI41
aI41
aI41
aI41
aI41
aI41
aI41
aI41
aI41
aI41
aI41
aI41
aI41
aI41
aI41
aI41
aI41
aI41
aI41
aI41
aI41
aI41
aI41
aI41
aI41
aI41
aI41
aI41
aI41
aI41
aI41
aI41
aI41
aI41
aI41
aI41
aI41
aI41
aI41
aI41
aI41
aI41
aI41
aI41
aI41
aI41
aI41
aI41
aI41
aI41
aI41
aI41
aI41
aI41
aI41
aI41
aI41
aI41
aI42
assg9
(dp34
g5
(lp35
I0
aI100
aI200
aI300
aI400
aI500
aI600
aI700
aI800
aI900
aI1000
aI1100
aI1200
aI1300
aI1400
aI1500
aI1600
aI1700
aI1800
aI1900
aI2000
aI2100
aI2200
aI2300
aI2400
aI2500
aI2600
aI2700
aI2800
aI2900
aI3000
aI3100
aI3200
aI3300
aI3400
aI3500
aI3600
aI3700
aI3800
aI3900
aI4000
aI4100
aI4200
aI4300
aI4400
aI4500
aI4600
aI4700
aI4800
aI4900
aI5000
aI5100
aI5200
aI5300
aI5400
aI5500
aI5600
aI5700
aI5800
aI5900
aI6000
aI6100
aI6200
aI6300
aI6400
aI6500
aI6600
aI6700
aI6800
aI6900
aI7000
aI7100
aI7200
aI7300
aI7400
aI7500
aI7600
aI7700
aI7800
aI7900
aI8000
aI8100
aI8200
aI8300
aI8400
aI8500
aI8600
aI8700
aI8800
aI8900
aI9000
aI9100
aI9200
aI9300
aI9400
aI9500
aI9600
aI9700
aI9800
aI9900
aI10000
aI10100
aI10200
aI10300
aI10400
aI10500
aI10600
aI10700
aI10800
aI10900
aI11000
aI11100
aI11200
aI11300
aI11400
aI11500
aI11600
aI11700
aI11800
aI11900
aI12000
aI12100
aI12200
aI12300
aI12400
aI12500
aI12600
aI12700
aI12800
aI12900
aI13000
aI13100
aI13200
aI13300
aI13400
aI13500
aI13600
aI13700
aI13800
aI13900
aI14000
aI14100
aI14200
aI14300
aI14400
aI14500
aI14600
aI14700
aI14800
aI14900
aI15000
aI15100
aI15200
aI15300
aI15400
aI15500
aI15600
aI15700
aI15800
aI15900
aI16000
aI16100
aI16200
aI16300
aI16400
aI16500
aI16600
aI16700
aI16800
aI16900
aI17000
aI17100
aI17200
aI17300
aI17400
aI17500
aI17600
aI17700
aI17800
aI17900
aI18000
aI18100
aI18200
aI18300
aI18400
aI18500
aI18600
aI18700
aI18800
aI18900
aI19000
aI19100
aI19200
aI19300
aI19400
aI19500
aI19600
aI19700
aI19800
aI19900
aI20000
aI20100
aI20200
aI20300
aI20400
aI20500
aI20600
aI20700
aI20800
aI20900
aI21000
aI21100
aI21200
aI21300
aI21400
aI21500
aI21600
aI21700
aI21800
aI21900
aI22000
aI22100
aI22200
aI22300
aI22400
aI22500
aI22600
aI22700
aI22800
aI22900
aI23000
aI23100
aI23200
aI23300
aI23400
aI23500
aI23600
aI23700
aI23800
aI23900
aI24000
aI24100
aI24200
aI24300
aI24400
aI24500
aI24600
aI24700
asg9
(lp36
I0
aI0
aI0
aI0
aI0
aI1
aI3
aI15
aI21
aI23
aI23
aI25
aI28
aI28
aI28
aI29
aI29
aI29
aI30
aI32
aI32
aI33
aI33
aI33
aI33
aI33
aI34
aI34
aI34
aI34
aI34
aI35
aI36
aI36
aI36
aI37
aI37
aI37
aI37
aI37
aI38
aI38
aI38
aI38
aI38
aI38
aI38
aI38
aI38
aI39
aI39
aI39
aI40
aI40
aI41
aI41
aI41
aI41
aI41
aI41
aI41
aI41
aI41
aI41
aI41
aI41
aI41
aI41
aI41
aI41
aI41
aI41
aI41
aI41
aI41
aI41
aI41
aI41
aI41
aI41
aI41
aI41
aI41
aI41
aI41
aI41
aI41
aI41
aI41
aI41
aI41
aI41
aI41
aI41
aI41
aI41
aI41
aI41
aI41
aI41
aI41
aI41
aI41
aI41
aI41
aI41
aI41
aI41
aI41
aI41
aI41
aI41
aI41
aI41
aI41
aI41
aI41
aI41
aI41
aI41
aI41
aI41
aI41
aI41
aI41
aI41
aI41
aI41
aI41
aI41
aI41
aI41
aI41
aI41
aI41
aI41
aI41
aI41
aI41
aI41
aI41
aI41
aI41
aI41
aI41
aI41
aI41
aI41
aI41
aI41
aI41
aI41
aI41
aI41
aI41
aI41
aI41
aI41
aI41
aI41
aI41
aI41
aI41
aI41
aI41
aI41
aI41
aI41
aI41
aI41
aI41
aI41
aI41
aI41
aI41
aI41
aI41
aI41
aI41
aI41
aI41
aI41
aI41
aI41
aI41
aI41
aI41
aI41
aI41
aI41
aI41
aI41
aI41
aI41
aI41
aI41
aI41
aI41
aI41
aI41
aI41
aI41
aI41
aI41
aI41
aI41
aI41
aI41
aI41
aI41
aI41
aI41
aI41
aI41
aI41
aI41
aI41
aI41
aI41
aI41
aI41
aI41
aI41
aI41
aI41
aI41
aI41
aI41
aI41
aI41
aI41
aI41
aI41
aI41
aI41
aI41
aI41
aI41
aI41
aI41
aI41
aI41
aI41
aI41
aI41
aI41
aI41
aI42
asssS'Range Error'
p37
(dp38
g3
(dp39
g5
(lp40
I1300
aI1400
aI1500
aI1600
aI1700
aI1800
aI1900
aI2000
aI2100
aI2200
aI2300
aI2400
aI2500
aI2600
aI2700
aI2800
aI2900
aI3000
aI3100
aI3200
aI3300
aI3400
aI3500
aI3600
aI3700
aI3800
aI3900
aI4000
aI4100
aI4200
aI4300
aI4400
aI4500
aI4600
aI4700
aI4800
aI4900
aI5000
aI5100
aI5200
aI5300
aI5400
aI5500
aI5600
aI5700
aI5800
aI5900
aI6000
aI6100
aI6200
aI6300
aI6400
aI6500
aI6600
aI6700
aI6800
aI6900
aI7000
aI7100
aI7200
aI7300
aI7400
aI7500
aI7600
aI7700
aI7800
aI7900
aI8000
aI8100
aI8200
aI8300
aI8400
aI8500
aI8600
aI8700
aI8800
aI8900
aI9000
aI9100
aI9200
aI9300
aI9400
aI9500
aI9600
aI9700
aI9800
aI9900
aI10000
aI10100
aI10200
aI10300
aI10400
aI10500
aI10600
aI10700
aI10800
aI10900
aI11000
aI11100
aI11200
aI11300
aI11400
aI11500
aI11600
aI11700
aI11800
aI11900
aI12000
aI12100
aI12200
aI12300
aI12400
aI12500
aI12600
aI12700
aI12800
aI12900
aI13000
aI13100
aI13200
aI13300
aI13400
aI13500
aI13600
aI13700
aI13800
aI13900
aI14000
aI14100
aI14200
aI14300
aI14400
aI14500
aI14600
aI14700
aI14800
aI14900
aI15000
aI15100
aI15200
aI15300
aI15400
aI15500
aI15600
aI15700
aI15800
aI15900
aI16000
aI16100
aI16200
aI16300
aI16400
aI16500
aI16600
aI16700
aI16800
asg7
(lp41
I207
aI122
aI100
aI96
aI93
aI91
aI89
aI106
aI102
aI89
aI90
aI86
aI84
aI83
aI82
aI81
aI80
aI74
aI42
aI41
aI38
aI43
aI42
aI45
aI44
aI43
aI43
aI42
aI41
aI40
aI39
aI39
aI40
aI40
aI41
aI41
aI43
aI42
aI48
aI47
aI46
aI48
aI47
aI49
aI49
aI48
aI48
aI46
aI47
aI47
aI46
aI45
aI45
aI43
aI44
aI43
aI43
aI43
aI42
aI42
aI41
aI41
aI42
aI41
aI41
aI41
aI40
aI41
aI40
aI40
aI38
aI39
aI39
aI38
aI38
aI38
aI38
aI38
aI38
aI37
aI36
aI37
aI38
aI37
aI37
aI37
aI36
aI37
aI36
aI36
aI36
aI36
aI35
aI35
aI36
aI36
aI35
aI35
aI35
aI35
aI35
aI35
aI34
aI35
aI35
aI34
aI34
aI34
aI34
aI34
aI34
aI34
aI33
aI34
aI34
aI34
aI34
aI33
aI34
aI34
aI34
aI34
aI34
aI34
aI34
aI34
aI34
aI34
aI34
aI34
aI33
aI33
aI33
aI33
aI33
aI33
aI33
aI33
aI33
aI33
aI33
aI33
aI33
aI33
aI33
aI33
aI33
aI33
aI33
aI33
aI33
aI33
aI33
aI33
aI33
aI32
assg9
(dp42
g5
(lp43
I0
aI100
aI200
aI300
aI400
aI500
aI600
aI700
aI800
aI900
aI1000
aI1100
aI1200
aI1300
aI1400
aI1500
aI1600
aI1700
aI1800
aI1900
aI2000
aI2100
aI2200
aI2300
aI2400
aI2500
aI2600
aI2700
aI2800
aI2900
aI3000
aI3100
aI3200
aI3300
aI3400
aI3500
aI3600
aI3700
aI3800
aI3900
aI4000
aI4100
aI4200
aI4300
aI4400
aI4500
aI4600
aI4700
aI4800
aI4900
aI5000
aI5100
aI5200
aI5300
aI5400
aI5500
aI5600
aI5700
aI5800
aI5900
aI6000
aI6100
aI6200
aI6300
aI6400
aI6500
aI6600
aI6700
aI6800
aI6900
aI7000
aI7100
aI7200
aI7300
aI7400
aI7500
aI7600
aI7700
aI7800
aI7900
aI8000
aI8100
aI8200
aI8300
aI8400
aI8500
aI8600
aI8700
aI8800
aI8900
aI9000
aI9100
aI9200
aI9300
aI9400
aI9500
aI9600
aI9700
aI9800
aI9900
aI10000
aI10100
aI10200
aI10300
aI10400
aI10500
aI10600
aI10700
aI10800
aI10900
aI11000
aI11100
aI11200
aI11300
aI11400
aI11500
aI11600
aI11700
aI11800
aI11900
aI12000
aI12100
aI12200
aI12300
aI12400
aI12500
aI12600
aI12700
aI12800
aI12900
aI13000
aI13100
aI13200
aI13300
aI13400
aI13500
aI13600
aI13700
aI13800
aI13900
aI14000
aI14100
aI14200
aI14300
aI14400
aI14500
aI14600
aI14700
aI14800
aI14900
aI15000
aI15100
aI15200
aI15300
aI15400
aI15500
aI15600
aI15700
aI15800
aI15900
aI16000
aI16100
aI16200
aI16300
aI16400
aI16500
aI16600
aI16700
aI16800
asg9
(lp44
I0
aI0
aI0
aI0
aI0
aI0
aI0
aI0
aI0
aI0
aI0
aI0
aI0
aI1
aI5
aI12
aI12
aI12
aI12
aI12
aI13
aI15
aI15
aI16
aI16
aI16
aI16
aI17
aI18
aI19
aI19
aI20
aI20
aI20
aI21
aI21
aI22
aI22
aI22
aI23
aI23
aI23
aI23
aI23
aI23
aI24
aI25
aI26
aI27
aI28
aI28
aI29
aI29
aI29
aI30
aI30
aI31
aI31
aI31
aI31
aI31
aI31
aI31
aI31
aI31
aI31
aI31
aI31
aI31
aI31
aI31
aI31
aI31
aI31
aI31
aI31
aI31
aI31
aI31
aI31
aI31
aI31
aI31
aI31
aI31
aI31
aI31
aI31
aI31
aI31
aI31
aI31
aI31
aI31
aI31
aI31
aI31
aI31
aI31
aI31
aI31
aI31
aI31
aI31
aI31
aI31
aI31
aI31
aI31
aI31
aI31
aI31
aI31
aI31
aI31
aI31
aI31
aI31
aI31
aI31
aI31
aI31
aI31
aI31
aI31
aI31
aI31
aI31
aI31
aI31
aI31
aI32
aI32
aI32
aI32
aI32
aI32
aI32
aI32
aI32
aI32
aI32
aI32
aI32
aI32
aI32
aI32
aI32
aI32
aI32
aI32
aI32
aI32
aI32
aI32
aI32
aI32
aI32
aI32
aI32
aI32
aI32
aI32
aI32
aI32
aI32
aI32
aI32
aI32
asssS'Arbitrary Code'
p45
(dp46
g3
(dp47
g5
(lp48
I200
aI300
aI400
aI500
aI600
aI700
aI800
aI900
aI1000
aI1100
aI1200
aI1300
aI1400
aI1500
aI1600
aI1700
aI1800
aI1900
aI2000
aI2100
aI2200
aI2300
aI2400
aI2500
aI2600
aI2700
aI2800
aI2900
aI3000
aI3100
aI3200
aI3300
aI3400
aI3500
aI3600
aI3700
aI3800
aI3900
aI4000
aI4100
aI4200
aI4300
aI4400
aI4500
aI4600
aI4700
aI4800
aI4900
aI5000
aI5100
aI5200
aI5300
aI5400
aI5500
aI5600
aI5700
aI5800
aI5900
aI6000
aI6100
aI6200
aI6300
aI6400
aI6500
aI6600
aI6700
aI6800
aI6900
aI7000
aI7100
aI7200
aI7300
aI7400
aI7500
aI7600
aI7700
aI7800
aI7900
aI8000
aI8100
aI8200
aI8300
aI8400
aI8500
aI8600
aI8700
aI8800
aI8900
aI9000
aI9100
aI9200
aI9300
aI9400
aI9500
aI9600
aI9700
aI9800
aI9900
aI10000
aI10100
aI10200
aI10300
aI10400
aI10500
aI10600
aI10700
aI10800
aI10900
aI11000
aI11100
aI11200
aI11300
aI11400
aI11500
aI11600
aI11700
aI11800
aI11900
aI12000
asg7
(lp49
I188
aI129
aI108
aI105
aI111
aI110
aI118
aI112
aI129
aI121
aI109
aI115
aI108
aI109
aI112
aI110
aI110
aI111
aI111
aI108
aI110
aI118
aI113
aI111
aI109
aI108
aI107
aI105
aI110
aI113
aI118
aI117
aI120
aI119
aI117
aI118
aI122
aI118
aI119
aI120
aI121
aI119
aI118
aI119
aI118
aI116
aI117
aI115
aI114
aI114
aI116
aI115
aI116
aI115
aI115
aI115
aI114
aI114
aI113
aI114
aI114
aI113
aI114
aI116
aI115
aI115
aI116
aI116
aI115
aI114
aI116
aI115
aI115
aI115
aI115
aI114
aI114
aI114
aI115
aI114
aI114
aI114
aI114
aI114
aI115
aI118
aI116
aI116
aI116
aI116
aI115
aI115
aI115
aI117
aI117
aI118
aI117
aI117
aI118
aI118
aI118
aI118
aI118
aI118
aI118
aI118
aI118
aI118
aI118
aI119
aI119
aI119
aI119
aI119
aI119
aI119
aI119
aI119
aI118
assg9
(dp50
g5
(lp51
I0
aI100
aI200
aI300
aI400
aI500
aI600
aI700
aI800
aI900
aI1000
aI1100
aI1200
aI1300
aI1400
aI1500
aI1600
aI1700
aI1800
aI1900
aI2000
aI2100
aI2200
aI2300
aI2400
aI2500
aI2600
aI2700
aI2800
aI2900
aI3000
aI3100
aI3200
aI3300
aI3400
aI3500
aI3600
aI3700
aI3800
aI3900
aI4000
aI4100
aI4200
aI4300
aI4400
aI4500
aI4600
aI4700
aI4800
aI4900
aI5000
aI5100
aI5200
aI5300
aI5400
aI5500
aI5600
aI5700
aI5800
aI5900
aI6000
aI6100
aI6200
aI6300
aI6400
aI6500
aI6600
aI6700
aI6800
aI6900
aI7000
aI7100
aI7200
aI7300
aI7400
aI7500
aI7600
aI7700
aI7800
aI7900
aI8000
aI8100
aI8200
aI8300
aI8400
aI8500
aI8600
aI8700
aI8800
aI8900
aI9000
aI9100
aI9200
aI9300
aI9400
aI9500
aI9600
aI9700
aI9800
aI9900
aI10000
aI10100
aI10200
aI10300
aI10400
aI10500
aI10600
aI10700
aI10800
aI10900
aI11000
aI11100
aI11200
aI11300
aI11400
aI11500
aI11600
aI11700
aI11800
aI11900
aI12000
asg9
(lp52
I0
aI0
aI1
aI2
aI9
aI20
aI31
aI37
aI46
aI53
aI60
aI63
aI64
aI66
aI67
aI70
aI74
aI77
aI78
aI79
aI79
aI79
aI80
aI83
aI83
aI83
aI83
aI84
aI85
aI85
aI88
aI90
aI91
aI92
aI93
aI93
aI94
aI95
aI97
aI97
aI98
aI100
aI102
aI103
aI103
aI104
aI104
aI105
aI105
aI105
aI105
aI105
aI106
aI107
aI107
aI107
aI107
aI107
aI107
aI107
aI107
aI108
aI108
aI108
aI109
aI110
aI111
aI111
aI111
aI111
aI111
aI111
aI112
aI112
aI112
aI112
aI112
aI112
aI112
aI112
aI112
aI112
aI112
aI112
aI112
aI112
aI113
aI114
aI114
aI114
aI114
aI114
aI114
aI114
aI114
aI115
aI116
aI116
aI116
aI116
aI117
aI117
aI117
aI117
aI117
aI117
aI117
aI117
aI117
aI117
aI117
aI118
aI118
aI118
aI118
aI118
aI118
aI118
aI118
aI118
aI118
asss.