(dp0
S'all'
p1
(dp2
S'est'
p3
(dp4
S'x'
p5
(lp6
I100
aI200
aI300
aI400
aI500
aI600
aI700
aI800
aI900
aI1000
aI1100
aI1200
aI1300
aI1400
aI1500
aI1600
aI1700
aI1800
aI1900
aI2000
aI2100
aI2200
aI2300
aI2400
aI2500
aI2600
aI2700
aI2800
aI2900
aI3000
aI3100
aI3200
aI3300
aI3400
aI3500
aI3600
aI3700
aI3800
aI3900
aI4000
aI4100
aI4200
aI4300
aI4400
aI4500
aI4600
aI4700
aI4800
aI4900
aI5000
aI5100
aI5200
aI5300
aI5400
aI5500
aI5600
aI5700
aI5800
aI5900
aI6000
aI6100
aI6200
aI6300
aI6400
aI6500
aI6600
aI6700
aI6800
aI6900
aI7000
aI7100
aI7200
aI7300
aI7400
aI7500
aI7600
aI7700
aI7800
aI7900
aI8000
aI8100
aI8200
aI8300
aI8400
aI8500
aI8600
aI8700
aI8800
aI8900
aI9000
aI9100
aI9200
aI9300
aI9400
aI9500
aI9600
aI9700
aI9800
aI9900
aI10000
aI10100
aI10200
aI10300
aI10400
aI10500
aI10600
aI10700
aI10800
aI10900
aI11000
aI11100
aI11200
aI11300
aI11400
aI11500
aI11600
aI11700
aI11800
aI11900
aI12000
aI12100
aI12200
aI12300
aI12400
aI12500
aI12600
aI12700
aI12800
aI12900
aI13000
aI13100
aI13200
aI13300
aI13400
aI13500
aI13600
aI13700
aI13800
aI13900
aI14000
aI14100
aI14200
aI14300
aI14400
aI14500
aI14600
aI14700
aI14800
aI14900
aI15000
aI15100
aI15200
aI15300
aI15400
aI15500
aI15600
aI15700
aI15800
aI15900
aI16000
aI16100
aI16200
aI16300
aI16400
aI16500
aI16600
aI16700
aI16800
aI16900
aI17000
aI17100
aI17200
aI17300
aI17400
aI17500
aI17600
aI17700
aI17800
aI17900
aI18000
aI18100
aI18200
aI18300
aI18400
aI18500
aI18600
aI18700
aI18800
aI18900
aI19000
aI19100
aI19200
aI19300
aI19400
aI19500
aI19600
aI19700
aI19800
aI19900
aI20000
aI20100
aI20200
aI20300
aI20400
aI20500
aI20600
aI20700
aI20800
aI20900
aI21000
aI21100
aI21200
aI21300
aI21400
aI21500
aI21600
aI21700
aI21800
aI21900
asS'semi'
p7
(lp8
I225
aI177
aI193
aI206
aI206
aI211
aI207
aI208
aI225
aI220
aI232
aI225
aI228
aI235
aI246
aI237
aI253
aI248
aI256
aI242
aI249
aI248
aI244
aI263
aI282
aI265
aI257
aI262
aI236
aI233
aI240
aI259
aI263
aI256
aI252
aI254
aI280
aI262
aI277
aI279
aI282
aI299
aI292
aI297
aI294
aI309
aI301
aI297
aI303
aI315
aI296
aI302
aI308
aI303
aI309
aI303
aI295
aI303
aI299
aI294
aI293
aI296
aI287
aI294
aI290
aI293
aI299
aI297
aI309
aI306
aI297
aI298
aI294
aI306
aI295
aI298
aI295
aI295
aI290
aI301
aI296
aI297
aI298
aI296
aI292
aI287
aI291
aI292
aI293
aI291
aI296
aI295
aI291
aI290
aI296
aI291
aI292
aI289
aI289
aI289
aI286
aI287
aI288
aI287
aI287
aI284
aI285
aI286
aI283
aI284
aI283
aI283
aI283
aI284
aI286
aI280
aI279
aI282
aI279
aI279
aI282
aI284
aI284
aI282
aI283
aI282
aI282
aI282
aI280
aI280
aI281
aI281
aI279
aI280
aI280
aI279
aI279
aI279
aI279
aI278
aI278
aI278
aI277
aI277
aI277
aI277
aI276
aI276
aI276
aI276
aI276
aI276
aI275
aI275
aI275
aI275
aI275
aI275
aI275
aI275
aI274
aI274
aI274
aI274
aI274
aI274
aI274
aI274
aI274
aI273
aI275
aI275
aI275
aI274
aI274
aI274
aI274
aI274
aI274
aI274
aI274
aI274
aI274
aI273
aI273
aI273
aI273
aI273
aI273
aI273
aI273
aI273
aI273
aI273
aI273
aI273
aI273
aI272
aI272
aI272
aI272
aI272
aI272
aI272
aI272
aI272
aI272
aI272
aI272
aI272
aI272
aI272
aI272
aI272
aI272
aI272
aI272
aI272
aI271
assS'pos'
p9
(dp10
g5
(lp11
I0
aI100
aI200
aI300
aI400
aI500
aI600
aI700
aI800
aI900
aI1000
aI1100
aI1200
aI1300
aI1400
aI1500
aI1600
aI1700
aI1800
aI1900
aI2000
aI2100
aI2200
aI2300
aI2400
aI2500
aI2600
aI2700
aI2800
aI2900
aI3000
aI3100
aI3200
aI3300
aI3400
aI3500
aI3600
aI3700
aI3800
aI3900
aI4000
aI4100
aI4200
aI4300
aI4400
aI4500
aI4600
aI4700
aI4800
aI4900
aI5000
aI5100
aI5200
aI5300
aI5400
aI5500
aI5600
aI5700
aI5800
aI5900
aI6000
aI6100
aI6200
aI6300
aI6400
aI6500
aI6600
aI6700
aI6800
aI6900
aI7000
aI7100
aI7200
aI7300
aI7400
aI7500
aI7600
aI7700
aI7800
aI7900
aI8000
aI8100
aI8200
aI8300
aI8400
aI8500
aI8600
aI8700
aI8800
aI8900
aI9000
aI9100
aI9200
aI9300
aI9400
aI9500
aI9600
aI9700
aI9800
aI9900
aI10000
aI10100
aI10200
aI10300
aI10400
aI10500
aI10600
aI10700
aI10800
aI10900
aI11000
aI11100
aI11200
aI11300
aI11400
aI11500
aI11600
aI11700
aI11800
aI11900
aI12000
aI12100
aI12200
aI12300
aI12400
aI12500
aI12600
aI12700
aI12800
aI12900
aI13000
aI13100
aI13200
aI13300
aI13400
aI13500
aI13600
aI13700
aI13800
aI13900
aI14000
aI14100
aI14200
aI14300
aI14400
aI14500
aI14600
aI14700
aI14800
aI14900
aI15000
aI15100
aI15200
aI15300
aI15400
aI15500
aI15600
aI15700
aI15800
aI15900
aI16000
aI16100
aI16200
aI16300
aI16400
aI16500
aI16600
aI16700
aI16800
aI16900
aI17000
aI17100
aI17200
aI17300
aI17400
aI17500
aI17600
aI17700
aI17800
aI17900
aI18000
aI18100
aI18200
aI18300
aI18400
aI18500
aI18600
aI18700
aI18800
aI18900
aI19000
aI19100
aI19200
aI19300
aI19400
aI19500
aI19600
aI19700
aI19800
aI19900
aI20000
aI20100
aI20200
aI20300
aI20400
aI20500
aI20600
aI20700
aI20800
aI20900
aI21000
aI21100
aI21200
aI21300
aI21400
aI21500
aI21600
aI21700
aI21800
aI21900
asg9
(lp12
I0
aI27
aI29
aI43
aI55
aI63
aI71
aI76
aI85
aI95
aI100
aI108
aI112
aI120
aI127
aI136
aI141
aI150
aI157
aI161
aI164
aI171
aI177
aI182
aI190
aI197
aI200
aI204
aI205
aI206
aI210
aI213
aI219
aI221
aI221
aI222
aI223
aI226
aI226
aI227
aI230
aI232
aI235
aI237
aI240
aI242
aI242
aI243
aI244
aI246
aI246
aI246
aI246
aI247
aI247
aI249
aI250
aI252
aI254
aI254
aI255
aI255
aI255
aI255
aI256
aI258
aI258
aI259
aI260
aI261
aI261
aI262
aI264
aI264
aI264
aI264
aI264
aI264
aI264
aI264
aI266
aI266
aI266
aI266
aI266
aI266
aI266
aI266
aI267
aI267
aI267
aI268
aI268
aI268
aI268
aI268
aI268
aI268
aI268
aI268
aI268
aI268
aI268
aI268
aI268
aI268
aI268
aI268
aI268
aI268
aI268
aI268
aI268
aI268
aI268
aI268
aI268
aI268
aI268
aI268
aI268
aI269
aI270
aI270
aI270
aI270
aI270
aI270
aI270
aI270
aI270
aI270
aI270
aI270
aI270
aI270
aI270
aI270
aI270
aI270
aI270
aI270
aI270
aI270
aI270
aI270
aI270
aI270
aI270
aI270
aI270
aI270
aI270
aI270
aI270
aI270
aI270
aI270
aI270
aI270
aI270
aI270
aI270
aI270
aI270
aI270
aI270
aI270
aI270
aI270
aI270
aI271
aI271
aI271
aI271
aI271
aI271
aI271
aI271
aI271
aI271
aI271
aI271
aI271
aI271
aI271
aI271
aI271
aI271
aI271
aI271
aI271
aI271
aI271
aI271
aI271
aI271
aI271
aI271
aI271
aI271
aI271
aI271
aI271
aI271
aI271
aI271
aI271
aI271
aI271
aI271
aI271
aI271
aI271
aI271
aI271
aI271
aI271
aI271
aI271
asssS'Other'
p13
(dp14
S'est'
p15
(dp16
S'x'
p17
(lp18
I100
aI200
aI300
aI400
aI500
aI600
aI700
aI800
aI900
aI1000
aI1100
aI1200
aI1300
aI1400
aI1500
aI1600
aI1700
aI1800
aI1900
aI2000
aI2100
aI2200
aI2300
aI2400
aI2500
aI2600
aI2700
aI2800
aI2900
aI3000
aI3100
aI3200
aI3300
aI3400
aI3500
aI3600
aI3700
aI3800
aI3900
aI4000
aI4100
aI4200
aI4300
aI4400
aI4500
aI4600
aI4700
aI4800
aI4900
aI5000
aI5100
aI5200
aI5300
aI5400
aI5500
aI5600
aI5700
aI5800
aI5900
aI6000
aI6100
aI6200
aI6300
aI6400
aI6500
aI6600
aI6700
aI6800
aI6900
aI7000
aI7100
aI7200
aI7300
aI7400
aI7500
aI7600
aI7700
aI7800
aI7900
aI8000
aI8100
aI8200
aI8300
aI8400
aI8500
aI8600
aI8700
aI8800
aI8900
aI9000
aI9100
aI9200
aI9300
aI9400
aI9500
aI9600
aI9700
aI9800
aI9900
aI10000
aI10100
aI10200
aI10300
aI10400
aI10500
aI10600
aI10700
aI10800
aI10900
aI11000
aI11100
aI11200
aI11300
aI11400
aI11500
aI11600
aI11700
aI11800
aI11900
aI12000
aI12100
aI12200
aI12300
aI12400
aI12500
aI12600
aI12700
aI12800
aI12900
aI13000
aI13100
aI13200
aI13300
aI13400
aI13500
aI13600
aI13700
aI13800
aI13900
aI14000
aI14100
aI14200
aI14300
aI14400
aI14500
aI14600
aI14700
aI14800
aI14900
aI15000
aI15100
aI15200
aI15300
aI15400
aI15500
aI15600
aI15700
aI15800
aI15900
aI16000
aI16100
aI16200
aI16300
aI16400
aI16500
aI16600
aI16700
aI16800
aI16900
aI17000
aI17100
aI17200
aI17300
aI17400
aI17500
aI17600
aI17700
aI17800
aI17900
aI18000
aI18100
aI18200
aI18300
aI18400
aI18500
aI18600
aI18700
aI18800
aI18900
asS'semi'
p19
(lp20
I258
aI219
aI177
aI160
aI145
aI131
aI128
aI118
aI104
aI102
aI95
aI88
aI77
aI100
aI35
aI41
aI39
aI43
aI45
aI50
aI54
aI53
aI53
aI54
aI54
aI58
aI58
aI64
aI64
aI62
aI61
aI59
aI57
aI57
aI61
aI58
aI55
aI55
aI54
aI54
aI54
aI51
aI51
aI49
aI48
aI48
aI52
aI47
aI47
aI47
aI48
aI50
aI45
aI44
aI44
aI43
aI43
aI43
aI43
aI41
aI43
aI42
aI41
aI43
aI41
aI41
aI40
aI40
aI40
aI41
aI39
aI40
aI39
aI39
aI39
aI39
aI37
aI38
aI39
aI38
aI39
aI38
aI37
aI38
aI37
aI37
aI37
aI37
aI37
aI36
aI36
aI36
aI36
aI36
aI35
aI36
aI35
aI35
aI36
aI36
aI35
aI35
aI34
aI35
aI35
aI35
aI35
aI34
aI34
aI34
aI34
aI34
aI34
aI34
aI34
aI34
aI34
aI34
aI35
aI34
aI34
aI34
aI34
aI34
aI34
aI34
aI34
aI33
aI33
aI33
aI33
aI33
aI33
aI33
aI33
aI33
aI33
aI33
aI34
aI34
aI34
aI34
aI34
aI34
aI34
aI34
aI34
aI34
aI34
aI34
aI34
aI34
aI34
aI34
aI34
aI34
aI33
aI33
aI33
aI33
aI33
aI33
aI33
aI33
aI33
aI33
aI33
aI33
aI33
aI33
aI33
aI33
aI33
aI33
aI33
aI33
aI33
aI33
aI33
aI33
aI33
aI33
aI33
aI33
aI33
aI33
aI33
aI33
aI32
assS'pos'
p21
(dp22
g17
(lp23
I0
aI100
aI200
aI300
aI400
aI500
aI600
aI700
aI800
aI900
aI1000
aI1100
aI1200
aI1300
aI1400
aI1500
aI1600
aI1700
aI1800
aI1900
aI2000
aI2100
aI2200
aI2300
aI2400
aI2500
aI2600
aI2700
aI2800
aI2900
aI3000
aI3100
aI3200
aI3300
aI3400
aI3500
aI3600
aI3700
aI3800
aI3900
aI4000
aI4100
aI4200
aI4300
aI4400
aI4500
aI4600
aI4700
aI4800
aI4900
aI5000
aI5100
aI5200
aI5300
aI5400
aI5500
aI5600
aI5700
aI5800
aI5900
aI6000
aI6100
aI6200
aI6300
aI6400
aI6500
aI6600
aI6700
aI6800
aI6900
aI7000
aI7100
aI7200
aI7300
aI7400
aI7500
aI7600
aI7700
aI7800
aI7900
aI8000
aI8100
aI8200
aI8300
aI8400
aI8500
aI8600
aI8700
aI8800
aI8900
aI9000
aI9100
aI9200
aI9300
aI9400
aI9500
aI9600
aI9700
aI9800
aI9900
aI10000
aI10100
aI10200
aI10300
aI10400
aI10500
aI10600
aI10700
aI10800
aI10900
aI11000
aI11100
aI11200
aI11300
aI11400
aI11500
aI11600
aI11700
aI11800
aI11900
aI12000
aI12100
aI12200
aI12300
aI12400
aI12500
aI12600
aI12700
aI12800
aI12900
aI13000
aI13100
aI13200
aI13300
aI13400
aI13500
aI13600
aI13700
aI13800
aI13900
aI14000
aI14100
aI14200
aI14300
aI14400
aI14500
aI14600
aI14700
aI14800
aI14900
aI15000
aI15100
aI15200
aI15300
aI15400
aI15500
aI15600
aI15700
aI15800
aI15900
aI16000
aI16100
aI16200
aI16300
aI16400
aI16500
aI16600
aI16700
aI16800
aI16900
aI17000
aI17100
aI17200
aI17300
aI17400
aI17500
aI17600
aI17700
aI17800
aI17900
aI18000
aI18100
aI18200
aI18300
aI18400
aI18500
aI18600
aI18700
aI18800
aI18900
asg21
(lp24
I0
aI1
aI1
aI2
aI3
aI3
aI3
aI4
aI5
aI5
aI6
aI6
aI6
aI6
aI9
aI11
aI13
aI13
aI15
aI16
aI19
aI21
aI21
aI21
aI22
aI22
aI24
aI24
aI26
aI26
aI26
aI27
aI28
aI28
aI29
aI30
aI30
aI30
aI30
aI30
aI30
aI30
aI30
aI30
aI30
aI30
aI30
aI30
aI30
aI30
aI30
aI30
aI30
aI30
aI30
aI30
aI30
aI30
aI30
aI30
aI30
aI30
aI30
aI30
aI30
aI30
aI30
aI30
aI30
aI30
aI30
aI30
aI30
aI30
aI30
aI30
aI30
aI30
aI30
aI30
aI30
aI30
aI30
aI30
aI30
aI30
aI30
aI30
aI30
aI30
aI30
aI30
aI30
aI30
aI30
aI30
aI30
aI30
aI30
aI30
aI30
aI30
aI30
aI30
aI30
aI30
aI30
aI30
aI30
aI30
aI30
aI30
aI30
aI30
aI30
aI30
aI30
aI30
aI31
aI31
aI31
aI31
aI31
aI31
aI31
aI31
aI31
aI31
aI31
aI31
aI31
aI31
aI31
aI31
aI31
aI31
aI31
aI31
aI31
aI32
aI32
aI32
aI32
aI32
aI32
aI32
aI32
aI32
aI32
aI32
aI32
aI32
aI32
aI32
aI32
aI32
aI32
aI32
aI32
aI32
aI32
aI32
aI32
aI32
aI32
aI32
aI32
aI32
aI32
aI32
aI32
aI32
aI32
aI32
aI32
aI32
aI32
aI32
aI32
aI32
aI32
aI32
aI32
aI32
aI32
aI32
aI32
aI32
aI32
aI32
asssS'Improper Control of a Resource Through its Lifetime'
p25
(dp26
S'est'
p27
(dp28
S'x'
p29
(lp30
I100
aI200
aI300
aI400
aI500
aI600
aI700
aI800
aI900
aI1000
aI1100
aI1200
aI1300
aI1400
aI1500
aI1600
aI1700
aI1800
aI1900
aI2000
aI2100
aI2200
aI2300
aI2400
aI2500
aI2600
aI2700
aI2800
aI2900
aI3000
aI3100
aI3200
aI3300
aI3400
aI3500
aI3600
aI3700
aI3800
aI3900
aI4000
aI4100
aI4200
aI4300
aI4400
aI4500
aI4600
aI4700
aI4800
aI4900
aI5000
aI5100
aI5200
aI5300
aI5400
aI5500
aI5600
aI5700
aI5800
aI5900
aI6000
aI6100
aI6200
aI6300
aI6400
aI6500
aI6600
aI6700
aI6800
aI6900
aI7000
aI7100
aI7200
aI7300
aI7400
aI7500
aI7600
aI7700
aI7800
aI7900
aI8000
aI8100
aI8200
aI8300
aI8400
aI8500
aI8600
aI8700
aI8800
aI8900
aI9000
aI9100
aI9200
aI9300
aI9400
aI9500
aI9600
aI9700
aI9800
aI9900
aI10000
aI10100
aI10200
aI10300
aI10400
aI10500
aI10600
aI10700
aI10800
aI10900
aI11000
aI11100
aI11200
aI11300
aI11400
aI11500
aI11600
aI11700
aI11800
aI11900
aI12000
aI12100
aI12200
aI12300
aI12400
aI12500
aI12600
aI12700
aI12800
aI12900
aI13000
aI13100
aI13200
aI13300
aI13400
aI13500
aI13600
aI13700
aI13800
aI13900
aI14000
aI14100
aI14200
aI14300
aI14400
aI14500
aI14600
aI14700
aI14800
aI14900
aI15000
aI15100
aI15200
aI15300
aI15400
aI15500
aI15600
aI15700
aI15800
aI15900
aI16000
aI16100
aI16200
aI16300
aI16400
aI16500
aI16600
aI16700
aI16800
aI16900
aI17000
aI17100
aI17200
aI17300
aI17400
aI17500
aI17600
aI17700
aI17800
aI17900
aI18000
aI18100
aI18200
asS'semi'
p31
(lp32
I223
aI110
aI94
aI102
aI107
aI117
aI116
aI119
aI116
aI113
aI120
aI116
aI115
aI111
aI108
aI109
aI112
aI116
aI119
aI116
aI113
aI119
aI112
aI118
aI111
aI106
aI118
aI120
aI112
aI105
aI104
aI107
aI106
aI107
aI104
aI104
aI103
aI101
aI101
aI101
aI100
aI99
aI95
aI103
aI99
aI101
aI97
aI95
aI100
aI102
aI100
aI100
aI101
aI100
aI98
aI99
aI98
aI99
aI97
aI97
aI96
aI95
aI95
aI95
aI94
aI95
aI94
aI93
aI92
aI93
aI92
aI93
aI92
aI92
aI92
aI91
aI91
aI91
aI91
aI91
aI91
aI91
aI90
aI90
aI90
aI90
aI89
aI89
aI89
aI89
aI89
aI89
aI89
aI88
aI90
aI90
aI90
aI90
aI89
aI89
aI89
aI89
aI89
aI89
aI89
aI89
aI88
aI89
aI88
aI88
aI89
aI88
aI88
aI88
aI88
aI89
aI88
aI88
aI88
aI87
aI88
aI87
aI88
aI87
aI87
aI88
aI87
aI87
aI88
aI88
aI87
aI87
aI88
aI88
aI87
aI87
aI87
aI87
aI87
aI87
aI87
aI87
aI87
aI87
aI87
aI87
aI87
aI87
aI87
aI87
aI87
aI86
aI86
aI86
aI86
aI86
aI86
aI86
aI86
aI86
aI86
aI86
aI86
aI86
aI86
aI86
aI86
aI86
aI86
aI86
aI86
aI86
aI86
aI86
aI86
aI86
aI86
aI86
aI86
aI86
aI86
aI85
assS'pos'
p33
(dp34
g29
(lp35
I0
aI100
aI200
aI300
aI400
aI500
aI600
aI700
aI800
aI900
aI1000
aI1100
aI1200
aI1300
aI1400
aI1500
aI1600
aI1700
aI1800
aI1900
aI2000
aI2100
aI2200
aI2300
aI2400
aI2500
aI2600
aI2700
aI2800
aI2900
aI3000
aI3100
aI3200
aI3300
aI3400
aI3500
aI3600
aI3700
aI3800
aI3900
aI4000
aI4100
aI4200
aI4300
aI4400
aI4500
aI4600
aI4700
aI4800
aI4900
aI5000
aI5100
aI5200
aI5300
aI5400
aI5500
aI5600
aI5700
aI5800
aI5900
aI6000
aI6100
aI6200
aI6300
aI6400
aI6500
aI6600
aI6700
aI6800
aI6900
aI7000
aI7100
aI7200
aI7300
aI7400
aI7500
aI7600
aI7700
aI7800
aI7900
aI8000
aI8100
aI8200
aI8300
aI8400
aI8500
aI8600
aI8700
aI8800
aI8900
aI9000
aI9100
aI9200
aI9300
aI9400
aI9500
aI9600
aI9700
aI9800
aI9900
aI10000
aI10100
aI10200
aI10300
aI10400
aI10500
aI10600
aI10700
aI10800
aI10900
aI11000
aI11100
aI11200
aI11300
aI11400
aI11500
aI11600
aI11700
aI11800
aI11900
aI12000
aI12100
aI12200
aI12300
aI12400
aI12500
aI12600
aI12700
aI12800
aI12900
aI13000
aI13100
aI13200
aI13300
aI13400
aI13500
aI13600
aI13700
aI13800
aI13900
aI14000
aI14100
aI14200
aI14300
aI14400
aI14500
aI14600
aI14700
aI14800
aI14900
aI15000
aI15100
aI15200
aI15300
aI15400
aI15500
aI15600
aI15700
aI15800
aI15900
aI16000
aI16100
aI16200
aI16300
aI16400
aI16500
aI16600
aI16700
aI16800
aI16900
aI17000
aI17100
aI17200
aI17300
aI17400
aI17500
aI17600
aI17700
aI17800
aI17900
aI18000
aI18100
aI18200
asg33
(lp36
I0
aI8
aI10
aI12
aI18
aI23
aI29
aI33
aI37
aI39
aI41
aI44
aI46
aI47
aI47
aI48
aI51
aI54
aI57
aI58
aI60
aI62
aI64
aI65
aI68
aI68
aI68
aI70
aI71
aI71
aI71
aI71
aI75
aI76
aI76
aI76
aI77
aI77
aI77
aI78
aI78
aI78
aI78
aI78
aI80
aI80
aI80
aI80
aI80
aI82
aI84
aI84
aI84
aI84
aI84
aI84
aI84
aI84
aI84
aI84
aI84
aI84
aI84
aI84
aI84
aI84
aI84
aI84
aI84
aI84
aI84
aI84
aI84
aI84
aI84
aI84
aI84
aI84
aI84
aI84
aI84
aI84
aI84
aI84
aI84
aI84
aI84
aI84
aI84
aI84
aI84
aI84
aI84
aI84
aI84
aI85
aI85
aI85
aI85
aI85
aI85
aI85
aI85
aI85
aI85
aI85
aI85
aI85
aI85
aI85
aI85
aI85
aI85
aI85
aI85
aI85
aI85
aI85
aI85
aI85
aI85
aI85
aI85
aI85
aI85
aI85
aI85
aI85
aI85
aI85
aI85
aI85
aI85
aI85
aI85
aI85
aI85
aI85
aI85
aI85
aI85
aI85
aI85
aI85
aI85
aI85
aI85
aI85
aI85
aI85
aI85
aI85
aI85
aI85
aI85
aI85
aI85
aI85
aI85
aI85
aI85
aI85
aI85
aI85
aI85
aI85
aI85
aI85
aI85
aI85
aI85
aI85
aI85
aI85
aI85
aI85
aI85
aI85
aI85
aI85
aI85
aI85
aI85
asssS'Range Error'
p37
(dp38
S'est'
p39
(dp40
S'x'
p41
(lp42
I100
aI200
aI300
aI400
aI500
aI600
aI700
aI800
aI900
aI1000
aI1100
aI1200
aI1300
aI1400
aI1500
aI1600
aI1700
aI1800
aI1900
aI2000
aI2100
aI2200
aI2300
aI2400
aI2500
aI2600
aI2700
aI2800
aI2900
aI3000
aI3100
aI3200
aI3300
aI3400
aI3500
aI3600
aI3700
aI3800
aI3900
aI4000
aI4100
aI4200
aI4300
aI4400
aI4500
aI4600
aI4700
aI4800
aI4900
aI5000
aI5100
aI5200
aI5300
aI5400
aI5500
aI5600
aI5700
aI5800
aI5900
aI6000
aI6100
aI6200
aI6300
aI6400
aI6500
aI6600
aI6700
aI6800
aI6900
aI7000
aI7100
aI7200
aI7300
aI7400
aI7500
aI7600
aI7700
aI7800
aI7900
aI8000
aI8100
aI8200
aI8300
aI8400
aI8500
aI8600
aI8700
aI8800
aI8900
aI9000
aI9100
aI9200
aI9300
aI9400
aI9500
aI9600
aI9700
aI9800
aI9900
aI10000
aI10100
aI10200
aI10300
aI10400
aI10500
aI10600
aI10700
aI10800
aI10900
aI11000
aI11100
aI11200
aI11300
aI11400
aI11500
aI11600
aI11700
aI11800
aI11900
aI12000
aI12100
aI12200
aI12300
aI12400
aI12500
aI12600
aI12700
aI12800
aI12900
aI13000
aI13100
aI13200
aI13300
aI13400
aI13500
aI13600
aI13700
aI13800
aI13900
aI14000
aI14100
aI14200
aI14300
aI14400
aI14500
aI14600
aI14700
aI14800
aI14900
aI15000
aI15100
aI15200
aI15300
aI15400
aI15500
aI15600
aI15700
aI15800
aI15900
aI16000
aI16100
aI16200
aI16300
aI16400
aI16500
aI16600
aI16700
aI16800
aI16900
aI17000
aI17100
aI17200
aI17300
aI17400
aI17500
aI17600
aI17700
aI17800
aI17900
aI18000
aI18100
aI18200
aI18300
aI18400
aI18500
aI18600
aI18700
aI18800
aI18900
aI19000
aI19100
aI19200
aI19300
aI19400
aI19500
aI19600
aI19700
aI19800
aI19900
aI20000
aI20100
aI20200
aI20300
aI20400
aI20500
aI20600
aI20700
aI20800
aI20900
aI21000
aI21100
aI21200
aI21300
aI21400
aI21500
aI21600
aI21700
aI21800
asS'semi'
p43
(lp44
I247
aI207
aI162
aI156
aI149
aI145
aI141
aI129
aI124
aI118
aI104
aI39
aI48
aI48
aI46
aI47
aI46
aI46
aI45
aI47
aI46
aI49
aI47
aI50
aI54
aI52
aI57
aI56
aI53
aI57
aI56
aI53
aI53
aI50
aI50
aI48
aI49
aI46
aI48
aI58
aI55
aI56
aI61
aI62
aI62
aI64
aI63
aI64
aI60
aI64
aI64
aI62
aI62
aI58
aI58
aI58
aI58
aI62
aI62
aI61
aI60
aI59
aI60
aI56
aI59
aI57
aI56
aI57
aI55
aI55
aI55
aI55
aI55
aI52
aI53
aI53
aI53
aI53
aI52
aI51
aI52
aI51
aI52
aI50
aI49
aI50
aI49
aI49
aI49
aI49
aI49
aI48
aI48
aI47
aI47
aI47
aI47
aI48
aI49
aI49
aI49
aI50
aI49
aI48
aI48
aI48
aI48
aI48
aI47
aI47
aI47
aI47
aI46
aI46
aI46
aI46
aI46
aI46
aI45
aI45
aI45
aI45
aI44
aI44
aI44
aI44
aI44
aI43
aI43
aI43
aI43
aI43
aI43
aI43
aI42
aI43
aI43
aI42
aI42
aI42
aI42
aI42
aI42
aI42
aI42
aI41
aI41
aI41
aI41
aI41
aI41
aI41
aI41
aI40
aI40
aI40
aI40
aI40
aI40
aI40
aI40
aI39
aI39
aI39
aI39
aI39
aI39
aI39
aI39
aI39
aI39
aI38
aI38
aI38
aI38
aI38
aI38
aI38
aI38
aI38
aI38
aI38
aI38
aI37
aI37
aI37
aI37
aI37
aI37
aI37
aI37
aI37
aI37
aI37
aI37
aI37
aI37
aI36
aI36
aI36
aI36
aI36
aI36
aI36
aI36
aI36
aI36
aI36
aI36
aI36
aI36
aI36
aI36
aI36
aI36
aI36
aI36
aI35
assS'pos'
p45
(dp46
g41
(lp47
I0
aI100
aI200
aI300
aI400
aI500
aI600
aI700
aI800
aI900
aI1000
aI1100
aI1200
aI1300
aI1400
aI1500
aI1600
aI1700
aI1800
aI1900
aI2000
aI2100
aI2200
aI2300
aI2400
aI2500
aI2600
aI2700
aI2800
aI2900
aI3000
aI3100
aI3200
aI3300
aI3400
aI3500
aI3600
aI3700
aI3800
aI3900
aI4000
aI4100
aI4200
aI4300
aI4400
aI4500
aI4600
aI4700
aI4800
aI4900
aI5000
aI5100
aI5200
aI5300
aI5400
aI5500
aI5600
aI5700
aI5800
aI5900
aI6000
aI6100
aI6200
aI6300
aI6400
aI6500
aI6600
aI6700
aI6800
aI6900
aI7000
aI7100
aI7200
aI7300
aI7400
aI7500
aI7600
aI7700
aI7800
aI7900
aI8000
aI8100
aI8200
aI8300
aI8400
aI8500
aI8600
aI8700
aI8800
aI8900
aI9000
aI9100
aI9200
aI9300
aI9400
aI9500
aI9600
aI9700
aI9800
aI9900
aI10000
aI10100
aI10200
aI10300
aI10400
aI10500
aI10600
aI10700
aI10800
aI10900
aI11000
aI11100
aI11200
aI11300
aI11400
aI11500
aI11600
aI11700
aI11800
aI11900
aI12000
aI12100
aI12200
aI12300
aI12400
aI12500
aI12600
aI12700
aI12800
aI12900
aI13000
aI13100
aI13200
aI13300
aI13400
aI13500
aI13600
aI13700
aI13800
aI13900
aI14000
aI14100
aI14200
aI14300
aI14400
aI14500
aI14600
aI14700
aI14800
aI14900
aI15000
aI15100
aI15200
aI15300
aI15400
aI15500
aI15600
aI15700
aI15800
aI15900
aI16000
aI16100
aI16200
aI16300
aI16400
aI16500
aI16600
aI16700
aI16800
aI16900
aI17000
aI17100
aI17200
aI17300
aI17400
aI17500
aI17600
aI17700
aI17800
aI17900
aI18000
aI18100
aI18200
aI18300
aI18400
aI18500
aI18600
aI18700
aI18800
aI18900
aI19000
aI19100
aI19200
aI19300
aI19400
aI19500
aI19600
aI19700
aI19800
aI19900
aI20000
aI20100
aI20200
aI20300
aI20400
aI20500
aI20600
aI20700
aI20800
aI20900
aI21000
aI21100
aI21200
aI21300
aI21400
aI21500
aI21600
aI21700
aI21800
asg45
(lp48
I0
aI2
aI2
aI4
aI5
aI6
aI6
aI6
aI7
aI7
aI9
aI9
aI11
aI16
aI16
aI16
aI16
aI16
aI16
aI16
aI16
aI16
aI17
aI17
aI18
aI19
aI19
aI21
aI21
aI21
aI23
aI25
aI25
aI25
aI25
aI25
aI25
aI25
aI25
aI26
aI28
aI29
aI29
aI31
aI31
aI32
aI32
aI32
aI32
aI33
aI33
aI33
aI33
aI33
aI33
aI33
aI33
aI33
aI34
aI34
aI34
aI34
aI34
aI34
aI34
aI34
aI34
aI34
aI34
aI34
aI34
aI34
aI34
aI34
aI34
aI34
aI34
aI34
aI34
aI34
aI34
aI34
aI34
aI34
aI34
aI34
aI34
aI34
aI34
aI34
aI34
aI34
aI34
aI34
aI34
aI34
aI34
aI34
aI34
aI35
aI35
aI35
aI35
aI35
aI35
aI35
aI35
aI35
aI35
aI35
aI35
aI35
aI35
aI35
aI35
aI35
aI35
aI35
aI35
aI35
aI35
aI35
aI35
aI35
aI35
aI35
aI35
aI35
aI35
aI35
aI35
aI35
aI35
aI35
aI35
aI35
aI35
aI35
aI35
aI35
aI35
aI35
aI35
aI35
aI35
aI35
aI35
aI35
aI35
aI35
aI35
aI35
aI35
aI35
aI35
aI35
aI35
aI35
aI35
aI35
aI35
aI35
aI35
aI35
aI35
aI35
aI35
aI35
aI35
aI35
aI35
aI35
aI35
aI35
aI35
aI35
aI35
aI35
aI35
aI35
aI35
aI35
aI35
aI35
aI35
aI35
aI35
aI35
aI35
aI35
aI35
aI35
aI35
aI35
aI35
aI35
aI35
aI35
aI35
aI35
aI35
aI35
aI35
aI35
aI35
aI35
aI35
aI35
aI35
aI35
aI35
aI35
aI35
aI35
aI35
aI35
aI35
aI35
aI35
asssS'Arbitrary Code'
p49
(dp50
S'est'
p51
(dp52
S'x'
p53
(lp54
I100
aI200
aI300
aI400
aI500
aI600
aI700
aI800
aI900
aI1000
aI1100
aI1200
aI1300
aI1400
aI1500
aI1600
aI1700
aI1800
aI1900
aI2000
aI2100
aI2200
aI2300
aI2400
aI2500
aI2600
aI2700
aI2800
aI2900
aI3000
aI3100
aI3200
aI3300
aI3400
aI3500
aI3600
aI3700
aI3800
aI3900
aI4000
aI4100
aI4200
aI4300
aI4400
aI4500
aI4600
aI4700
aI4800
aI4900
aI5000
aI5100
aI5200
aI5300
aI5400
aI5500
aI5600
aI5700
aI5800
aI5900
aI6000
aI6100
aI6200
aI6300
aI6400
aI6500
aI6600
aI6700
aI6800
aI6900
aI7000
aI7100
aI7200
aI7300
aI7400
aI7500
aI7600
aI7700
aI7800
aI7900
aI8000
aI8100
aI8200
aI8300
aI8400
aI8500
aI8600
aI8700
aI8800
aI8900
aI9000
aI9100
aI9200
aI9300
aI9400
aI9500
aI9600
aI9700
aI9800
aI9900
aI10000
aI10100
aI10200
aI10300
aI10400
aI10500
aI10600
aI10700
aI10800
aI10900
aI11000
aI11100
aI11200
aI11300
aI11400
aI11500
aI11600
aI11700
aI11800
aI11900
aI12000
aI12100
aI12200
aI12300
aI12400
aI12500
aI12600
aI12700
aI12800
aI12900
aI13000
aI13100
aI13200
aI13300
aI13400
aI13500
aI13600
aI13700
aI13800
aI13900
aI14000
aI14100
aI14200
aI14300
aI14400
aI14500
aI14600
aI14700
aI14800
aI14900
aI15000
aI15100
aI15200
aI15300
aI15400
aI15500
aI15600
aI15700
aI15800
aI15900
aI16000
aI16100
aI16200
aI16300
aI16400
aI16500
aI16600
aI16700
aI16800
aI16900
aI17000
aI17100
aI17200
aI17300
aI17400
aI17500
aI17600
aI17700
aI17800
aI17900
aI18000
aI18100
aI18200
aI18300
aI18400
aI18500
aI18600
aI18700
aI18800
aI18900
aI19000
aI19100
aI19200
aI19300
aI19400
aI19500
aI19600
aI19700
aI19800
aI19900
asS'semi'
p55
(lp56
I155
aI123
aI104
aI106
aI107
aI111
aI106
aI103
aI119
aI128
aI135
aI133
aI135
aI140
aI145
aI145
aI136
aI131
aI127
aI128
aI134
aI144
aI138
aI148
aI144
aI144
aI138
aI130
aI122
aI118
aI115
aI119
aI124
aI122
aI120
aI120
aI116
aI117
aI117
aI114
aI122
aI127
aI140
aI140
aI168
aI149
aI152
aI151
aI142
aI138
aI143
aI136
aI146
aI143
aI141
aI138
aI137
aI137
aI131
aI138
aI134
aI137
aI136
aI131
aI133
aI133
aI131
aI130
aI132
aI129
aI128
aI128
aI127
aI127
aI127
aI126
aI126
aI125
aI125
aI128
aI128
aI131
aI128
aI127
aI127
aI126
aI127
aI125
aI126
aI125
aI125
aI125
aI125
aI124
aI125
aI124
aI123
aI124
aI123
aI124
aI125
aI124
aI124
aI123
aI124
aI124
aI126
aI126
aI129
aI127
aI127
aI127
aI126
aI126
aI126
aI126
aI125
aI125
aI125
aI125
aI125
aI124
aI124
aI124
aI124
aI124
aI124
aI124
aI124
aI123
aI123
aI123
aI123
aI123
aI123
aI123
aI123
aI123
aI123
aI123
aI122
aI122
aI122
aI122
aI122
aI122
aI122
aI122
aI122
aI122
aI122
aI122
aI121
aI121
aI121
aI121
aI121
aI121
aI121
aI121
aI121
aI121
aI121
aI121
aI121
aI121
aI121
aI121
aI121
aI121
aI120
aI120
aI120
aI120
aI120
aI120
aI120
aI120
aI120
aI120
aI120
aI120
aI120
aI120
aI120
aI120
aI120
aI120
aI120
aI120
aI120
aI120
aI120
aI120
aI120
aI120
aI120
aI120
aI119
assS'pos'
p57
(dp58
g53
(lp59
I0
aI100
aI200
aI300
aI400
aI500
aI600
aI700
aI800
aI900
aI1000
aI1100
aI1200
aI1300
aI1400
aI1500
aI1600
aI1700
aI1800
aI1900
aI2000
aI2100
aI2200
aI2300
aI2400
aI2500
aI2600
aI2700
aI2800
aI2900
aI3000
aI3100
aI3200
aI3300
aI3400
aI3500
aI3600
aI3700
aI3800
aI3900
aI4000
aI4100
aI4200
aI4300
aI4400
aI4500
aI4600
aI4700
aI4800
aI4900
aI5000
aI5100
aI5200
aI5300
aI5400
aI5500
aI5600
aI5700
aI5800
aI5900
aI6000
aI6100
aI6200
aI6300
aI6400
aI6500
aI6600
aI6700
aI6800
aI6900
aI7000
aI7100
aI7200
aI7300
aI7400
aI7500
aI7600
aI7700
aI7800
aI7900
aI8000
aI8100
aI8200
aI8300
aI8400
aI8500
aI8600
aI8700
aI8800
aI8900
aI9000
aI9100
aI9200
aI9300
aI9400
aI9500
aI9600
aI9700
aI9800
aI9900
aI10000
aI10100
aI10200
aI10300
aI10400
aI10500
aI10600
aI10700
aI10800
aI10900
aI11000
aI11100
aI11200
aI11300
aI11400
aI11500
aI11600
aI11700
aI11800
aI11900
aI12000
aI12100
aI12200
aI12300
aI12400
aI12500
aI12600
aI12700
aI12800
aI12900
aI13000
aI13100
aI13200
aI13300
aI13400
aI13500
aI13600
aI13700
aI13800
aI13900
aI14000
aI14100
aI14200
aI14300
aI14400
aI14500
aI14600
aI14700
aI14800
aI14900
aI15000
aI15100
aI15200
aI15300
aI15400
aI15500
aI15600
aI15700
aI15800
aI15900
aI16000
aI16100
aI16200
aI16300
aI16400
aI16500
aI16600
aI16700
aI16800
aI16900
aI17000
aI17100
aI17200
aI17300
aI17400
aI17500
aI17600
aI17700
aI17800
aI17900
aI18000
aI18100
aI18200
aI18300
aI18400
aI18500
aI18600
aI18700
aI18800
aI18900
aI19000
aI19100
aI19200
aI19300
aI19400
aI19500
aI19600
aI19700
aI19800
aI19900
asg57
(lp60
I0
aI17
aI18
aI20
aI25
aI28
aI33
aI33
aI35
aI42
aI45
aI50
aI53
aI55
aI59
aI62
aI64
aI65
aI66
aI68
aI70
aI74
aI78
aI79
aI83
aI84
aI86
aI87
aI87
aI87
aI87
aI87
aI90
aI92
aI93
aI93
aI93
aI94
aI95
aI95
aI95
aI98
aI99
aI102
aI103
aI107
aI107
aI107
aI107
aI107
aI107
aI108
aI108
aI109
aI109
aI109
aI109
aI109
aI109
aI109
aI111
aI113
aI113
aI113
aI113
aI114
aI114
aI114
aI114
aI114
aI114
aI115
aI115
aI115
aI115
aI115
aI115
aI115
aI115
aI115
aI116
aI116
aI116
aI116
aI116
aI116
aI116
aI116
aI116
aI116
aI116
aI116
aI116
aI116
aI116
aI116
aI116
aI116
aI116
aI116
aI117
aI117
aI117
aI117
aI117
aI117
aI117
aI118
aI118
aI119
aI119
aI119
aI119
aI119
aI119
aI119
aI119
aI119
aI119
aI119
aI119
aI119
aI119
aI119
aI119
aI119
aI119
aI119
aI119
aI119
aI119
aI119
aI119
aI119
aI119
aI119
aI119
aI119
aI119
aI119
aI119
aI119
aI119
aI119
aI119
aI119
aI119
aI119
aI119
aI119
aI119
aI119
aI119
aI119
aI119
aI119
aI119
aI119
aI119
aI119
aI119
aI119
aI119
aI119
aI119
aI119
aI119
aI119
aI119
aI119
aI119
aI119
aI119
aI119
aI119
aI119
aI119
aI119
aI119
aI119
aI119
aI119
aI119
aI119
aI119
aI119
aI119
aI119
aI119
aI119
aI119
aI119
aI119
aI119
aI119
aI119
aI119
aI119
aI119
aI119
asss.