(dp0
S'Arbitrary Code'
p1
(dp2
S'est'
p3
(dp4
S'x'
p5
(lp6
sS'semi'
p7
(lp8
ssS'pos'
p9
(dp10
g5
(lp11
I0
aI1000
aI2000
aI3000
aI4000
aI5000
aI6000
aI7000
aI8000
aI9000
aI10000
aI11000
aI12000
aI13000
aI14000
aI15000
asg9
(lp12
I0
aI5
aI12
aI45
aI58
aI72
aI83
aI97
aI100
aI110
aI112
aI114
aI115
aI116
aI117
aI118
asss.