(dp0
S'Code Quality'
p1
(dp2
S'est'
p3
(dp4
S'x'
p5
(lp6
I100
aI200
aI300
aI400
aI500
aI600
aI700
aI800
aI900
aI1000
aI1100
aI1200
aI1300
aI1400
aI1500
aI1600
aI1700
aI1800
aI1900
aI2000
aI2100
aI2200
aI2300
aI2400
aI2500
aI2600
aI2700
aI2800
aI2900
aI3000
aI3100
aI3200
aI3300
aI3400
aI3500
aI3600
aI3700
aI3800
aI3900
aI4000
aI4100
aI4200
aI4300
aI4400
aI4500
aI4600
aI4700
aI4800
aI4900
aI5000
aI5100
aI5200
aI5300
aI5400
aI5500
aI5600
aI5700
aI5800
aI5900
aI6000
aI6100
aI6200
aI6300
aI6400
aI6500
aI6600
aI6700
aI6800
aI6900
aI7000
aI7100
aI7200
aI7300
aI7400
aI7500
aI7600
aI7700
aI7800
aI7900
aI8000
aI8100
aI8200
aI8300
aI8400
aI8500
aI8600
aI8700
aI8800
aI8900
aI9000
aI9100
aI9200
aI9300
aI9400
aI9500
aI9600
aI9700
aI9800
aI9900
aI10000
aI10100
aI10200
aI10300
aI10400
aI10500
aI10600
aI10700
aI10800
aI10900
aI11000
aI11100
aI11200
aI11300
aI11400
aI11500
aI11600
aI11700
aI11800
aI11900
aI12000
aI12100
aI12200
aI12300
aI12400
aI12500
aI12600
aI12700
aI12800
aI12900
aI13000
aI13100
aI13200
aI13300
aI13400
aI13500
aI13600
aI13700
aI13800
aI13900
aI14000
aI14100
aI14200
aI14300
aI14400
aI14500
aI14600
aI14700
aI14800
aI14900
aI15000
aI15100
aI15200
aI15300
aI15400
aI15500
aI15600
aI15700
aI15800
aI15900
aI16000
aI16100
aI16200
aI16300
aI16400
aI16500
aI16600
aI16700
aI16800
aI16900
aI17000
asS'semi'
p7
(lp8
I221
aI171
aI149
aI134
aI125
aI119
aI114
aI107
aI100
aI96
aI93
aI90
aI83
aI86
aI91
aI91
aI94
aI44
aI44
aI49
aI49
aI48
aI47
aI45
aI43
aI42
aI40
aI39
aI39
aI38
aI38
aI40
aI39
aI39
aI39
aI40
aI40
aI39
aI39
aI38
aI38
aI38
aI38
aI37
aI36
aI37
aI38
aI37
aI37
aI37
aI37
aI36
aI35
aI36
aI36
aI36
aI35
aI35
aI35
aI35
aI35
aI34
aI34
aI34
aI35
aI34
aI34
aI34
aI34
aI33
aI34
aI33
aI33
aI33
aI33
aI33
aI33
aI32
aI33
aI33
aI32
aI32
aI32
aI32
aI32
aI32
aI33
aI32
aI32
aI32
aI32
aI32
aI32
aI31
aI32
aI31
aI32
aI31
aI31
aI31
aI31
aI31
aI31
aI31
aI31
aI31
aI31
aI31
aI31
aI30
aI31
aI31
aI31
aI30
aI30
aI30
aI30
aI30
aI30
aI30
aI30
aI30
aI30
aI30
aI30
aI30
aI30
aI30
aI30
aI30
aI30
aI30
aI30
aI30
aI30
aI30
aI30
aI30
aI30
aI30
aI30
aI30
aI30
aI30
aI30
aI30
aI30
aI30
aI30
aI30
aI30
aI30
aI30
aI30
aI30
aI30
aI30
aI30
aI30
aI30
aI30
aI30
aI30
aI30
aI30
aI30
aI30
aI30
aI30
aI29
assS'pos'
p9
(dp10
g5
(lp11
I0
aI100
aI200
aI300
aI400
aI500
aI600
aI700
aI800
aI900
aI1000
aI1100
aI1200
aI1300
aI1400
aI1500
aI1600
aI1700
aI1800
aI1900
aI2000
aI2100
aI2200
aI2300
aI2400
aI2500
aI2600
aI2700
aI2800
aI2900
aI3000
aI3100
aI3200
aI3300
aI3400
aI3500
aI3600
aI3700
aI3800
aI3900
aI4000
aI4100
aI4200
aI4300
aI4400
aI4500
aI4600
aI4700
aI4800
aI4900
aI5000
aI5100
aI5200
aI5300
aI5400
aI5500
aI5600
aI5700
aI5800
aI5900
aI6000
aI6100
aI6200
aI6300
aI6400
aI6500
aI6600
aI6700
aI6800
aI6900
aI7000
aI7100
aI7200
aI7300
aI7400
aI7500
aI7600
aI7700
aI7800
aI7900
aI8000
aI8100
aI8200
aI8300
aI8400
aI8500
aI8600
aI8700
aI8800
aI8900
aI9000
aI9100
aI9200
aI9300
aI9400
aI9500
aI9600
aI9700
aI9800
aI9900
aI10000
aI10100
aI10200
aI10300
aI10400
aI10500
aI10600
aI10700
aI10800
aI10900
aI11000
aI11100
aI11200
aI11300
aI11400
aI11500
aI11600
aI11700
aI11800
aI11900
aI12000
aI12100
aI12200
aI12300
aI12400
aI12500
aI12600
aI12700
aI12800
aI12900
aI13000
aI13100
aI13200
aI13300
aI13400
aI13500
aI13600
aI13700
aI13800
aI13900
aI14000
aI14100
aI14200
aI14300
aI14400
aI14500
aI14600
aI14700
aI14800
aI14900
aI15000
aI15100
aI15200
aI15300
aI15400
aI15500
aI15600
aI15700
aI15800
aI15900
aI16000
aI16100
aI16200
aI16300
aI16400
aI16500
aI16600
aI16700
aI16800
aI16900
aI17000
asg9
(lp12
I0
aI6
aI6
aI6
aI6
aI7
aI7
aI8
aI8
aI8
aI8
aI10
aI11
aI16
aI19
aI19
aI19
aI19
aI22
aI23
aI25
aI26
aI26
aI26
aI26
aI26
aI26
aI26
aI26
aI26
aI26
aI27
aI27
aI27
aI27
aI28
aI28
aI28
aI28
aI28
aI28
aI28
aI28
aI28
aI28
aI28
aI28
aI29
aI29
aI29
aI29
aI29
aI29
aI29
aI29
aI29
aI29
aI29
aI29
aI29
aI29
aI29
aI29
aI29
aI29
aI29
aI29
aI29
aI29
aI29
aI29
aI29
aI29
aI29
aI29
aI29
aI29
aI29
aI29
aI29
aI29
aI29
aI29
aI29
aI29
aI29
aI29
aI29
aI29
aI29
aI29
aI29
aI29
aI29
aI29
aI29
aI29
aI29
aI29
aI29
aI29
aI29
aI29
aI29
aI29
aI29
aI29
aI29
aI29
aI29
aI29
aI29
aI29
aI29
aI29
aI29
aI29
aI29
aI29
aI29
aI29
aI29
aI29
aI29
aI29
aI29
aI29
aI29
aI29
aI29
aI29
aI29
aI29
aI29
aI29
aI29
aI29
aI29
aI29
aI29
aI29
aI29
aI29
aI29
aI29
aI29
aI29
aI29
aI29
aI29
aI29
aI29
aI29
aI29
aI29
aI29
aI29
aI29
aI29
aI29
aI29
aI29
aI29
aI29
aI29
aI29
aI29
aI29
aI29
aI29
aI29
asssS'Other'
p13
(dp14
g3
(dp15
g5
(lp16
I100
aI200
aI300
aI400
aI500
aI600
aI700
aI800
aI900
aI1000
aI1100
aI1200
aI1300
aI1400
aI1500
aI1600
aI1700
aI1800
aI1900
aI2000
aI2100
aI2200
aI2300
aI2400
aI2500
aI2600
aI2700
aI2800
aI2900
aI3000
aI3100
aI3200
aI3300
aI3400
aI3500
aI3600
aI3700
aI3800
aI3900
aI4000
aI4100
aI4200
aI4300
aI4400
aI4500
aI4600
aI4700
aI4800
aI4900
aI5000
aI5100
aI5200
aI5300
aI5400
aI5500
aI5600
aI5700
aI5800
aI5900
aI6000
aI6100
aI6200
aI6300
aI6400
aI6500
aI6600
aI6700
aI6800
aI6900
aI7000
aI7100
aI7200
aI7300
aI7400
aI7500
aI7600
aI7700
aI7800
aI7900
aI8000
aI8100
aI8200
aI8300
aI8400
aI8500
aI8600
aI8700
aI8800
aI8900
aI9000
aI9100
aI9200
aI9300
aI9400
aI9500
aI9600
aI9700
aI9800
aI9900
aI10000
aI10100
aI10200
aI10300
aI10400
aI10500
aI10600
aI10700
aI10800
aI10900
aI11000
aI11100
aI11200
aI11300
aI11400
aI11500
aI11600
aI11700
aI11800
aI11900
aI12000
aI12100
aI12200
aI12300
aI12400
aI12500
aI12600
aI12700
aI12800
aI12900
aI13000
aI13100
aI13200
aI13300
aI13400
aI13500
aI13600
aI13700
aI13800
aI13900
aI14000
aI14100
aI14200
aI14300
aI14400
aI14500
aI14600
aI14700
aI14800
aI14900
aI15000
aI15100
aI15200
aI15300
aI15400
aI15500
aI15600
aI15700
aI15800
aI15900
aI16000
aI16100
aI16200
aI16300
aI16400
aI16500
aI16600
aI16700
aI16800
aI16900
aI17000
asg7
(lp17
I211
aI180
aI156
aI141
aI136
aI130
aI127
aI128
aI118
aI105
aI64
aI66
aI61
aI63
aI61
aI62
aI60
aI57
aI59
aI53
aI57
aI57
aI55
aI53
aI57
aI58
aI59
aI60
aI61
aI57
aI59
aI51
aI50
aI48
aI49
aI48
aI48
aI48
aI47
aI46
aI47
aI45
aI45
aI48
aI49
aI48
aI48
aI47
aI48
aI46
aI48
aI46
aI46
aI46
aI45
aI45
aI45
aI45
aI45
aI44
aI44
aI45
aI44
aI44
aI44
aI44
aI44
aI44
aI45
aI44
aI44
aI43
aI43
aI43
aI43
aI43
aI43
aI43
aI43
aI43
aI43
aI43
aI43
aI43
aI43
aI44
aI44
aI44
aI44
aI43
aI43
aI43
aI43
aI44
aI43
aI43
aI43
aI43
aI43
aI43
aI43
aI43
aI43
aI43
aI43
aI42
aI43
aI43
aI43
aI43
aI43
aI43
aI43
aI42
aI43
aI42
aI43
aI42
aI42
aI43
aI42
aI43
aI42
aI42
aI42
aI42
aI42
aI42
aI42
aI42
aI42
aI42
aI42
aI42
aI42
aI42
aI42
aI42
aI42
aI42
aI42
aI42
aI42
aI42
aI42
aI42
aI42
aI41
aI42
aI42
aI43
aI43
aI43
aI43
aI43
aI43
aI43
aI43
aI43
aI43
aI43
aI43
aI43
aI43
aI43
aI43
aI43
aI43
aI43
aI42
assg9
(dp18
g5
(lp19
I0
aI100
aI200
aI300
aI400
aI500
aI600
aI700
aI800
aI900
aI1000
aI1100
aI1200
aI1300
aI1400
aI1500
aI1600
aI1700
aI1800
aI1900
aI2000
aI2100
aI2200
aI2300
aI2400
aI2500
aI2600
aI2700
aI2800
aI2900
aI3000
aI3100
aI3200
aI3300
aI3400
aI3500
aI3600
aI3700
aI3800
aI3900
aI4000
aI4100
aI4200
aI4300
aI4400
aI4500
aI4600
aI4700
aI4800
aI4900
aI5000
aI5100
aI5200
aI5300
aI5400
aI5500
aI5600
aI5700
aI5800
aI5900
aI6000
aI6100
aI6200
aI6300
aI6400
aI6500
aI6600
aI6700
aI6800
aI6900
aI7000
aI7100
aI7200
aI7300
aI7400
aI7500
aI7600
aI7700
aI7800
aI7900
aI8000
aI8100
aI8200
aI8300
aI8400
aI8500
aI8600
aI8700
aI8800
aI8900
aI9000
aI9100
aI9200
aI9300
aI9400
aI9500
aI9600
aI9700
aI9800
aI9900
aI10000
aI10100
aI10200
aI10300
aI10400
aI10500
aI10600
aI10700
aI10800
aI10900
aI11000
aI11100
aI11200
aI11300
aI11400
aI11500
aI11600
aI11700
aI11800
aI11900
aI12000
aI12100
aI12200
aI12300
aI12400
aI12500
aI12600
aI12700
aI12800
aI12900
aI13000
aI13100
aI13200
aI13300
aI13400
aI13500
aI13600
aI13700
aI13800
aI13900
aI14000
aI14100
aI14200
aI14300
aI14400
aI14500
aI14600
aI14700
aI14800
aI14900
aI15000
aI15100
aI15200
aI15300
aI15400
aI15500
aI15600
aI15700
aI15800
aI15900
aI16000
aI16100
aI16200
aI16300
aI16400
aI16500
aI16600
aI16700
aI16800
aI16900
aI17000
asg9
(lp20
I0
aI3
aI4
aI4
aI5
aI6
aI6
aI8
aI9
aI9
aI13
aI22
aI24
aI24
aI26
aI28
aI28
aI28
aI28
aI28
aI28
aI28
aI28
aI28
aI28
aI29
aI30
aI31
aI32
aI32
aI32
aI34
aI35
aI35
aI35
aI36
aI37
aI37
aI37
aI37
aI37
aI37
aI37
aI38
aI40
aI40
aI40
aI40
aI40
aI40
aI40
aI40
aI40
aI40
aI40
aI40
aI40
aI40
aI40
aI40
aI40
aI40
aI40
aI40
aI40
aI40
aI40
aI40
aI40
aI40
aI40
aI40
aI40
aI40
aI40
aI40
aI40
aI40
aI40
aI40
aI40
aI40
aI40
aI40
aI40
aI40
aI41
aI41
aI41
aI41
aI41
aI41
aI41
aI41
aI41
aI41
aI41
aI41
aI41
aI41
aI41
aI41
aI41
aI41
aI41
aI41
aI41
aI41
aI41
aI41
aI41
aI41
aI41
aI41
aI41
aI41
aI41
aI41
aI41
aI41
aI41
aI41
aI41
aI41
aI41
aI41
aI41
aI41
aI41
aI41
aI41
aI41
aI41
aI41
aI41
aI41
aI41
aI41
aI41
aI41
aI41
aI41
aI41
aI41
aI41
aI41
aI41
aI41
aI41
aI41
aI41
aI42
aI42
aI42
aI42
aI42
aI42
aI42
aI42
aI42
aI42
aI42
aI42
aI42
aI42
aI42
aI42
aI42
aI42
aI42
aI42
asssS'Range Error'
p21
(dp22
g3
(dp23
g5
(lp24
I100
aI200
aI300
aI400
aI500
aI600
aI700
aI800
aI900
aI1000
aI1100
aI1200
aI1300
aI1400
aI1500
aI1600
aI1700
aI1800
aI1900
aI2000
aI2100
aI2200
aI2300
aI2400
aI2500
aI2600
aI2700
aI2800
aI2900
aI3000
aI3100
aI3200
aI3300
aI3400
aI3500
aI3600
aI3700
aI3800
aI3900
aI4000
aI4100
aI4200
aI4300
aI4400
aI4500
aI4600
aI4700
aI4800
aI4900
aI5000
aI5100
aI5200
aI5300
aI5400
aI5500
aI5600
aI5700
aI5800
aI5900
aI6000
aI6100
aI6200
aI6300
aI6400
aI6500
aI6600
aI6700
aI6800
aI6900
aI7000
aI7100
aI7200
aI7300
aI7400
aI7500
aI7600
aI7700
aI7800
aI7900
aI8000
aI8100
aI8200
aI8300
aI8400
aI8500
aI8600
aI8700
aI8800
aI8900
aI9000
aI9100
aI9200
aI9300
aI9400
aI9500
aI9600
aI9700
aI9800
aI9900
aI10000
aI10100
aI10200
aI10300
aI10400
aI10500
aI10600
aI10700
aI10800
aI10900
aI11000
aI11100
aI11200
aI11300
aI11400
aI11500
aI11600
aI11700
aI11800
aI11900
aI12000
aI12100
aI12200
aI12300
aI12400
aI12500
aI12600
aI12700
aI12800
aI12900
aI13000
aI13100
aI13200
aI13300
aI13400
aI13500
aI13600
aI13700
aI13800
aI13900
aI14000
aI14100
aI14200
aI14300
aI14400
aI14500
aI14600
aI14700
aI14800
aI14900
aI15000
aI15100
aI15200
aI15300
aI15400
aI15500
aI15600
aI15700
aI15800
aI15900
aI16000
aI16100
aI16200
aI16300
aI16400
aI16500
aI16600
aI16700
aI16800
asg7
(lp25
I246
aI185
aI142
aI138
aI125
aI121
aI116
aI106
aI97
aI87
aI99
aI96
aI89
aI72
aI64
aI54
aI48
aI46
aI43
aI46
aI46
aI44
aI51
aI46
aI45
aI42
aI41
aI42
aI45
aI41
aI37
aI37
aI38
aI37
aI37
aI35
aI34
aI34
aI34
aI35
aI33
aI36
aI36
aI37
aI37
aI41
aI39
aI38
aI39
aI39
aI38
aI38
aI36
aI37
aI36
aI36
aI37
aI36
aI35
aI34
aI35
aI37
aI39
aI36
aI37
aI37
aI35
aI36
aI36
aI35
aI36
aI35
aI36
aI34
aI34
aI34
aI35
aI34
aI35
aI33
aI34
aI35
aI34
aI36
aI34
aI33
aI41
aI38
aI38
aI37
aI38
aI38
aI37
aI37
aI36
aI36
aI37
aI37
aI38
aI36
aI37
aI35
aI38
aI36
aI36
aI35
aI36
aI35
aI35
aI35
aI36
aI35
aI35
aI34
aI35
aI35
aI34
aI35
aI34
aI34
aI35
aI34
aI35
aI34
aI34
aI34
aI34
aI34
aI33
aI34
aI36
aI33
aI33
aI35
aI33
aI33
aI34
aI33
aI33
aI33
aI33
aI33
aI33
aI34
aI33
aI33
aI34
aI34
aI33
aI33
aI33
aI33
aI33
aI33
aI34
aI33
aI33
aI33
aI33
aI33
aI33
aI33
aI33
aI33
aI34
aI33
aI33
aI32
assg9
(dp26
g5
(lp27
I0
aI100
aI200
aI300
aI400
aI500
aI600
aI700
aI800
aI900
aI1000
aI1100
aI1200
aI1300
aI1400
aI1500
aI1600
aI1700
aI1800
aI1900
aI2000
aI2100
aI2200
aI2300
aI2400
aI2500
aI2600
aI2700
aI2800
aI2900
aI3000
aI3100
aI3200
aI3300
aI3400
aI3500
aI3600
aI3700
aI3800
aI3900
aI4000
aI4100
aI4200
aI4300
aI4400
aI4500
aI4600
aI4700
aI4800
aI4900
aI5000
aI5100
aI5200
aI5300
aI5400
aI5500
aI5600
aI5700
aI5800
aI5900
aI6000
aI6100
aI6200
aI6300
aI6400
aI6500
aI6600
aI6700
aI6800
aI6900
aI7000
aI7100
aI7200
aI7300
aI7400
aI7500
aI7600
aI7700
aI7800
aI7900
aI8000
aI8100
aI8200
aI8300
aI8400
aI8500
aI8600
aI8700
aI8800
aI8900
aI9000
aI9100
aI9200
aI9300
aI9400
aI9500
aI9600
aI9700
aI9800
aI9900
aI10000
aI10100
aI10200
aI10300
aI10400
aI10500
aI10600
aI10700
aI10800
aI10900
aI11000
aI11100
aI11200
aI11300
aI11400
aI11500
aI11600
aI11700
aI11800
aI11900
aI12000
aI12100
aI12200
aI12300
aI12400
aI12500
aI12600
aI12700
aI12800
aI12900
aI13000
aI13100
aI13200
aI13300
aI13400
aI13500
aI13600
aI13700
aI13800
aI13900
aI14000
aI14100
aI14200
aI14300
aI14400
aI14500
aI14600
aI14700
aI14800
aI14900
aI15000
aI15100
aI15200
aI15300
aI15400
aI15500
aI15600
aI15700
aI15800
aI15900
aI16000
aI16100
aI16200
aI16300
aI16400
aI16500
aI16600
aI16700
aI16800
asg9
(lp28
I0
aI2
aI2
aI3
aI3
aI5
aI6
aI6
aI7
aI7
aI7
aI10
aI10
aI10
aI11
aI16
aI18
aI18
aI19
aI19
aI20
aI20
aI20
aI21
aI21
aI21
aI21
aI21
aI22
aI22
aI22
aI23
aI23
aI23
aI23
aI23
aI23
aI23
aI23
aI23
aI24
aI24
aI26
aI28
aI28
aI28
aI28
aI29
aI29
aI29
aI29
aI29
aI29
aI29
aI29
aI29
aI29
aI29
aI29
aI29
aI29
aI29
aI30
aI30
aI30
aI30
aI30
aI30
aI30
aI30
aI30
aI30
aI30
aI30
aI30
aI30
aI30
aI30
aI30
aI30
aI30
aI30
aI30
aI30
aI30
aI30
aI30
aI32
aI32
aI32
aI32
aI32
aI32
aI32
aI32
aI32
aI32
aI32
aI32
aI32
aI32
aI32
aI32
aI32
aI32
aI32
aI32
aI32
aI32
aI32
aI32
aI32
aI32
aI32
aI32
aI32
aI32
aI32
aI32
aI32
aI32
aI32
aI32
aI32
aI32
aI32
aI32
aI32
aI32
aI32
aI32
aI32
aI32
aI32
aI32
aI32
aI32
aI32
aI32
aI32
aI32
aI32
aI32
aI32
aI32
aI32
aI32
aI32
aI32
aI32
aI32
aI32
aI32
aI32
aI32
aI32
aI32
aI32
aI32
aI32
aI32
aI32
aI32
aI32
aI32
aI32
aI32
aI32
aI32
asssS'Improper Control of a Resource Through its Lifetime'
p29
(dp30
g3
(dp31
g5
(lp32
I100
aI200
aI300
aI400
aI500
aI600
aI700
aI800
aI900
aI1000
aI1100
aI1200
aI1300
aI1400
aI1500
aI1600
aI1700
aI1800
aI1900
aI2000
aI2100
aI2200
aI2300
aI2400
aI2500
aI2600
aI2700
aI2800
aI2900
aI3000
aI3100
aI3200
aI3300
aI3400
aI3500
aI3600
aI3700
aI3800
aI3900
aI4000
aI4100
aI4200
aI4300
aI4400
aI4500
aI4600
aI4700
aI4800
aI4900
aI5000
aI5100
aI5200
aI5300
aI5400
aI5500
aI5600
aI5700
aI5800
aI5900
aI6000
aI6100
aI6200
aI6300
aI6400
aI6500
aI6600
aI6700
aI6800
aI6900
aI7000
aI7100
aI7200
aI7300
aI7400
aI7500
aI7600
aI7700
aI7800
aI7900
aI8000
aI8100
aI8200
aI8300
aI8400
aI8500
aI8600
aI8700
aI8800
aI8900
aI9000
aI9100
aI9200
aI9300
aI9400
aI9500
aI9600
aI9700
aI9800
aI9900
aI10000
aI10100
aI10200
aI10300
aI10400
aI10500
aI10600
aI10700
aI10800
aI10900
aI11000
aI11100
aI11200
aI11300
aI11400
aI11500
aI11600
aI11700
aI11800
aI11900
aI12000
aI12100
aI12200
aI12300
aI12400
aI12500
aI12600
aI12700
aI12800
aI12900
aI13000
aI13100
aI13200
aI13300
aI13400
aI13500
aI13600
aI13700
aI13800
asg7
(lp33
I224
aI180
aI179
aI204
aI123
aI128
aI125
aI120
aI109
aI113
aI109
aI108
aI116
aI112
aI114
aI110
aI105
aI108
aI119
aI114
aI94
aI113
aI99
aI102
aI89
aI87
aI86
aI84
aI93
aI85
aI83
aI82
aI81
aI86
aI85
aI84
aI84
aI83
aI83
aI83
aI82
aI82
aI84
aI83
aI85
aI85
aI84
aI85
aI83
aI84
aI86
aI86
aI85
aI85
aI85
aI84
aI84
aI84
aI83
aI83
aI84
aI83
aI83
aI83
aI83
aI83
aI83
aI82
aI82
aI82
aI82
aI83
aI82
aI82
aI82
aI82
aI82
aI83
aI82
aI82
aI82
aI82
aI82
aI82
aI82
aI82
aI81
aI81
aI82
aI82
aI82
aI81
aI82
aI81
aI82
aI82
aI81
aI81
aI81
aI81
aI81
aI81
aI81
aI81
aI81
aI81
aI81
aI81
aI81
aI82
aI82
aI82
aI82
aI82
aI82
aI82
aI82
aI82
aI82
aI82
aI82
aI82
aI82
aI82
aI82
aI82
aI82
aI82
aI82
aI82
aI82
aI82
aI82
aI82
aI82
aI82
aI82
aI81
assg9
(dp34
g5
(lp35
I0
aI100
aI200
aI300
aI400
aI500
aI600
aI700
aI800
aI900
aI1000
aI1100
aI1200
aI1300
aI1400
aI1500
aI1600
aI1700
aI1800
aI1900
aI2000
aI2100
aI2200
aI2300
aI2400
aI2500
aI2600
aI2700
aI2800
aI2900
aI3000
aI3100
aI3200
aI3300
aI3400
aI3500
aI3600
aI3700
aI3800
aI3900
aI4000
aI4100
aI4200
aI4300
aI4400
aI4500
aI4600
aI4700
aI4800
aI4900
aI5000
aI5100
aI5200
aI5300
aI5400
aI5500
aI5600
aI5700
aI5800
aI5900
aI6000
aI6100
aI6200
aI6300
aI6400
aI6500
aI6600
aI6700
aI6800
aI6900
aI7000
aI7100
aI7200
aI7300
aI7400
aI7500
aI7600
aI7700
aI7800
aI7900
aI8000
aI8100
aI8200
aI8300
aI8400
aI8500
aI8600
aI8700
aI8800
aI8900
aI9000
aI9100
aI9200
aI9300
aI9400
aI9500
aI9600
aI9700
aI9800
aI9900
aI10000
aI10100
aI10200
aI10300
aI10400
aI10500
aI10600
aI10700
aI10800
aI10900
aI11000
aI11100
aI11200
aI11300
aI11400
aI11500
aI11600
aI11700
aI11800
aI11900
aI12000
aI12100
aI12200
aI12300
aI12400
aI12500
aI12600
aI12700
aI12800
aI12900
aI13000
aI13100
aI13200
aI13300
aI13400
aI13500
aI13600
aI13700
aI13800
asg9
(lp36
I0
aI8
aI10
aI12
aI19
aI25
aI32
aI35
aI36
aI36
aI38
aI40
aI41
aI46
aI47
aI48
aI50
aI50
aI54
aI58
aI61
aI62
aI63
aI63
aI63
aI65
aI68
aI70
aI70
aI70
aI70
aI71
aI71
aI72
aI74
aI76
aI76
aI76
aI77
aI77
aI77
aI77
aI77
aI78
aI78
aI79
aI79
aI79
aI79
aI79
aI79
aI80
aI80
aI80
aI80
aI80
aI80
aI80
aI80
aI80
aI80
aI80
aI80
aI80
aI80
aI80
aI80
aI80
aI80
aI80
aI80
aI80
aI80
aI80
aI80
aI80
aI80
aI80
aI80
aI80
aI80
aI80
aI80
aI80
aI80
aI80
aI80
aI80
aI80
aI80
aI80
aI80
aI80
aI80
aI80
aI80
aI80
aI80
aI80
aI80
aI80
aI80
aI80
aI80
aI80
aI80
aI80
aI80
aI80
aI80
aI81
aI81
aI81
aI81
aI81
aI81
aI81
aI81
aI81
aI81
aI81
aI81
aI81
aI81
aI81
aI81
aI81
aI81
aI81
aI81
aI81
aI81
aI81
aI81
aI81
aI81
aI81
aI81
aI81
asssS'Arbitrary Code'
p37
(dp38
g3
(dp39
g5
(lp40
I100
aI200
aI300
aI400
aI500
aI600
aI700
aI800
aI900
aI1000
aI1100
aI1200
aI1300
aI1400
aI1500
aI1600
aI1700
aI1800
aI1900
aI2000
aI2100
aI2200
aI2300
aI2400
aI2500
aI2600
aI2700
aI2800
aI2900
aI3000
aI3100
aI3200
aI3300
aI3400
aI3500
aI3600
aI3700
aI3800
aI3900
aI4000
aI4100
aI4200
aI4300
aI4400
aI4500
aI4600
aI4700
aI4800
aI4900
aI5000
aI5100
aI5200
aI5300
aI5400
aI5500
aI5600
aI5700
aI5800
aI5900
aI6000
aI6100
aI6200
aI6300
aI6400
aI6500
aI6600
aI6700
aI6800
aI6900
aI7000
aI7100
aI7200
aI7300
aI7400
aI7500
aI7600
aI7700
aI7800
aI7900
aI8000
aI8100
aI8200
aI8300
aI8400
aI8500
aI8600
aI8700
aI8800
aI8900
aI9000
aI9100
aI9200
aI9300
aI9400
aI9500
aI9600
aI9700
aI9800
aI9900
aI10000
aI10100
aI10200
aI10300
aI10400
aI10500
aI10600
aI10700
aI10800
aI10900
aI11000
aI11100
aI11200
aI11300
aI11400
aI11500
aI11600
aI11700
aI11800
aI11900
aI12000
aI12100
aI12200
aI12300
aI12400
aI12500
aI12600
aI12700
aI12800
aI12900
aI13000
aI13100
aI13200
aI13300
aI13400
aI13500
aI13600
aI13700
aI13800
aI13900
aI14000
aI14100
aI14200
aI14300
aI14400
aI14500
aI14600
aI14700
aI14800
aI14900
aI15000
aI15100
aI15200
aI15300
aI15400
aI15500
aI15600
aI15700
aI15800
aI15900
aI16000
aI16100
aI16200
aI16300
aI16400
aI16500
aI16600
aI16700
aI16800
aI16900
aI17000
aI17100
aI17200
aI17300
aI17400
asg7
(lp41
I245
aI294
aI317
aI338
aI110
aI100
aI106
aI102
aI99
aI106
aI112
aI113
aI113
aI123
aI115
aI128
aI122
aI121
aI115
aI118
aI114
aI120
aI123
aI126
aI142
aI141
aI156
aI135
aI140
aI112
aI112
aI130
aI119
aI111
aI110
aI109
aI108
aI106
aI107
aI107
aI107
aI110
aI112
aI114
aI120
aI118
aI117
aI126
aI121
aI122
aI120
aI121
aI120
aI119
aI119
aI118
aI118
aI118
aI120
aI117
aI119
aI118
aI119
aI118
aI118
aI118
aI118
aI118
aI117
aI117
aI117
aI117
aI116
aI118
aI118
aI118
aI117
aI117
aI117
aI117
aI117
aI117
aI116
aI117
aI116
aI116
aI116
aI116
aI116
aI116
aI116
aI117
aI116
aI116
aI116
aI116
aI116
aI120
aI120
aI119
aI119
aI118
aI118
aI118
aI118
aI118
aI120
aI120
aI120
aI120
aI120
aI120
aI120
aI120
aI120
aI119
aI119
aI119
aI119
aI119
aI119
aI119
aI118
aI118
aI118
aI118
aI118
aI118
aI118
aI118
aI118
aI118
aI117
aI118
aI118
aI118
aI118
aI117
aI117
aI117
aI117
aI117
aI117
aI117
aI117
aI117
aI117
aI117
aI117
aI117
aI117
aI117
aI117
aI117
aI117
aI117
aI117
aI117
aI117
aI117
aI117
aI117
aI117
aI117
aI116
aI116
aI116
aI116
aI117
aI119
aI119
aI119
aI119
aI118
assg9
(dp42
g5
(lp43
I0
aI100
aI200
aI300
aI400
aI500
aI600
aI700
aI800
aI900
aI1000
aI1100
aI1200
aI1300
aI1400
aI1500
aI1600
aI1700
aI1800
aI1900
aI2000
aI2100
aI2200
aI2300
aI2400
aI2500
aI2600
aI2700
aI2800
aI2900
aI3000
aI3100
aI3200
aI3300
aI3400
aI3500
aI3600
aI3700
aI3800
aI3900
aI4000
aI4100
aI4200
aI4300
aI4400
aI4500
aI4600
aI4700
aI4800
aI4900
aI5000
aI5100
aI5200
aI5300
aI5400
aI5500
aI5600
aI5700
aI5800
aI5900
aI6000
aI6100
aI6200
aI6300
aI6400
aI6500
aI6600
aI6700
aI6800
aI6900
aI7000
aI7100
aI7200
aI7300
aI7400
aI7500
aI7600
aI7700
aI7800
aI7900
aI8000
aI8100
aI8200
aI8300
aI8400
aI8500
aI8600
aI8700
aI8800
aI8900
aI9000
aI9100
aI9200
aI9300
aI9400
aI9500
aI9600
aI9700
aI9800
aI9900
aI10000
aI10100
aI10200
aI10300
aI10400
aI10500
aI10600
aI10700
aI10800
aI10900
aI11000
aI11100
aI11200
aI11300
aI11400
aI11500
aI11600
aI11700
aI11800
aI11900
aI12000
aI12100
aI12200
aI12300
aI12400
aI12500
aI12600
aI12700
aI12800
aI12900
aI13000
aI13100
aI13200
aI13300
aI13400
aI13500
aI13600
aI13700
aI13800
aI13900
aI14000
aI14100
aI14200
aI14300
aI14400
aI14500
aI14600
aI14700
aI14800
aI14900
aI15000
aI15100
aI15200
aI15300
aI15400
aI15500
aI15600
aI15700
aI15800
aI15900
aI16000
aI16100
aI16200
aI16300
aI16400
aI16500
aI16600
aI16700
aI16800
aI16900
aI17000
aI17100
aI17200
aI17300
aI17400
asg9
(lp44
I0
aI16
aI17
aI17
aI19
aI25
aI26
aI31
aI32
aI33
aI38
aI44
aI46
aI49
aI55
aI55
aI60
aI61
aI63
aI65
aI67
aI68
aI71
aI74
aI77
aI80
aI83
aI85
aI85
aI86
aI86
aI86
aI88
aI88
aI90
aI91
aI95
aI96
aI96
aI96
aI96
aI97
aI98
aI101
aI103
aI107
aI109
aI109
aI111
aI111
aI112
aI112
aI112
aI112
aI112
aI112
aI112
aI112
aI112
aI112
aI112
aI112
aI112
aI113
aI113
aI113
aI113
aI113
aI113
aI113
aI113
aI113
aI113
aI113
aI114
aI114
aI114
aI114
aI114
aI114
aI114
aI114
aI114
aI114
aI114
aI114
aI114
aI114
aI114
aI114
aI114
aI114
aI114
aI114
aI114
aI114
aI114
aI114
aI115
aI115
aI115
aI115
aI115
aI115
aI115
aI115
aI115
aI116
aI116
aI116
aI116
aI116
aI116
aI116
aI116
aI116
aI116
aI116
aI116
aI116
aI116
aI116
aI116
aI116
aI116
aI116
aI116
aI116
aI116
aI116
aI116
aI116
aI116
aI116
aI116
aI116
aI116
aI116
aI116
aI116
aI116
aI116
aI116
aI116
aI116
aI116
aI116
aI116
aI116
aI116
aI116
aI116
aI116
aI116
aI116
aI116
aI116
aI116
aI116
aI116
aI116
aI116
aI116
aI116
aI116
aI116
aI116
aI116
aI116
aI117
aI118
aI118
aI118
aI118
aI118
asss.