(dp0
S'all'
p1
(dp2
S'est'
p3
(dp4
S'x'
p5
(lp6
sS'semi'
p7
(lp8
ssS'pos'
p9
(dp10
g5
(lp11
I0
aI100
aI200
aI300
aI400
aI500
aI600
aI700
aI800
aI900
aI1000
aI1100
aI1200
aI1300
aI1400
aI1500
aI1600
aI1700
aI1800
aI1900
aI2000
aI2100
aI2200
aI2300
aI2400
aI2500
aI2600
aI2700
aI2800
aI2900
aI3000
aI3100
aI3200
aI3300
aI3400
aI3500
aI3600
aI3700
aI3800
aI3900
aI4000
aI4100
aI4200
aI4300
asg9
(lp12
I0
aI27
aI45
aI63
aI78
aI88
aI97
aI107
aI113
aI120
aI128
aI136
aI144
aI148
aI157
aI162
aI166
aI170
aI176
aI180
aI181
aI184
aI187
aI191
aI194
aI196
aI198
aI201
aI202
aI207
aI209
aI212
aI214
aI216
aI219
aI223
aI223
aI225
aI226
aI228
aI230
aI232
aI232
aI232
asssS'Improper Control of a Resource Through its Lifetime'
p13
(dp14
S'est'
p15
(dp16
S'x'
p17
(lp18
sS'semi'
p19
(lp20
ssS'pos'
p21
(dp22
g17
(lp23
I0
aI100
aI200
aI300
aI400
aI500
aI600
aI700
aI800
aI900
aI1000
aI1100
aI1200
aI1300
aI1400
aI1500
aI1600
aI1700
aI1800
aI1900
aI2000
aI2100
aI2200
aI2300
aI2400
aI2500
aI2600
aI2700
aI2800
aI2900
aI3000
aI3100
aI3200
aI3300
aI3400
aI3500
aI3600
aI3700
aI3800
aI3900
aI4000
aI4100
aI4200
aI4300
asg21
(lp24
I0
aI8
aI16
aI23
aI28
aI31
aI31
aI35
aI35
aI37
aI41
aI42
aI44
aI45
aI50
aI53
aI57
aI57
aI60
aI63
aI64
aI64
aI64
aI66
aI66
aI66
aI67
aI68
aI69
aI72
aI72
aI72
aI73
aI74
aI74
aI75
aI75
aI76
aI76
aI76
aI76
aI76
aI76
aI76
asssS'Code Quality'
p25
(dp26
S'est'
p27
(dp28
S'x'
p29
(lp30
sS'semi'
p31
(lp32
ssS'pos'
p33
(dp34
g29
(lp35
I0
aI100
aI200
aI300
aI400
aI500
aI600
aI700
aI800
aI900
aI1000
aI1100
aI1200
aI1300
aI1400
aI1500
aI1600
aI1700
aI1800
aI1900
aI2000
aI2100
aI2200
aI2300
aI2400
aI2500
aI2600
aI2700
aI2800
aI2900
aI3000
aI3100
aI3200
aI3300
aI3400
aI3500
aI3600
aI3700
aI3800
aI3900
aI4000
aI4100
aI4200
aI4300
asg33
(lp36
I0
aI6
aI9
aI11
aI16
aI18
aI20
aI20
aI21
aI23
aI23
aI23
aI23
aI24
aI25
aI25
aI25
aI25
aI25
aI25
aI25
aI25
aI26
aI26
aI26
aI26
aI26
aI26
aI26
aI27
aI27
aI27
aI27
aI27
aI28
aI29
aI29
aI29
aI29
aI29
aI29
aI29
aI29
aI29
asssS'Other'
p37
(dp38
S'est'
p39
(dp40
S'x'
p41
(lp42
sS'semi'
p43
(lp44
ssS'pos'
p45
(dp46
g41
(lp47
I0
aI100
aI200
aI300
aI400
aI500
aI600
aI700
aI800
aI900
aI1000
aI1100
aI1200
aI1300
aI1400
aI1500
aI1600
aI1700
aI1800
aI1900
aI2000
aI2100
aI2200
aI2300
aI2400
aI2500
aI2600
aI2700
aI2800
aI2900
aI3000
aI3100
aI3200
aI3300
aI3400
aI3500
aI3600
aI3700
aI3800
aI3900
aI4000
aI4100
aI4200
aI4300
asg45
(lp48
I0
aI1
aI2
aI4
aI6
aI6
aI6
aI8
aI10
aI14
aI15
aI17
aI18
aI18
aI19
aI19
aI19
aI19
aI21
aI21
aI21
aI22
aI22
aI23
aI23
aI23
aI23
aI24
aI24
aI26
aI26
aI27
aI27
aI27
aI27
aI27
aI27
aI27
aI27
aI28
aI28
aI28
aI28
aI28
asssS'Range Error'
p49
(dp50
S'est'
p51
(dp52
S'x'
p53
(lp54
sS'semi'
p55
(lp56
ssS'pos'
p57
(dp58
g53
(lp59
I0
aI100
aI200
aI300
aI400
aI500
aI600
aI700
aI800
aI900
aI1000
aI1100
aI1200
aI1300
aI1400
aI1500
aI1600
aI1700
aI1800
aI1900
aI2000
aI2100
aI2200
aI2300
aI2400
aI2500
aI2600
aI2700
aI2800
aI2900
aI3000
aI3100
aI3200
aI3300
aI3400
aI3500
aI3600
aI3700
aI3800
aI3900
aI4000
aI4100
aI4200
aI4300
asg57
(lp60
I0
aI2
aI4
aI5
aI5
aI5
aI8
aI9
aI10
aI11
aI12
aI12
aI14
aI15
aI16
aI17
aI17
aI18
aI18
aI19
aI19
aI20
aI20
aI20
aI21
aI22
aI22
aI22
aI22
aI22
aI22
aI24
aI24
aI25
aI25
aI25
aI25
aI25
aI25
aI25
aI25
aI26
aI26
aI26
asssS'Arbitrary Code'
p61
(dp62
S'est'
p63
(dp64
S'x'
p65
(lp66
sS'semi'
p67
(lp68
ssS'pos'
p69
(dp70
g65
(lp71
I0
aI100
aI200
aI300
aI400
aI500
aI600
aI700
aI800
aI900
aI1000
aI1100
aI1200
aI1300
aI1400
aI1500
aI1600
aI1700
aI1800
aI1900
aI2000
aI2100
aI2200
aI2300
aI2400
aI2500
aI2600
aI2700
aI2800
aI2900
aI3000
aI3100
aI3200
aI3300
aI3400
aI3500
aI3600
aI3700
aI3800
aI3900
aI4000
aI4100
aI4200
aI4300
asg69
(lp72
I0
aI17
aI24
aI33
aI38
aI43
aI48
aI52
aI54
aI55
aI58
aI64
aI68
aI69
aI70
aI71
aI72
aI75
aI77
aI77
aI77
aI78
aI80
aI81
aI83
aI84
aI85
aI86
aI86
aI86
aI88
aI88
aI89
aI90
aI92
aI94
aI94
aI95
aI96
aI97
aI99
aI100
aI100
aI100
asss.