(dp0
S'all'
p1
(dp2
S'est'
p3
(dp4
S'x'
p5
(lp6
I100
aI200
aI300
aI400
aI500
aI600
aI700
aI800
aI900
aI1000
aI1100
aI1200
aI1300
aI1400
aI1500
aI1600
aI1700
aI1800
aI1900
aI2000
aI2100
aI2200
aI2300
aI2400
aI2500
aI2600
aI2700
aI2800
aI2900
aI3000
aI3100
aI3200
aI3300
aI3400
aI3500
aI3600
aI3700
aI3800
aI3900
aI4000
aI4100
aI4200
aI4300
aI4400
aI4500
aI4600
aI4700
aI4800
aI4900
aI5000
aI5100
aI5200
aI5300
aI5400
aI5500
aI5600
aI5700
aI5800
aI5900
aI6000
aI6100
aI6200
aI6300
aI6400
aI6500
aI6600
aI6700
aI6800
aI6900
aI7000
aI7100
aI7200
aI7300
aI7400
aI7500
aI7600
aI7700
aI7800
aI7900
aI8000
aI8100
aI8200
aI8300
aI8400
aI8500
aI8600
aI8700
aI8800
aI8900
aI9000
aI9100
aI9200
aI9300
aI9400
aI9500
aI9600
aI9700
aI9800
aI9900
aI10000
aI10100
aI10200
aI10300
aI10400
aI10500
aI10600
aI10700
aI10800
aI10900
aI11000
aI11100
aI11200
aI11300
aI11400
aI11500
aI11600
aI11700
aI11800
aI11900
aI12000
aI12100
aI12200
aI12300
aI12400
aI12500
aI12600
aI12700
aI12800
aI12900
aI13000
aI13100
aI13200
aI13300
aI13400
aI13500
aI13600
aI13700
aI13800
aI13900
aI14000
aI14100
aI14200
aI14300
aI14400
aI14500
aI14600
aI14700
aI14800
aI14900
aI15000
aI15100
aI15200
aI15300
aI15400
aI15500
aI15600
aI15700
aI15800
aI15900
aI16000
aI16100
aI16200
aI16300
aI16400
aI16500
aI16600
aI16700
aI16800
aI16900
aI17000
aI17100
aI17200
aI17300
aI17400
aI17500
aI17600
aI17700
aI17800
aI17900
aI18000
aI18100
aI18200
aI18300
aI18400
aI18500
aI18600
aI18700
aI18800
aI18900
aI19000
aI19100
aI19200
aI19300
aI19400
aI19500
aI19600
aI19700
aI19800
aI19900
aI20000
aI20100
aI20200
aI20300
aI20400
aI20500
aI20600
aI20700
aI20800
aI20900
aI21000
aI21100
aI21200
aI21300
aI21400
aI21500
aI21600
aI21700
aI21800
aI21900
aI22000
aI22100
aI22200
aI22300
aI22400
aI22500
aI22600
aI22700
aI22800
aI22900
aI23000
aI23100
aI23200
aI23300
aI23400
aI23500
aI23600
aI23700
aI23800
aI23900
aI24000
aI24100
aI24200
aI24300
aI24400
aI24500
aI24600
aI24700
aI24800
aI24900
aI25000
aI25100
aI25200
aI25300
aI25400
aI25500
aI25600
aI25700
aI25800
aI25900
aI26000
aI26100
aI26200
aI26300
aI26400
aI26500
aI26600
aI26700
aI26800
aI26900
aI27000
aI27100
aI27200
aI27300
aI27400
aI27500
aI27600
aI27700
aI27800
aI27900
aI28000
aI28100
aI28200
aI28300
aI28400
aI28500
asS'semi'
p7
(lp8
F287.5
aF143.75
aF191.66666666666669
aF215.625
aF230.0
aF287.5
aF328.57142857142856
aF287.5
aF287.5
aF316.25
aF339.77272727272725
aF311.45833333333337
aF287.5
aF308.0357142857143
aF287.5
aF323.4375
aF304.4117647058823
aF287.5
aF317.7631578947368
aF301.875
aF287.5
aF287.5
aF287.5
aF299.47916666666663
aF310.5
aF309.6153846153846
aF340.7407407407407
aF328.57142857142856
aF327.15517241379314
aF316.25
aF315.3225806451613
aF314.453125
aF304.92424242424244
aF295.95588235294116
aF295.7142857142857
aF287.5
aF287.5
aF279.9342105263158
aF294.87179487179486
aF287.5
aF280.4878048780488
aF280.65476190476187
aF274.1279069767442
aF274.4318181818182
aF268.33333333333337
aF262.5
aF263.031914893617
aF263.5416666666667
aF264.030612244898
aF258.75
aF253.6764705882353
aF259.8557692307692
aF260.37735849056605
aF260.8796296296296
aF256.1363636363637
aF256.69642857142856
aF252.19298245614033
aF252.80172413793105
aF253.38983050847457
aF258.75
aF254.50819672131146
aF255.04032258064515
aF250.9920634920635
aF247.07031250000003
aF243.26923076923077
aF243.93939393939397
aF240.29850746268656
aF236.76470588235296
aF241.66666666666669
aF246.42857142857144
aF247.00704225352115
aF255.55555555555554
aF259.9315068493151
aF256.41891891891896
aF256.8333333333333
aF257.2368421052631
aF257.62987012987014
aF254.32692307692307
aF251.10759493670886
aF247.96875000000003
aF244.90740740740742
aF241.9207317073171
aF245.933734939759
aF243.00595238095238
aF240.14705882352945
aF240.69767441860466
aF251.1494252873563
aF251.56250000000003
aF248.73595505617976
aF249.16666666666666
aF252.74725274725276
aF256.25
aF256.5860215053763
aF253.8563829787234
aF254.21052631578945
aF254.55729166666666
aF260.82474226804123
aF258.16326530612247
aF255.55555555555554
aF253.00000000000003
aF253.34158415841583
aF256.4950980392157
aF259.5873786407767
aF257.09134615384613
aF254.64285714285714
aF257.6650943396226
aF260.63084112149534
aF258.21759259259255
aF258.48623853211006
aF256.1363636363637
aF259.009009009009
aF261.83035714285717
aF264.6017699115044
aF267.32456140350877
aF267.5
aF265.1939655172414
aF265.3846153846154
aF263.135593220339
aF263.34033613445376
aF261.14583333333337
aF261.3636363636364
aF263.9344262295082
aF261.7886178861789
aF268.95161290322585
aF266.8
aF264.6825396825397
aF267.1259842519685
aF269.53125
aF269.6705426356589
aF267.59615384615387
aF265.5534351145038
aF265.719696969697
aF263.72180451127815
aF266.04477611940297
aF266.2037037037037
aF264.24632352941177
aF264.4160583941606
aF262.5
aF260.6115107913669
aF258.75
aF258.95390070921985
aF257.13028169014086
aF255.33216783216784
aF253.55902777777777
aF255.77586206896552
aF254.02397260273975
aF252.29591836734693
aF254.47635135135135
aF252.76845637583892
aF253.00000000000003
aF255.13245033112585
aF259.1282894736842
aF261.1928104575164
aF263.23051948051943
aF267.09677419354836
aF269.0705128205128
aF269.187898089172
aF269.30379746835445
aF273.0345911949686
aF273.125
aF276.7857142857143
aF275.0771604938272
aF273.38957055214723
aF271.7225609756097
aF270.07575757575756
aF270.1807228915663
aF268.56287425149696
aF268.67559523809524
aF268.7869822485207
aF268.8970588235294
aF267.32456140350877
aF265.77034883720927
aF264.2341040462428
aF264.367816091954
aF264.5
aF266.26420454545456
aF266.3841807909605
aF268.1179775280899
aF268.2262569832402
aF271.52777777777777
aF273.2044198895028
aF273.282967032967
aF273.3606557377049
aF273.4375
aF273.51351351351354
aF273.58870967741933
aF273.6631016042781
aF273.7367021276596
aF272.28835978835974
aF272.3684210526316
aF272.4476439790576
aF272.5260416666667
aF271.1139896373057
aF269.7164948453608
aF268.33333333333337
aF268.4311224489796
aF268.5279187817259
aF270.07575757575756
aF270.16331658291455
aF270.25
aF271.76616915422886
aF274.69059405940595
aF273.3374384236453
aF271.99754901960785
aF272.0731707317073
aF273.54368932038835
aF273.61111111111114
aF275.0600961538462
aF273.74401913875596
aF275.17857142857144
aF275.2369668246446
aF276.6509433962264
aF278.05164319248826
aF276.7523364485981
aF276.80232558139534
aF275.5208333333333
aF276.9009216589862
aF276.94954128440367
aF276.99771689497715
aF277.0454545454545
aF275.7918552036199
aF274.5495495495495
aF275.89686098654704
aF275.9486607142857
aF278.55555555555554
aF279.8672566371681
aF278.63436123348015
aF277.4122807017544
aF278.71179039301313
aF277.5
aF280.03246753246754
aF281.3038793103448
aF280.09656652360513
aF281.3568376068376
aF280.1595744680851
aF280.1906779661017
aF281.4345991561181
aF282.66806722689074
aF281.4853556485356
aF280.3125
aF279.14937759336095
aF277.995867768595
aF279.2181069958848
aF281.608606557377
aF280.4591836734694
aF281.6565040650406
aF280.5161943319838
aF280.5443548387097
aF281.7269076305221
aF280.59999999999997
aF284.06374501992036
aF282.93650793650795
aF281.8181818181818
aF281.84055118110234
aF280.7352941176471
aF279.638671875
aF279.6692607003891
aF279.6996124031008
aF278.6196911196911
aF277.5480769230769
aF276.48467432950196
aF276.5267175572519
aF275.47528517110266
aF274.4318181818182
aF274.4811320754717
aF274.53007518796994
aF273.501872659176
aF274.6268656716418
aF276.81226765799255
aF276.85185185185185
aF275.83025830258305
aF277.98713235294116
aF276.96886446886447
aF275.9580291970803
aF276.0
aF276.0416666666667
aF276.08303249097474
aF275.08992805755395
aF275.13440860215053
aF274.1517857142857
aF273.1761565836299
aF273.2269503546099
aF273.2773851590106
aF272.3151408450704
aF272.3684210526316
assS'pos'
p9
(dp10
g5
(lp11
I0
aI100
aI200
aI300
aI400
aI500
aI600
aI700
aI800
aI900
aI1000
aI1100
aI1200
aI1300
aI1400
aI1500
aI1600
aI1700
aI1800
aI1900
aI2000
aI2100
aI2200
aI2300
aI2400
aI2500
aI2600
aI2700
aI2800
aI2900
aI3000
aI3100
aI3200
aI3300
aI3400
aI3500
aI3600
aI3700
aI3800
aI3900
aI4000
aI4100
aI4200
aI4300
aI4400
aI4500
aI4600
aI4700
aI4800
aI4900
aI5000
aI5100
aI5200
aI5300
aI5400
aI5500
aI5600
aI5700
aI5800
aI5900
aI6000
aI6100
aI6200
aI6300
aI6400
aI6500
aI6600
aI6700
aI6800
aI6900
aI7000
aI7100
aI7200
aI7300
aI7400
aI7500
aI7600
aI7700
aI7800
aI7900
aI8000
aI8100
aI8200
aI8300
aI8400
aI8500
aI8600
aI8700
aI8800
aI8900
aI9000
aI9100
aI9200
aI9300
aI9400
aI9500
aI9600
aI9700
aI9800
aI9900
aI10000
aI10100
aI10200
aI10300
aI10400
aI10500
aI10600
aI10700
aI10800
aI10900
aI11000
aI11100
aI11200
aI11300
aI11400
aI11500
aI11600
aI11700
aI11800
aI11900
aI12000
aI12100
aI12200
aI12300
aI12400
aI12500
aI12600
aI12700
aI12800
aI12900
aI13000
aI13100
aI13200
aI13300
aI13400
aI13500
aI13600
aI13700
aI13800
aI13900
aI14000
aI14100
aI14200
aI14300
aI14400
aI14500
aI14600
aI14700
aI14800
aI14900
aI15000
aI15100
aI15200
aI15300
aI15400
aI15500
aI15600
aI15700
aI15800
aI15900
aI16000
aI16100
aI16200
aI16300
aI16400
aI16500
aI16600
aI16700
aI16800
aI16900
aI17000
aI17100
aI17200
aI17300
aI17400
aI17500
aI17600
aI17700
aI17800
aI17900
aI18000
aI18100
aI18200
aI18300
aI18400
aI18500
aI18600
aI18700
aI18800
aI18900
aI19000
aI19100
aI19200
aI19300
aI19400
aI19500
aI19600
aI19700
aI19800
aI19900
aI20000
aI20100
aI20200
aI20300
aI20400
aI20500
aI20600
aI20700
aI20800
aI20900
aI21000
aI21100
aI21200
aI21300
aI21400
aI21500
aI21600
aI21700
aI21800
aI21900
aI22000
aI22100
aI22200
aI22300
aI22400
aI22500
aI22600
aI22700
aI22800
aI22900
aI23000
aI23100
aI23200
aI23300
aI23400
aI23500
aI23600
aI23700
aI23800
aI23900
aI24000
aI24100
aI24200
aI24300
aI24400
aI24500
aI24600
aI24700
aI24800
aI24900
aI25000
aI25100
aI25200
aI25300
aI25400
aI25500
aI25600
aI25700
aI25800
aI25900
aI26000
aI26100
aI26200
aI26300
aI26400
aI26500
aI26600
aI26700
aI26800
aI26900
aI27000
aI27100
aI27200
aI27300
aI27400
aI27500
aI27600
aI27700
aI27800
aI27900
aI28000
aI28100
aI28200
aI28300
aI28400
aI28500
aI28600
asg9
(lp12
I0
aI1
aI1
aI2
aI3
aI4
aI6
aI8
aI8
aI9
aI11
aI13
aI13
aI13
aI15
aI15
aI18
aI18
aI18
aI21
aI21
aI21
aI22
aI23
aI25
aI27
aI28
aI32
aI32
aI33
aI33
aI34
aI35
aI35
aI35
aI36
aI36
aI37
aI37
aI40
aI40
aI40
aI41
aI41
aI42
aI42
aI42
aI43
aI44
aI45
aI45
aI45
aI47
aI48
aI49
aI49
aI50
aI50
aI51
aI52
aI54
aI54
aI55
aI55
aI55
aI55
aI56
aI56
aI56
aI58
aI60
aI61
aI64
aI66
aI66
aI67
aI68
aI69
aI69
aI69
aI69
aI69
aI69
aI71
aI71
aI71
aI72
aI76
aI77
aI77
aI78
aI80
aI82
aI83
aI83
aI84
aI85
aI88
aI88
aI88
aI88
aI89
aI91
aI93
aI93
aI93
aI95
aI97
aI97
aI98
aI98
aI100
aI102
aI104
aI106
aI107
aI107
aI108
aI108
aI109
aI109
aI110
aI112
aI112
aI116
aI116
aI116
aI118
aI120
aI121
aI121
aI121
aI122
aI122
aI124
aI125
aI125
aI126
aI126
aI126
aI126
aI127
aI127
aI127
aI127
aI129
aI129
aI129
aI131
aI131
aI132
aI134
aI137
aI139
aI141
aI144
aI146
aI147
aI148
aI151
aI152
aI155
aI155
aI155
aI155
aI155
aI156
aI156
aI157
aI158
aI159
aI159
aI159
aI159
aI160
aI161
aI163
aI164
aI166
aI167
aI170
aI172
aI173
aI174
aI175
aI176
aI177
aI178
aI179
aI179
aI180
aI181
aI182
aI182
aI182
aI182
aI183
aI184
aI186
aI187
aI188
aI190
aI193
aI193
aI193
aI194
aI196
aI197
aI199
aI199
aI201
aI202
aI204
aI206
aI206
aI207
aI207
aI209
aI210
aI211
aI212
aI212
aI212
aI214
aI215
aI218
aI220
aI220
aI220
aI222
aI222
aI225
aI227
aI227
aI229
aI229
aI230
aI232
aI234
aI234
aI234
aI234
aI234
aI236
aI239
aI239
aI241
aI241
aI242
aI244
aI244
aI248
aI248
aI248
aI249
aI249
aI249
aI250
aI251
aI251
aI251
aI251
aI252
aI252
aI252
aI253
aI254
aI254
aI256
aI259
aI260
aI260
aI263
aI263
aI263
aI264
aI265
aI266
aI266
aI267
aI267
aI267
aI268
aI269
aI269
aI270
aI271
asssS'Improper Control of a Resource Through its Lifetime'
p13
(dp14
S'est'
p15
(dp16
S'x'
p17
(lp18
I100
aI200
aI300
aI400
aI500
aI600
aI700
aI800
aI900
aI1000
aI1100
aI1200
aI1300
aI1400
aI1500
aI1600
aI1700
aI1800
aI1900
aI2000
aI2100
aI2200
aI2300
aI2400
aI2500
aI2600
aI2700
aI2800
aI2900
aI3000
aI3100
aI3200
aI3300
aI3400
aI3500
aI3600
aI3700
aI3800
aI3900
aI4000
aI4100
aI4200
aI4300
aI4400
aI4500
aI4600
aI4700
aI4800
aI4900
aI5000
aI5100
aI5200
aI5300
aI5400
aI5500
aI5600
aI5700
aI5800
aI5900
aI6000
aI6100
aI6200
aI6300
aI6400
aI6500
aI6600
aI6700
aI6800
aI6900
aI7000
aI7100
aI7200
aI7300
aI7400
aI7500
aI7600
aI7700
aI7800
aI7900
aI8000
aI8100
aI8200
aI8300
aI8400
aI8500
aI8600
aI8700
aI8800
aI8900
aI9000
aI9100
aI9200
aI9300
aI9400
aI9500
aI9600
aI9700
aI9800
aI9900
aI10000
aI10100
aI10200
aI10300
aI10400
aI10500
aI10600
aI10700
aI10800
aI10900
aI11000
aI11100
aI11200
aI11300
aI11400
aI11500
aI11600
aI11700
aI11800
aI11900
aI12000
aI12100
aI12200
aI12300
aI12400
aI12500
aI12600
aI12700
aI12800
aI12900
aI13000
aI13100
aI13200
aI13300
aI13400
aI13500
aI13600
aI13700
aI13800
aI13900
aI14000
aI14100
aI14200
aI14300
aI14400
aI14500
aI14600
aI14700
aI14800
aI14900
aI15000
aI15100
aI15200
aI15300
aI15400
aI15500
aI15600
aI15700
aI15800
aI15900
aI16000
aI16100
aI16200
aI16300
aI16400
aI16500
aI16600
aI16700
aI16800
aI16900
aI17000
aI17100
aI17200
aI17300
aI17400
aI17500
aI17600
aI17700
aI17800
aI17900
aI18000
aI18100
aI18200
aI18300
aI18400
aI18500
aI18600
aI18700
aI18800
aI18900
aI19000
aI19100
aI19200
aI19300
aI19400
aI19500
aI19600
aI19700
aI19800
aI19900
aI20000
aI20100
aI20200
aI20300
aI20400
aI20500
aI20600
aI20700
aI20800
aI20900
aI21000
aI21100
aI21200
aI21300
aI21400
aI21500
aI21600
aI21700
aI21800
aI21900
aI22000
aI22100
aI22200
aI22300
aI22400
aI22500
aI22600
aI22700
aI22800
aI22900
aI23000
aI23100
aI23200
aI23300
aI23400
aI23500
aI23600
aI23700
aI23800
aI23900
aI24000
aI24100
aI24200
aI24300
aI24400
aI24500
aI24600
aI24700
aI24800
aI24900
aI25000
aI25100
aI25200
aI25300
aI25400
aI25500
aI25600
aI25700
aI25800
aI25900
aI26000
aI26100
aI26200
aI26300
aI26400
aI26500
aI26600
aI26700
aI26800
aI26900
aI27000
aI27100
aI27200
aI27300
aI27400
aI27500
aI27600
aI27700
aI27800
aI27900
aI28000
aI28100
aI28200
aI28300
aI28400
aI28500
asS'semi'
p19
(lp20
F0.0
aF0.0
aF0.0
aF0.0
aF0.0
aF95.83333333333334
aF123.21428571428572
aF107.8125
aF95.83333333333334
aF115.0
aF130.6818181818182
aF119.79166666666667
aF110.57692307692308
aF123.21428571428572
aF115.0
aF125.78125000000001
aF118.38235294117648
aF111.80555555555556
aF105.92105263157895
aF100.625
aF95.83333333333334
aF104.54545454545455
aF100.0
aF107.8125
aF103.5
aF99.51923076923077
aF117.12962962962962
aF112.94642857142858
aF109.05172413793103
aF105.41666666666667
aF102.01612903225806
aF107.8125
aF104.54545454545455
aF101.47058823529412
aF106.78571428571428
aF103.81944444444444
aF101.01351351351352
aF98.35526315789474
aF95.83333333333334
aF93.4375
aF91.15853658536587
aF88.98809523809524
aF86.91860465116278
aF91.47727272727273
aF89.44444444444444
aF87.5
aF85.63829787234043
aF83.85416666666667
aF82.14285714285714
aF80.5
aF78.92156862745098
aF77.40384615384615
aF75.9433962264151
aF74.53703703703704
aF73.18181818181819
aF77.00892857142857
aF75.65789473684211
aF79.3103448275862
aF82.83898305084746
aF86.25
aF84.8360655737705
aF83.46774193548387
aF82.14285714285714
aF80.859375
aF79.61538461538461
aF78.40909090909092
aF77.23880597014924
aF76.10294117647058
aF79.16666666666667
aF78.03571428571428
aF76.93661971830986
aF75.86805555555556
aF78.76712328767124
aF77.70270270270271
aF80.5
aF83.22368421052632
aF82.14285714285714
aF81.08974358974359
aF80.0632911392405
aF79.0625
aF78.08641975308642
aF77.13414634146342
aF76.20481927710843
aF75.29761904761905
aF74.41176470588236
aF76.88953488372094
aF79.3103448275862
aF81.67613636363636
aF80.75842696629213
aF79.86111111111111
aF82.14285714285714
aF84.375
aF83.46774193548387
aF82.57978723404256
aF84.73684210526316
aF86.84895833333333
aF85.95360824742268
aF85.0765306122449
aF84.21717171717172
aF83.375
aF82.54950495049505
aF84.55882352941177
aF83.73786407766991
aF82.9326923076923
aF82.14285714285714
aF84.08018867924528
aF83.2943925233645
aF82.52314814814815
aF81.76605504587157
aF81.02272727272727
aF82.88288288288288
aF82.14285714285714
aF81.41592920353982
aF80.7017543859649
aF80.0
aF79.3103448275862
aF78.63247863247864
aF77.96610169491525
aF77.3109243697479
aF76.66666666666666
aF76.03305785123968
aF77.76639344262296
aF77.13414634146342
aF83.46774193548387
aF82.80000000000001
aF82.14285714285714
aF83.75984251968504
aF87.59765625
aF86.91860465116278
aF86.25
aF85.59160305343511
aF84.94318181818181
aF84.30451127819549
aF83.67537313432835
aF85.18518518518518
aF84.55882352941177
aF83.94160583941606
aF83.33333333333333
aF82.7338129496403
aF82.14285714285714
aF83.59929078014184
aF83.01056338028168
aF82.43006993006993
aF81.85763888888889
aF81.29310344827586
aF80.73630136986301
aF80.18707482993197
aF81.58783783783784
aF81.04026845637584
aF80.5
aF83.7748344370861
aF83.22368421052632
aF82.6797385620915
aF82.14285714285714
aF83.46774193548387
aF84.77564102564102
aF86.06687898089172
aF85.52215189873418
aF84.98427672955975
aF84.453125
aF83.92857142857143
aF83.4104938271605
aF82.89877300613497
aF82.39329268292683
aF81.89393939393939
aF81.40060240963855
aF80.91317365269461
aF80.43154761904762
aF81.65680473372781
aF81.1764705882353
aF80.7017543859649
aF80.23255813953489
aF79.76878612716763
aF79.3103448275862
aF80.5
aF81.67613636363636
aF81.21468926553672
aF82.37359550561797
aF81.91340782122906
aF83.05555555555556
aF84.18508287292818
aF85.30219780219781
aF84.8360655737705
aF85.9375
aF85.47297297297297
aF85.01344086021506
aF84.55882352941177
aF85.63829787234043
aF85.18518518518518
aF84.73684210526316
aF84.29319371727749
aF85.3515625
aF84.90932642487046
aF84.47164948453609
aF84.03846153846155
aF83.60969387755102
aF83.18527918781726
aF82.76515151515152
aF82.34924623115577
aF81.9375
aF81.52985074626866
aF83.97277227722772
aF83.55911330049261
aF83.14950980392156
aF84.14634146341463
aF85.13349514563107
aF84.72222222222223
aF84.31490384615384
aF83.91148325358851
aF83.51190476190476
aF84.47867298578198
aF85.43632075471697
aF85.03521126760563
aF84.63785046728972
aF84.24418604651163
aF83.85416666666667
aF84.7926267281106
aF84.40366972477064
aF85.3310502283105
aF84.94318181818181
aF84.55882352941177
aF84.17792792792793
aF83.80044843049328
aF83.42633928571429
aF84.33333333333333
aF83.96017699115043
aF83.59030837004406
aF83.22368421052632
aF82.86026200873363
aF82.5
aF83.38744588744589
aF84.26724137931035
aF83.90557939914163
aF83.54700854700855
aF83.19148936170212
aF82.83898305084746
aF83.70253164556962
aF84.55882352941177
aF84.2050209205021
aF83.85416666666667
aF83.50622406639005
aF83.16115702479338
aF84.00205761316873
aF84.8360655737705
aF84.48979591836735
aF85.3150406504065
aF84.96963562753037
aF84.62701612903226
aF86.59638554216868
aF86.25
aF88.19721115537848
aF87.84722222222223
aF87.5
aF87.15551181102363
aF86.81372549019608
aF86.474609375
aF86.13813229571984
aF85.80426356589147
aF85.47297297297297
aF85.14423076923077
aF84.81800766283524
aF85.59160305343511
aF85.26615969581749
aF84.94318181818181
aF84.62264150943396
aF84.30451127819549
aF83.98876404494382
aF83.67537313432835
aF84.43308550185873
aF84.12037037037037
aF83.80996309963099
aF86.67279411764706
aF86.35531135531136
aF86.04014598540147
aF86.77272727272728
aF86.45833333333334
aF87.1841155234657
aF86.87050359712231
aF86.55913978494624
aF86.25
aF85.94306049822065
aF85.63829787234043
aF85.3356890459364
aF85.03521126760563
aF84.73684210526316
assS'pos'
p21
(dp22
g17
(lp23
I0
aI100
aI200
aI300
aI400
aI500
aI600
aI700
aI800
aI900
aI1000
aI1100
aI1200
aI1300
aI1400
aI1500
aI1600
aI1700
aI1800
aI1900
aI2000
aI2100
aI2200
aI2300
aI2400
aI2500
aI2600
aI2700
aI2800
aI2900
aI3000
aI3100
aI3200
aI3300
aI3400
aI3500
aI3600
aI3700
aI3800
aI3900
aI4000
aI4100
aI4200
aI4300
aI4400
aI4500
aI4600
aI4700
aI4800
aI4900
aI5000
aI5100
aI5200
aI5300
aI5400
aI5500
aI5600
aI5700
aI5800
aI5900
aI6000
aI6100
aI6200
aI6300
aI6400
aI6500
aI6600
aI6700
aI6800
aI6900
aI7000
aI7100
aI7200
aI7300
aI7400
aI7500
aI7600
aI7700
aI7800
aI7900
aI8000
aI8100
aI8200
aI8300
aI8400
aI8500
aI8600
aI8700
aI8800
aI8900
aI9000
aI9100
aI9200
aI9300
aI9400
aI9500
aI9600
aI9700
aI9800
aI9900
aI10000
aI10100
aI10200
aI10300
aI10400
aI10500
aI10600
aI10700
aI10800
aI10900
aI11000
aI11100
aI11200
aI11300
aI11400
aI11500
aI11600
aI11700
aI11800
aI11900
aI12000
aI12100
aI12200
aI12300
aI12400
aI12500
aI12600
aI12700
aI12800
aI12900
aI13000
aI13100
aI13200
aI13300
aI13400
aI13500
aI13600
aI13700
aI13800
aI13900
aI14000
aI14100
aI14200
aI14300
aI14400
aI14500
aI14600
aI14700
aI14800
aI14900
aI15000
aI15100
aI15200
aI15300
aI15400
aI15500
aI15600
aI15700
aI15800
aI15900
aI16000
aI16100
aI16200
aI16300
aI16400
aI16500
aI16600
aI16700
aI16800
aI16900
aI17000
aI17100
aI17200
aI17300
aI17400
aI17500
aI17600
aI17700
aI17800
aI17900
aI18000
aI18100
aI18200
aI18300
aI18400
aI18500
aI18600
aI18700
aI18800
aI18900
aI19000
aI19100
aI19200
aI19300
aI19400
aI19500
aI19600
aI19700
aI19800
aI19900
aI20000
aI20100
aI20200
aI20300
aI20400
aI20500
aI20600
aI20700
aI20800
aI20900
aI21000
aI21100
aI21200
aI21300
aI21400
aI21500
aI21600
aI21700
aI21800
aI21900
aI22000
aI22100
aI22200
aI22300
aI22400
aI22500
aI22600
aI22700
aI22800
aI22900
aI23000
aI23100
aI23200
aI23300
aI23400
aI23500
aI23600
aI23700
aI23800
aI23900
aI24000
aI24100
aI24200
aI24300
aI24400
aI24500
aI24600
aI24700
aI24800
aI24900
aI25000
aI25100
aI25200
aI25300
aI25400
aI25500
aI25600
aI25700
aI25800
aI25900
aI26000
aI26100
aI26200
aI26300
aI26400
aI26500
aI26600
aI26700
aI26800
aI26900
aI27000
aI27100
aI27200
aI27300
aI27400
aI27500
aI27600
aI27700
aI27800
aI27900
aI28000
aI28100
aI28200
aI28300
aI28400
aI28500
aI28600
asg21
(lp24
I0
aI0
aI0
aI0
aI0
aI0
aI2
aI3
aI3
aI3
aI4
aI5
aI5
aI5
aI6
aI6
aI7
aI7
aI7
aI7
aI7
aI7
aI8
aI8
aI9
aI9
aI9
aI11
aI11
aI11
aI11
aI11
aI12
aI12
aI12
aI13
aI13
aI13
aI13
aI13
aI13
aI13
aI13
aI13
aI14
aI14
aI14
aI14
aI14
aI14
aI14
aI14
aI14
aI14
aI14
aI14
aI15
aI15
aI16
aI17
aI18
aI18
aI18
aI18
aI18
aI18
aI18
aI18
aI18
aI19
aI19
aI19
aI19
aI20
aI20
aI21
aI22
aI22
aI22
aI22
aI22
aI22
aI22
aI22
aI22
aI22
aI23
aI24
aI25
aI25
aI25
aI26
aI27
aI27
aI27
aI28
aI29
aI29
aI29
aI29
aI29
aI29
aI30
aI30
aI30
aI30
aI31
aI31
aI31
aI31
aI31
aI32
aI32
aI32
aI32
aI32
aI32
aI32
aI32
aI32
aI32
aI32
aI33
aI33
aI36
aI36
aI36
aI37
aI39
aI39
aI39
aI39
aI39
aI39
aI39
aI40
aI40
aI40
aI40
aI40
aI40
aI41
aI41
aI41
aI41
aI41
aI41
aI41
aI42
aI42
aI42
aI44
aI44
aI44
aI44
aI45
aI46
aI47
aI47
aI47
aI47
aI47
aI47
aI47
aI47
aI47
aI47
aI47
aI47
aI48
aI48
aI48
aI48
aI48
aI48
aI49
aI50
aI50
aI51
aI51
aI52
aI53
aI54
aI54
aI55
aI55
aI55
aI55
aI56
aI56
aI56
aI56
aI57
aI57
aI57
aI57
aI57
aI57
aI57
aI57
aI57
aI57
aI59
aI59
aI59
aI60
aI61
aI61
aI61
aI61
aI61
aI62
aI63
aI63
aI63
aI63
aI63
aI64
aI64
aI65
aI65
aI65
aI65
aI65
aI65
aI66
aI66
aI66
aI66
aI66
aI66
aI67
aI68
aI68
aI68
aI68
aI68
aI69
aI70
aI70
aI70
aI70
aI70
aI71
aI72
aI72
aI73
aI73
aI73
aI75
aI75
aI77
aI77
aI77
aI77
aI77
aI77
aI77
aI77
aI77
aI77
aI77
aI78
aI78
aI78
aI78
aI78
aI78
aI78
aI79
aI79
aI79
aI82
aI82
aI82
aI83
aI83
aI84
aI84
aI84
aI84
aI84
aI84
aI84
aI84
aI84
aI85
asssS'Code Quality'
p25
(dp26
S'est'
p27
(dp28
S'x'
p29
(lp30
I100
aI200
aI300
aI400
aI500
aI600
aI700
aI800
aI900
aI1000
aI1100
aI1200
aI1300
aI1400
aI1500
aI1600
aI1700
aI1800
aI1900
aI2000
aI2100
aI2200
aI2300
aI2400
aI2500
aI2600
aI2700
aI2800
aI2900
aI3000
aI3100
aI3200
aI3300
aI3400
aI3500
aI3600
aI3700
aI3800
aI3900
aI4000
aI4100
aI4200
aI4300
aI4400
aI4500
aI4600
aI4700
aI4800
aI4900
aI5000
aI5100
aI5200
aI5300
aI5400
aI5500
aI5600
aI5700
aI5800
aI5900
aI6000
aI6100
aI6200
aI6300
aI6400
aI6500
aI6600
aI6700
aI6800
aI6900
aI7000
aI7100
aI7200
aI7300
aI7400
aI7500
aI7600
aI7700
aI7800
aI7900
aI8000
aI8100
aI8200
aI8300
aI8400
aI8500
aI8600
aI8700
aI8800
aI8900
aI9000
aI9100
aI9200
aI9300
aI9400
aI9500
aI9600
aI9700
aI9800
aI9900
aI10000
aI10100
aI10200
aI10300
aI10400
aI10500
aI10600
aI10700
aI10800
aI10900
aI11000
aI11100
aI11200
aI11300
aI11400
aI11500
aI11600
aI11700
aI11800
aI11900
aI12000
aI12100
aI12200
aI12300
aI12400
aI12500
aI12600
aI12700
aI12800
aI12900
aI13000
aI13100
aI13200
aI13300
aI13400
aI13500
aI13600
aI13700
aI13800
aI13900
aI14000
aI14100
aI14200
aI14300
aI14400
aI14500
aI14600
aI14700
aI14800
aI14900
aI15000
aI15100
aI15200
aI15300
aI15400
aI15500
aI15600
aI15700
aI15800
aI15900
aI16000
aI16100
aI16200
aI16300
aI16400
aI16500
aI16600
aI16700
aI16800
aI16900
aI17000
aI17100
aI17200
aI17300
aI17400
aI17500
aI17600
aI17700
aI17800
aI17900
aI18000
aI18100
aI18200
aI18300
aI18400
aI18500
aI18600
aI18700
aI18800
aI18900
aI19000
aI19100
aI19200
aI19300
aI19400
aI19500
aI19600
aI19700
aI19800
aI19900
aI20000
aI20100
aI20200
aI20300
aI20400
aI20500
aI20600
aI20700
aI20800
aI20900
aI21000
aI21100
aI21200
aI21300
aI21400
aI21500
aI21600
aI21700
aI21800
aI21900
aI22000
aI22100
aI22200
aI22300
aI22400
aI22500
aI22600
aI22700
aI22800
aI22900
aI23000
aI23100
aI23200
aI23300
aI23400
aI23500
aI23600
aI23700
aI23800
aI23900
aI24000
aI24100
aI24200
aI24300
aI24400
aI24500
aI24600
aI24700
aI24800
aI24900
aI25000
aI25100
aI25200
aI25300
aI25400
aI25500
aI25600
aI25700
aI25800
aI25900
aI26000
aI26100
aI26200
aI26300
aI26400
aI26500
aI26600
aI26700
aI26800
aI26900
aI27000
aI27100
aI27200
aI27300
aI27400
aI27500
aI27600
aI27700
aI27800
aI27900
aI28000
aI28100
aI28200
asS'semi'
p31
(lp32
F287.5
aF143.75
aF95.83333333333334
aF71.875
aF57.5
aF95.83333333333334
aF82.14285714285714
aF71.875
aF63.888888888888886
aF57.5
aF52.27272727272727
aF47.91666666666667
aF44.23076923076923
aF41.07142857142857
aF38.33333333333333
aF35.9375
aF33.8235294117647
aF31.944444444444443
aF30.263157894736842
aF28.75
aF27.38095238095238
aF26.136363636363637
aF25.0
aF23.958333333333336
aF23.0
aF33.17307692307693
aF31.944444444444443
aF30.80357142857143
aF29.74137931034483
aF28.75
aF27.822580645161292
aF26.953125
aF26.136363636363637
aF25.36764705882353
aF24.642857142857142
aF23.958333333333336
aF23.31081081081081
aF22.69736842105263
aF22.115384615384617
aF21.5625
aF21.036585365853657
aF27.38095238095238
aF26.74418604651163
aF26.136363636363637
aF25.555555555555557
aF25.0
aF30.585106382978722
aF29.947916666666668
aF29.336734693877553
aF28.75
aF28.186274509803923
aF38.70192307692307
aF37.97169811320755
aF42.59259259259259
aF41.81818181818181
aF41.07142857142857
aF40.35087719298245
aF39.6551724137931
aF43.855932203389834
aF43.125
aF42.41803278688525
aF41.733870967741936
aF41.07142857142857
aF40.4296875
aF39.80769230769231
aF39.20454545454546
aF38.61940298507462
aF38.05147058823529
aF37.5
aF36.964285714285715
aF36.443661971830984
aF35.9375
aF35.445205479452056
aF34.96621621621622
aF34.5
aF34.04605263157895
aF33.603896103896105
aF33.17307692307693
aF32.75316455696203
aF32.34375
aF31.944444444444443
aF31.55487804878049
aF31.174698795180724
aF30.80357142857143
aF30.441176470588232
aF30.087209302325583
aF29.74137931034483
aF29.403409090909093
aF29.07303370786517
aF28.75
aF28.434065934065934
aF28.125000000000004
aF27.822580645161292
aF27.52659574468085
aF27.236842105263158
aF26.953125
aF26.675257731958762
aF26.403061224489793
aF26.136363636363637
aF25.875
aF25.61881188118812
aF25.36764705882353
aF25.12135922330097
aF24.879807692307693
aF24.642857142857142
aF24.410377358490564
aF24.182242990654206
aF23.958333333333336
aF23.738532110091743
aF23.522727272727273
aF25.9009009009009
aF28.236607142857146
aF27.986725663716815
aF30.263157894736842
aF29.999999999999996
aF29.74137931034483
aF31.944444444444443
aF31.673728813559322
aF31.40756302521008
aF31.145833333333332
aF33.264462809917354
aF32.99180327868852
aF32.72357723577236
aF32.45967741935484
aF32.199999999999996
aF31.944444444444443
aF33.95669291338583
aF33.69140625
aF33.43023255813954
aF33.17307692307693
aF32.91984732824427
aF32.67045454545455
aF32.42481203007519
aF32.18283582089553
aF31.944444444444443
aF31.709558823529413
aF33.57664233576643
aF33.333333333333336
aF33.093525179856115
aF32.85714285714286
aF32.6241134751773
aF32.3943661971831
aF32.16783216783217
aF31.944444444444443
aF31.724137931034484
aF31.50684931506849
aF31.29251700680272
aF31.08108108108108
aF30.872483221476507
aF30.666666666666668
aF30.4635761589404
aF30.263157894736842
aF30.065359477124186
aF29.87012987012987
aF29.67741935483871
aF29.487179487179485
aF29.29936305732484
aF29.113924050632914
aF28.930817610062892
aF28.75
aF28.571428571428573
aF28.395061728395063
aF28.220858895705522
aF28.048780487804876
aF27.87878787878788
aF27.710843373493976
aF27.54491017964072
aF27.38095238095238
aF27.218934911242602
aF27.058823529411764
aF26.900584795321638
aF26.74418604651163
aF26.589595375722542
aF26.4367816091954
aF26.285714285714285
aF26.136363636363637
aF25.98870056497175
aF25.842696629213485
aF27.304469273743017
aF27.15277777777778
aF27.002762430939228
aF26.854395604395606
aF28.278688524590162
aF28.125000000000004
aF27.972972972972972
aF27.822580645161292
aF27.673796791443852
aF27.52659574468085
aF27.38095238095238
aF27.236842105263158
aF27.094240837696336
aF26.953125
aF26.813471502590673
aF26.675257731958762
aF26.538461538461537
aF26.403061224489793
aF26.269035532994923
aF26.136363636363637
aF26.00502512562814
aF25.875
aF25.746268656716417
aF25.61881188118812
aF25.492610837438423
aF25.36764705882353
aF25.243902439024392
aF25.12135922330097
aF25.0
aF26.26201923076923
aF26.136363636363637
aF26.011904761904763
aF25.88862559241706
aF25.766509433962263
aF25.645539906103288
aF25.52570093457944
aF25.406976744186046
aF25.28935185185185
aF25.172811059907833
aF26.376146788990827
aF26.255707762557076
aF27.44318181818182
aF27.31900452488688
aF27.195945945945944
aF27.073991031390136
aF26.953125
aF26.833333333333332
aF26.714601769911503
aF26.59691629955947
aF26.480263157894736
aF26.364628820960696
aF26.25
aF28.625541125541126
aF28.502155172413794
aF28.379828326180256
aF29.487179487179485
aF29.361702127659573
aF29.23728813559322
aF29.113924050632914
aF28.991596638655462
aF28.87029288702929
aF28.75
aF28.63070539419087
aF28.51239669421488
aF28.395061728395063
aF28.278688524590162
aF28.163265306122447
aF28.048780487804876
aF27.93522267206478
aF27.822580645161292
aF28.865461847389554
aF28.75
aF28.635458167330675
aF28.521825396825395
aF28.409090909090907
aF29.42913385826772
aF29.31372549019608
aF29.19921875
aF29.085603112840467
aF28.972868217054266
aF28.861003861003862
aF28.75
aF28.63984674329502
aF28.53053435114504
aF28.422053231939167
aF28.31439393939394
aF28.20754716981132
aF29.18233082706767
aF29.07303370786517
aF30.03731343283582
aF29.92565055762082
aF29.814814814814817
aF29.70479704797048
aF29.59558823529412
aF29.487179487179485
aF29.379562043795623
aF29.272727272727273
aF29.166666666666668
aF29.061371841155232
aF28.9568345323741
aF28.85304659498208
aF28.75
aF28.647686832740213
aF28.546099290780145
assS'pos'
p33
(dp34
g29
(lp35
I0
aI100
aI200
aI300
aI400
aI500
aI600
aI700
aI800
aI900
aI1000
aI1100
aI1200
aI1300
aI1400
aI1500
aI1600
aI1700
aI1800
aI1900
aI2000
aI2100
aI2200
aI2300
aI2400
aI2500
aI2600
aI2700
aI2800
aI2900
aI3000
aI3100
aI3200
aI3300
aI3400
aI3500
aI3600
aI3700
aI3800
aI3900
aI4000
aI4100
aI4200
aI4300
aI4400
aI4500
aI4600
aI4700
aI4800
aI4900
aI5000
aI5100
aI5200
aI5300
aI5400
aI5500
aI5600
aI5700
aI5800
aI5900
aI6000
aI6100
aI6200
aI6300
aI6400
aI6500
aI6600
aI6700
aI6800
aI6900
aI7000
aI7100
aI7200
aI7300
aI7400
aI7500
aI7600
aI7700
aI7800
aI7900
aI8000
aI8100
aI8200
aI8300
aI8400
aI8500
aI8600
aI8700
aI8800
aI8900
aI9000
aI9100
aI9200
aI9300
aI9400
aI9500
aI9600
aI9700
aI9800
aI9900
aI10000
aI10100
aI10200
aI10300
aI10400
aI10500
aI10600
aI10700
aI10800
aI10900
aI11000
aI11100
aI11200
aI11300
aI11400
aI11500
aI11600
aI11700
aI11800
aI11900
aI12000
aI12100
aI12200
aI12300
aI12400
aI12500
aI12600
aI12700
aI12800
aI12900
aI13000
aI13100
aI13200
aI13300
aI13400
aI13500
aI13600
aI13700
aI13800
aI13900
aI14000
aI14100
aI14200
aI14300
aI14400
aI14500
aI14600
aI14700
aI14800
aI14900
aI15000
aI15100
aI15200
aI15300
aI15400
aI15500
aI15600
aI15700
aI15800
aI15900
aI16000
aI16100
aI16200
aI16300
aI16400
aI16500
aI16600
aI16700
aI16800
aI16900
aI17000
aI17100
aI17200
aI17300
aI17400
aI17500
aI17600
aI17700
aI17800
aI17900
aI18000
aI18100
aI18200
aI18300
aI18400
aI18500
aI18600
aI18700
aI18800
aI18900
aI19000
aI19100
aI19200
aI19300
aI19400
aI19500
aI19600
aI19700
aI19800
aI19900
aI20000
aI20100
aI20200
aI20300
aI20400
aI20500
aI20600
aI20700
aI20800
aI20900
aI21000
aI21100
aI21200
aI21300
aI21400
aI21500
aI21600
aI21700
aI21800
aI21900
aI22000
aI22100
aI22200
aI22300
aI22400
aI22500
aI22600
aI22700
aI22800
aI22900
aI23000
aI23100
aI23200
aI23300
aI23400
aI23500
aI23600
aI23700
aI23800
aI23900
aI24000
aI24100
aI24200
aI24300
aI24400
aI24500
aI24600
aI24700
aI24800
aI24900
aI25000
aI25100
aI25200
aI25300
aI25400
aI25500
aI25600
aI25700
aI25800
aI25900
aI26000
aI26100
aI26200
aI26300
aI26400
aI26500
aI26600
aI26700
aI26800
aI26900
aI27000
aI27100
aI27200
aI27300
aI27400
aI27500
aI27600
aI27700
aI27800
aI27900
aI28000
aI28100
aI28200
aI28300
asg33
(lp36
I0
aI1
aI1
aI1
aI1
aI1
aI2
aI2
aI2
aI2
aI2
aI2
aI2
aI2
aI2
aI2
aI2
aI2
aI2
aI2
aI2
aI2
aI2
aI2
aI2
aI2
aI3
aI3
aI3
aI3
aI3
aI3
aI3
aI3
aI3
aI3
aI3
aI3
aI3
aI3
aI3
aI3
aI4
aI4
aI4
aI4
aI4
aI5
aI5
aI5
aI5
aI5
aI7
aI7
aI8
aI8
aI8
aI8
aI8
aI9
aI9
aI9
aI9
aI9
aI9
aI9
aI9
aI9
aI9
aI9
aI9
aI9
aI9
aI9
aI9
aI9
aI9
aI9
aI9
aI9
aI9
aI9
aI9
aI9
aI9
aI9
aI9
aI9
aI9
aI9
aI9
aI9
aI9
aI9
aI9
aI9
aI9
aI9
aI9
aI9
aI9
aI9
aI9
aI9
aI9
aI9
aI9
aI9
aI9
aI9
aI9
aI10
aI11
aI11
aI12
aI12
aI12
aI13
aI13
aI13
aI13
aI14
aI14
aI14
aI14
aI14
aI14
aI15
aI15
aI15
aI15
aI15
aI15
aI15
aI15
aI15
aI15
aI16
aI16
aI16
aI16
aI16
aI16
aI16
aI16
aI16
aI16
aI16
aI16
aI16
aI16
aI16
aI16
aI16
aI16
aI16
aI16
aI16
aI16
aI16
aI16
aI16
aI16
aI16
aI16
aI16
aI16
aI16
aI16
aI16
aI16
aI16
aI16
aI16
aI16
aI16
aI16
aI16
aI16
aI17
aI17
aI17
aI17
aI18
aI18
aI18
aI18
aI18
aI18
aI18
aI18
aI18
aI18
aI18
aI18
aI18
aI18
aI18
aI18
aI18
aI18
aI18
aI18
aI18
aI18
aI18
aI18
aI18
aI19
aI19
aI19
aI19
aI19
aI19
aI19
aI19
aI19
aI19
aI20
aI20
aI21
aI21
aI21
aI21
aI21
aI21
aI21
aI21
aI21
aI21
aI21
aI23
aI23
aI23
aI24
aI24
aI24
aI24
aI24
aI24
aI24
aI24
aI24
aI24
aI24
aI24
aI24
aI24
aI24
aI25
aI25
aI25
aI25
aI25
aI26
aI26
aI26
aI26
aI26
aI26
aI26
aI26
aI26
aI26
aI26
aI26
aI27
aI27
aI28
aI28
aI28
aI28
aI28
aI28
aI28
aI28
aI28
aI28
aI28
aI28
aI28
aI28
aI28
aI29
asssS'Other'
p37
(dp38
S'est'
p39
(dp40
S'x'
p41
(lp42
I100
aI200
aI300
aI400
aI500
aI600
aI700
aI800
aI900
aI1000
aI1100
aI1200
aI1300
aI1400
aI1500
aI1600
aI1700
aI1800
aI1900
aI2000
aI2100
aI2200
aI2300
aI2400
aI2500
aI2600
aI2700
aI2800
aI2900
aI3000
aI3100
aI3200
aI3300
aI3400
aI3500
aI3600
aI3700
aI3800
aI3900
aI4000
aI4100
aI4200
aI4300
aI4400
aI4500
aI4600
aI4700
aI4800
aI4900
aI5000
aI5100
aI5200
aI5300
aI5400
aI5500
aI5600
aI5700
aI5800
aI5900
aI6000
aI6100
aI6200
aI6300
aI6400
aI6500
aI6600
aI6700
aI6800
aI6900
aI7000
aI7100
aI7200
aI7300
aI7400
aI7500
aI7600
aI7700
aI7800
aI7900
aI8000
aI8100
aI8200
aI8300
aI8400
aI8500
aI8600
aI8700
aI8800
aI8900
aI9000
aI9100
aI9200
aI9300
aI9400
aI9500
aI9600
aI9700
aI9800
aI9900
aI10000
aI10100
aI10200
aI10300
aI10400
aI10500
aI10600
aI10700
aI10800
aI10900
aI11000
aI11100
aI11200
aI11300
aI11400
aI11500
aI11600
aI11700
aI11800
aI11900
aI12000
aI12100
aI12200
aI12300
aI12400
aI12500
aI12600
aI12700
aI12800
aI12900
aI13000
aI13100
aI13200
aI13300
aI13400
aI13500
aI13600
aI13700
aI13800
aI13900
aI14000
aI14100
aI14200
aI14300
aI14400
aI14500
aI14600
aI14700
aI14800
aI14900
aI15000
aI15100
aI15200
aI15300
aI15400
aI15500
aI15600
aI15700
aI15800
aI15900
aI16000
aI16100
aI16200
aI16300
aI16400
aI16500
aI16600
aI16700
aI16800
aI16900
aI17000
aI17100
aI17200
aI17300
aI17400
aI17500
aI17600
aI17700
aI17800
aI17900
aI18000
aI18100
aI18200
aI18300
aI18400
aI18500
aI18600
aI18700
aI18800
aI18900
aI19000
aI19100
aI19200
aI19300
aI19400
aI19500
aI19600
aI19700
aI19800
aI19900
aI20000
aI20100
aI20200
aI20300
aI20400
aI20500
aI20600
aI20700
aI20800
aI20900
aI21000
aI21100
aI21200
aI21300
aI21400
aI21500
aI21600
aI21700
aI21800
aI21900
aI22000
aI22100
aI22200
aI22300
aI22400
aI22500
aI22600
aI22700
aI22800
aI22900
aI23000
aI23100
aI23200
aI23300
aI23400
aI23500
aI23600
aI23700
aI23800
aI23900
aI24000
aI24100
aI24200
aI24300
aI24400
aI24500
aI24600
aI24700
aI24800
aI24900
aI25000
aI25100
aI25200
aI25300
aI25400
aI25500
aI25600
aI25700
aI25800
aI25900
aI26000
aI26100
aI26200
aI26300
aI26400
aI26500
aI26600
aI26700
aI26800
aI26900
aI27000
aI27100
aI27200
aI27300
aI27400
aI27500
aI27600
aI27700
aI27800
aI27900
aI28000
aI28100
asS'semi'
p43
(lp44
F0.0
aF0.0
aF0.0
aF0.0
aF57.5
aF47.91666666666667
aF41.07142857142857
aF35.9375
aF31.944444444444443
aF28.75
aF26.136363636363637
aF23.958333333333336
aF22.115384615384617
aF20.535714285714285
aF19.166666666666664
aF17.96875
aF16.91176470588235
aF15.972222222222221
aF30.263157894736842
aF28.75
aF27.38095238095238
aF26.136363636363637
aF25.0
aF23.958333333333336
aF23.0
aF22.115384615384617
aF21.296296296296294
aF20.535714285714285
aF19.82758620689655
aF19.166666666666664
aF27.822580645161292
aF26.953125
aF26.136363636363637
aF25.36764705882353
aF24.642857142857142
aF23.958333333333336
aF23.31081081081081
aF22.69736842105263
aF22.115384615384617
aF21.5625
aF21.036585365853657
aF20.535714285714285
aF20.058139534883722
aF19.60227272727273
aF19.166666666666664
aF18.75
aF18.351063829787233
aF17.96875
aF17.60204081632653
aF17.25
aF16.91176470588235
aF22.115384615384617
aF21.69811320754717
aF21.296296296296294
aF20.909090909090907
aF20.535714285714285
aF20.175438596491226
aF19.82758620689655
aF19.491525423728813
aF23.958333333333336
aF23.565573770491802
aF23.18548387096774
aF22.817460317460316
aF22.4609375
aF22.115384615384617
aF21.78030303030303
aF21.455223880597014
aF21.139705882352942
aF20.833333333333332
aF24.642857142857142
aF24.295774647887324
aF23.958333333333336
aF23.63013698630137
aF23.31081081081081
aF23.0
aF22.69736842105263
aF22.4025974025974
aF22.115384615384617
aF21.835443037974684
aF21.5625
aF21.296296296296294
aF21.036585365853657
aF24.246987951807228
aF23.958333333333336
aF23.676470588235293
aF23.401162790697676
aF23.132183908045977
aF22.869318181818183
aF22.6123595505618
aF22.36111111111111
aF22.115384615384617
aF25.0
aF24.731182795698924
aF24.46808510638298
aF24.210526315789476
aF23.958333333333336
aF23.711340206185568
aF23.46938775510204
aF23.232323232323232
aF23.0
aF25.61881188118812
aF25.36764705882353
aF25.12135922330097
aF24.879807692307693
aF24.642857142857142
aF24.410377358490564
aF24.182242990654206
aF23.958333333333336
aF23.738532110091743
aF23.522727272727273
aF23.31081081081081
aF23.10267857142857
aF22.898230088495577
aF22.69736842105263
aF22.5
aF22.30603448275862
aF22.115384615384617
aF21.927966101694917
aF21.743697478991596
aF21.5625
aF21.384297520661157
aF21.209016393442624
aF21.036585365853657
aF23.18548387096774
aF23.0
aF22.817460317460316
aF22.637795275590552
aF24.70703125
aF24.515503875968992
aF24.326923076923077
aF24.141221374045802
aF26.136363636363637
aF25.93984962406015
aF25.746268656716417
aF25.555555555555557
aF25.36764705882353
aF25.182481751824817
aF25.0
aF24.820143884892087
aF24.642857142857142
aF24.46808510638298
aF24.295774647887324
aF24.125874125874127
aF23.958333333333336
aF23.79310344827586
aF23.63013698630137
aF23.46938775510204
aF23.31081081081081
aF23.154362416107382
aF23.0
aF22.8476821192053
aF22.69736842105263
aF22.549019607843135
aF24.26948051948052
aF24.112903225806452
aF23.958333333333336
aF23.805732484076433
aF23.65506329113924
aF23.5062893081761
aF25.15625
aF26.785714285714285
aF26.62037037037037
aF26.457055214723926
aF26.295731707317074
aF26.136363636363637
aF25.978915662650603
aF25.823353293413174
aF25.669642857142858
aF27.218934911242602
aF27.058823529411764
aF26.900584795321638
aF26.74418604651163
aF26.589595375722542
aF26.4367816091954
aF26.285714285714285
aF26.136363636363637
aF25.98870056497175
aF25.842696629213485
aF25.69832402234637
aF25.555555555555557
aF25.414364640883978
aF25.274725274725274
aF25.136612021857925
aF26.5625
aF26.41891891891892
aF26.276881720430108
aF27.673796791443852
aF27.52659574468085
aF27.38095238095238
aF28.75
aF28.599476439790575
aF29.947916666666668
aF29.792746113989637
aF29.63917525773196
aF29.487179487179485
aF29.336734693877553
aF29.18781725888325
aF29.04040404040404
aF30.3391959798995
aF31.625000000000004
aF31.46766169154229
aF31.311881188118814
aF31.157635467980292
aF31.004901960784313
aF30.853658536585368
aF30.703883495145632
aF31.944444444444443
aF33.17307692307693
aF33.014354066985646
aF32.85714285714286
aF32.70142180094787
aF32.54716981132076
aF33.744131455399064
aF33.586448598130836
aF33.43023255813954
aF33.27546296296296
aF34.44700460829493
aF34.288990825688074
aF35.445205479452056
aF35.28409090909091
aF35.12443438914027
aF34.96621621621622
aF34.809417040358746
aF35.9375
aF35.77777777777778
aF36.891592920353986
aF36.72907488986784
aF36.56798245614035
aF36.40829694323144
aF36.25
aF36.09307359307359
aF35.9375
aF35.783261802575105
aF35.63034188034188
aF35.47872340425532
aF35.32838983050847
aF35.179324894514764
aF35.03151260504202
aF34.88493723849372
aF34.739583333333336
aF34.595435684647306
aF34.45247933884298
aF34.31069958847736
aF34.170081967213115
aF34.03061224489796
aF33.89227642276423
aF33.755060728744944
aF34.778225806451616
aF34.638554216867476
aF34.5
aF35.507968127490045
aF35.367063492063494
aF35.22727272727273
aF35.088582677165356
aF34.950980392156865
aF34.814453125
aF34.67898832684825
aF34.54457364341086
aF34.41119691119691
aF34.27884615384615
aF34.14750957854406
aF34.017175572519086
aF33.88783269961977
aF33.759469696969695
aF33.632075471698116
aF33.505639097744364
aF33.38014981273408
aF33.25559701492537
aF33.13197026022305
aF33.00925925925926
aF32.88745387453875
aF32.76654411764706
aF32.646520146520146
aF32.527372262773724
aF32.40909090909091
aF32.291666666666664
aF32.175090252707584
aF32.059352517985616
aF31.944444444444443
aF31.830357142857142
aF31.71708185053381
assS'pos'
p45
(dp46
g41
(lp47
I0
aI100
aI200
aI300
aI400
aI500
aI600
aI700
aI800
aI900
aI1000
aI1100
aI1200
aI1300
aI1400
aI1500
aI1600
aI1700
aI1800
aI1900
aI2000
aI2100
aI2200
aI2300
aI2400
aI2500
aI2600
aI2700
aI2800
aI2900
aI3000
aI3100
aI3200
aI3300
aI3400
aI3500
aI3600
aI3700
aI3800
aI3900
aI4000
aI4100
aI4200
aI4300
aI4400
aI4500
aI4600
aI4700
aI4800
aI4900
aI5000
aI5100
aI5200
aI5300
aI5400
aI5500
aI5600
aI5700
aI5800
aI5900
aI6000
aI6100
aI6200
aI6300
aI6400
aI6500
aI6600
aI6700
aI6800
aI6900
aI7000
aI7100
aI7200
aI7300
aI7400
aI7500
aI7600
aI7700
aI7800
aI7900
aI8000
aI8100
aI8200
aI8300
aI8400
aI8500
aI8600
aI8700
aI8800
aI8900
aI9000
aI9100
aI9200
aI9300
aI9400
aI9500
aI9600
aI9700
aI9800
aI9900
aI10000
aI10100
aI10200
aI10300
aI10400
aI10500
aI10600
aI10700
aI10800
aI10900
aI11000
aI11100
aI11200
aI11300
aI11400
aI11500
aI11600
aI11700
aI11800
aI11900
aI12000
aI12100
aI12200
aI12300
aI12400
aI12500
aI12600
aI12700
aI12800
aI12900
aI13000
aI13100
aI13200
aI13300
aI13400
aI13500
aI13600
aI13700
aI13800
aI13900
aI14000
aI14100
aI14200
aI14300
aI14400
aI14500
aI14600
aI14700
aI14800
aI14900
aI15000
aI15100
aI15200
aI15300
aI15400
aI15500
aI15600
aI15700
aI15800
aI15900
aI16000
aI16100
aI16200
aI16300
aI16400
aI16500
aI16600
aI16700
aI16800
aI16900
aI17000
aI17100
aI17200
aI17300
aI17400
aI17500
aI17600
aI17700
aI17800
aI17900
aI18000
aI18100
aI18200
aI18300
aI18400
aI18500
aI18600
aI18700
aI18800
aI18900
aI19000
aI19100
aI19200
aI19300
aI19400
aI19500
aI19600
aI19700
aI19800
aI19900
aI20000
aI20100
aI20200
aI20300
aI20400
aI20500
aI20600
aI20700
aI20800
aI20900
aI21000
aI21100
aI21200
aI21300
aI21400
aI21500
aI21600
aI21700
aI21800
aI21900
aI22000
aI22100
aI22200
aI22300
aI22400
aI22500
aI22600
aI22700
aI22800
aI22900
aI23000
aI23100
aI23200
aI23300
aI23400
aI23500
aI23600
aI23700
aI23800
aI23900
aI24000
aI24100
aI24200
aI24300
aI24400
aI24500
aI24600
aI24700
aI24800
aI24900
aI25000
aI25100
aI25200
aI25300
aI25400
aI25500
aI25600
aI25700
aI25800
aI25900
aI26000
aI26100
aI26200
aI26300
aI26400
aI26500
aI26600
aI26700
aI26800
aI26900
aI27000
aI27100
aI27200
aI27300
aI27400
aI27500
aI27600
aI27700
aI27800
aI27900
aI28000
aI28100
aI28200
asg45
(lp48
I0
aI0
aI0
aI0
aI0
aI1
aI1
aI1
aI1
aI1
aI1
aI1
aI1
aI1
aI1
aI1
aI1
aI1
aI1
aI2
aI2
aI2
aI2
aI2
aI2
aI2
aI2
aI2
aI2
aI2
aI2
aI3
aI3
aI3
aI3
aI3
aI3
aI3
aI3
aI3
aI3
aI3
aI3
aI3
aI3
aI3
aI3
aI3
aI3
aI3
aI3
aI3
aI4
aI4
aI4
aI4
aI4
aI4
aI4
aI4
aI5
aI5
aI5
aI5
aI5
aI5
aI5
aI5
aI5
aI5
aI6
aI6
aI6
aI6
aI6
aI6
aI6
aI6
aI6
aI6
aI6
aI6
aI6
aI7
aI7
aI7
aI7
aI7
aI7
aI7
aI7
aI7
aI8
aI8
aI8
aI8
aI8
aI8
aI8
aI8
aI8
aI9
aI9
aI9
aI9
aI9
aI9
aI9
aI9
aI9
aI9
aI9
aI9
aI9
aI9
aI9
aI9
aI9
aI9
aI9
aI9
aI9
aI9
aI9
aI10
aI10
aI10
aI10
aI11
aI11
aI11
aI11
aI12
aI12
aI12
aI12
aI12
aI12
aI12
aI12
aI12
aI12
aI12
aI12
aI12
aI12
aI12
aI12
aI12
aI12
aI12
aI12
aI12
aI12
aI13
aI13
aI13
aI13
aI13
aI13
aI14
aI15
aI15
aI15
aI15
aI15
aI15
aI15
aI15
aI16
aI16
aI16
aI16
aI16
aI16
aI16
aI16
aI16
aI16
aI16
aI16
aI16
aI16
aI16
aI17
aI17
aI17
aI18
aI18
aI18
aI19
aI19
aI20
aI20
aI20
aI20
aI20
aI20
aI20
aI21
aI22
aI22
aI22
aI22
aI22
aI22
aI22
aI23
aI24
aI24
aI24
aI24
aI24
aI25
aI25
aI25
aI25
aI26
aI26
aI27
aI27
aI27
aI27
aI27
aI28
aI28
aI29
aI29
aI29
aI29
aI29
aI29
aI29
aI29
aI29
aI29
aI29
aI29
aI29
aI29
aI29
aI29
aI29
aI29
aI29
aI29
aI29
aI29
aI30
aI30
aI30
aI31
aI31
aI31
aI31
aI31
aI31
aI31
aI31
aI31
aI31
aI31
aI31
aI31
aI31
aI31
aI31
aI31
aI31
aI31
aI31
aI31
aI31
aI31
aI31
aI31
aI31
aI31
aI31
aI31
aI31
aI31
aI32
asssS'Range Error'
p49
(dp50
S'est'
p51
(dp52
S'x'
p53
(lp54
I100
aI200
aI300
aI400
aI500
aI600
aI700
aI800
aI900
aI1000
aI1100
aI1200
aI1300
aI1400
aI1500
aI1600
aI1700
aI1800
aI1900
aI2000
aI2100
aI2200
aI2300
aI2400
aI2500
aI2600
aI2700
aI2800
aI2900
aI3000
aI3100
aI3200
aI3300
aI3400
aI3500
aI3600
aI3700
aI3800
aI3900
aI4000
aI4100
aI4200
aI4300
aI4400
aI4500
aI4600
aI4700
aI4800
aI4900
aI5000
aI5100
aI5200
aI5300
aI5400
aI5500
aI5600
aI5700
aI5800
aI5900
aI6000
aI6100
aI6200
aI6300
aI6400
aI6500
aI6600
aI6700
aI6800
aI6900
aI7000
aI7100
aI7200
aI7300
aI7400
aI7500
aI7600
aI7700
aI7800
aI7900
aI8000
aI8100
aI8200
aI8300
aI8400
aI8500
aI8600
aI8700
aI8800
aI8900
aI9000
aI9100
aI9200
aI9300
aI9400
aI9500
aI9600
aI9700
aI9800
aI9900
aI10000
aI10100
aI10200
aI10300
aI10400
aI10500
aI10600
aI10700
aI10800
aI10900
aI11000
aI11100
aI11200
aI11300
aI11400
aI11500
aI11600
aI11700
aI11800
aI11900
aI12000
aI12100
aI12200
aI12300
aI12400
aI12500
aI12600
aI12700
aI12800
aI12900
aI13000
aI13100
aI13200
aI13300
aI13400
aI13500
aI13600
aI13700
aI13800
aI13900
aI14000
aI14100
aI14200
aI14300
aI14400
aI14500
aI14600
aI14700
aI14800
aI14900
aI15000
aI15100
aI15200
aI15300
aI15400
aI15500
aI15600
aI15700
aI15800
aI15900
aI16000
aI16100
aI16200
aI16300
aI16400
aI16500
aI16600
aI16700
aI16800
aI16900
aI17000
aI17100
aI17200
aI17300
aI17400
aI17500
aI17600
aI17700
aI17800
aI17900
aI18000
aI18100
aI18200
aI18300
aI18400
aI18500
aI18600
aI18700
aI18800
aI18900
aI19000
aI19100
aI19200
aI19300
aI19400
aI19500
aI19600
aI19700
aI19800
aI19900
aI20000
aI20100
aI20200
aI20300
aI20400
aI20500
aI20600
aI20700
aI20800
aI20900
aI21000
aI21100
aI21200
aI21300
aI21400
aI21500
aI21600
aI21700
aI21800
aI21900
aI22000
aI22100
aI22200
aI22300
aI22400
aI22500
aI22600
aI22700
aI22800
aI22900
aI23000
aI23100
aI23200
aI23300
aI23400
aI23500
aI23600
aI23700
aI23800
aI23900
aI24000
aI24100
aI24200
aI24300
aI24400
aI24500
aI24600
aI24700
aI24800
aI24900
aI25000
aI25100
aI25200
aI25300
aI25400
aI25500
aI25600
aI25700
aI25800
aI25900
aI26000
aI26100
aI26200
aI26300
aI26400
aI26500
aI26600
aI26700
aI26800
aI26900
aI27000
aI27100
aI27200
aI27300
aI27400
aI27500
asS'semi'
p55
(lp56
F0.0
aF0.0
aF95.83333333333334
aF71.875
aF57.5
aF47.91666666666667
aF41.07142857142857
aF35.9375
aF31.944444444444443
aF28.75
aF26.136363636363637
aF23.958333333333336
aF22.115384615384617
aF20.535714285714285
aF19.166666666666664
aF35.9375
aF33.8235294117647
aF31.944444444444443
aF45.39473684210526
aF43.125
aF41.07142857142857
aF39.20454545454546
aF50.0
aF47.91666666666667
aF46.0
aF44.23076923076923
aF42.59259259259259
aF41.07142857142857
aF49.56896551724138
aF47.91666666666667
aF46.37096774193548
aF44.921875
aF43.56060606060606
aF42.279411764705884
aF41.07142857142857
aF39.93055555555556
aF38.851351351351354
aF37.828947368421055
aF36.85897435897436
aF35.9375
aF35.0609756097561
aF34.22619047619048
aF33.43023255813954
aF32.67045454545455
aF31.944444444444443
aF31.25
aF36.702127659574465
aF41.927083333333336
aF41.07142857142857
aF40.25
aF39.46078431372549
aF38.70192307692307
aF43.39622641509434
aF42.59259259259259
aF41.81818181818181
aF41.07142857142857
aF40.35087719298245
aF39.6551724137931
aF38.983050847457626
aF38.33333333333333
aF37.704918032786885
aF37.096774193548384
aF36.507936507936506
aF35.9375
aF35.38461538461539
aF34.84848484848485
aF34.32835820895522
aF33.8235294117647
aF37.5
aF36.964285714285715
aF40.49295774647887
aF39.93055555555556
aF39.38356164383562
aF38.851351351351354
aF38.33333333333333
aF37.828947368421055
aF37.33766233766234
aF36.85897435897436
aF36.39240506329114
aF35.9375
aF35.49382716049383
aF35.0609756097561
aF34.638554216867476
aF34.22619047619048
aF33.8235294117647
aF33.43023255813954
aF33.04597701149425
aF32.67045454545455
aF32.30337078651686
aF35.138888888888886
aF34.752747252747255
aF34.375
aF34.005376344086024
aF33.6436170212766
aF33.28947368421053
aF32.942708333333336
aF35.567010309278345
aF35.20408163265306
aF34.84848484848485
aF34.5
aF34.15841584158416
aF33.8235294117647
aF36.28640776699029
aF35.9375
aF35.595238095238095
aF35.259433962264154
aF34.929906542056074
aF34.60648148148148
aF34.288990825688074
aF33.97727272727273
aF33.67117117117117
aF33.370535714285715
aF35.61946902654867
aF37.828947368421055
aF37.5
aF37.17672413793103
aF36.85897435897436
aF36.54661016949152
aF36.23949579831933
aF35.9375
aF35.6404958677686
aF37.704918032786885
aF37.39837398373984
aF37.096774193548384
aF36.800000000000004
aF36.507936507936506
aF38.48425196850393
aF38.18359375
aF37.8875968992248
aF37.59615384615385
aF37.30916030534351
aF37.026515151515156
aF36.74812030075188
aF36.473880597014926
aF38.33333333333333
aF38.05147058823529
aF37.77372262773722
aF37.5
aF37.23021582733813
aF36.964285714285715
aF36.702127659574465
aF36.443661971830984
aF36.18881118881119
aF35.9375
aF35.689655172413794
aF35.445205479452056
aF35.20408163265306
aF34.96621621621622
aF34.73154362416107
aF34.5
aF34.271523178807946
aF34.04605263157895
aF35.70261437908497
aF37.33766233766234
aF37.096774193548384
aF36.85897435897436
aF36.624203821656046
aF38.212025316455694
aF37.97169811320755
aF37.734375
aF37.5
aF37.26851851851852
aF37.0398773006135
aF36.8140243902439
aF36.59090909090909
aF36.37048192771084
aF36.15269461077845
aF37.648809523809526
aF37.426035502958584
aF37.20588235294118
aF36.98830409356725
aF36.77325581395348
aF36.5606936416185
aF36.35057471264368
aF36.14285714285714
aF35.9375
aF35.73446327683616
aF37.14887640449438
aF36.94134078212291
aF38.33333333333333
aF38.12154696132597
aF37.91208791208791
aF37.704918032786885
aF37.5
aF37.2972972972973
aF37.096774193548384
aF36.898395721925134
aF36.702127659574465
aF36.507936507936506
aF36.31578947368421
aF36.12565445026178
aF35.9375
aF35.751295336787564
aF35.567010309278345
aF35.38461538461539
aF35.20408163265306
aF36.48477157360406
aF36.30050505050505
aF36.118090452261306
aF35.9375
aF37.189054726368155
aF37.004950495049506
aF36.822660098522164
aF36.6421568627451
aF36.46341463414634
aF37.682038834951456
aF37.5
aF37.31971153846154
aF37.14114832535885
aF36.964285714285715
aF36.789099526066344
aF36.615566037735846
aF36.443661971830984
aF36.273364485981304
aF36.1046511627907
aF35.9375
aF35.77188940092166
aF35.607798165137616
aF35.445205479452056
aF35.28409090909091
aF35.12443438914027
aF34.96621621621622
aF34.809417040358746
aF34.654017857142854
aF34.5
aF35.61946902654867
aF35.4625550660793
aF35.30701754385965
aF36.40829694323144
aF36.25
aF36.09307359307359
aF35.9375
aF35.783261802575105
aF35.63034188034188
aF35.47872340425532
aF35.32838983050847
aF36.39240506329114
aF36.23949579831933
aF36.08786610878661
aF35.9375
aF35.788381742738586
aF35.6404958677686
aF36.67695473251029
aF37.704918032786885
aF37.55102040816327
aF37.39837398373984
aF37.24696356275304
aF37.096774193548384
aF36.94779116465863
aF36.800000000000004
aF37.798804780876495
aF37.648809523809526
aF37.5
aF37.35236220472441
aF37.20588235294118
aF37.060546875
aF36.916342412451364
aF36.77325581395348
aF36.63127413127413
aF36.49038461538461
aF36.35057471264368
aF36.211832061068705
aF36.07414448669201
aF35.9375
aF35.801886792452834
aF35.66729323308271
aF35.53370786516854
aF35.401119402985074
aF36.33828996282528
aF36.2037037037037
aF36.07011070110701
aF35.9375
aF35.8058608058608
aF35.675182481751825
aF35.54545454545455
assS'pos'
p57
(dp58
g53
(lp59
I0
aI100
aI200
aI300
aI400
aI500
aI600
aI700
aI800
aI900
aI1000
aI1100
aI1200
aI1300
aI1400
aI1500
aI1600
aI1700
aI1800
aI1900
aI2000
aI2100
aI2200
aI2300
aI2400
aI2500
aI2600
aI2700
aI2800
aI2900
aI3000
aI3100
aI3200
aI3300
aI3400
aI3500
aI3600
aI3700
aI3800
aI3900
aI4000
aI4100
aI4200
aI4300
aI4400
aI4500
aI4600
aI4700
aI4800
aI4900
aI5000
aI5100
aI5200
aI5300
aI5400
aI5500
aI5600
aI5700
aI5800
aI5900
aI6000
aI6100
aI6200
aI6300
aI6400
aI6500
aI6600
aI6700
aI6800
aI6900
aI7000
aI7100
aI7200
aI7300
aI7400
aI7500
aI7600
aI7700
aI7800
aI7900
aI8000
aI8100
aI8200
aI8300
aI8400
aI8500
aI8600
aI8700
aI8800
aI8900
aI9000
aI9100
aI9200
aI9300
aI9400
aI9500
aI9600
aI9700
aI9800
aI9900
aI10000
aI10100
aI10200
aI10300
aI10400
aI10500
aI10600
aI10700
aI10800
aI10900
aI11000
aI11100
aI11200
aI11300
aI11400
aI11500
aI11600
aI11700
aI11800
aI11900
aI12000
aI12100
aI12200
aI12300
aI12400
aI12500
aI12600
aI12700
aI12800
aI12900
aI13000
aI13100
aI13200
aI13300
aI13400
aI13500
aI13600
aI13700
aI13800
aI13900
aI14000
aI14100
aI14200
aI14300
aI14400
aI14500
aI14600
aI14700
aI14800
aI14900
aI15000
aI15100
aI15200
aI15300
aI15400
aI15500
aI15600
aI15700
aI15800
aI15900
aI16000
aI16100
aI16200
aI16300
aI16400
aI16500
aI16600
aI16700
aI16800
aI16900
aI17000
aI17100
aI17200
aI17300
aI17400
aI17500
aI17600
aI17700
aI17800
aI17900
aI18000
aI18100
aI18200
aI18300
aI18400
aI18500
aI18600
aI18700
aI18800
aI18900
aI19000
aI19100
aI19200
aI19300
aI19400
aI19500
aI19600
aI19700
aI19800
aI19900
aI20000
aI20100
aI20200
aI20300
aI20400
aI20500
aI20600
aI20700
aI20800
aI20900
aI21000
aI21100
aI21200
aI21300
aI21400
aI21500
aI21600
aI21700
aI21800
aI21900
aI22000
aI22100
aI22200
aI22300
aI22400
aI22500
aI22600
aI22700
aI22800
aI22900
aI23000
aI23100
aI23200
aI23300
aI23400
aI23500
aI23600
aI23700
aI23800
aI23900
aI24000
aI24100
aI24200
aI24300
aI24400
aI24500
aI24600
aI24700
aI24800
aI24900
aI25000
aI25100
aI25200
aI25300
aI25400
aI25500
aI25600
aI25700
aI25800
aI25900
aI26000
aI26100
aI26200
aI26300
aI26400
aI26500
aI26600
aI26700
aI26800
aI26900
aI27000
aI27100
aI27200
aI27300
aI27400
aI27500
aI27600
asg57
(lp60
I0
aI0
aI0
aI1
aI1
aI1
aI1
aI1
aI1
aI1
aI1
aI1
aI1
aI1
aI1
aI1
aI2
aI2
aI2
aI3
aI3
aI3
aI3
aI4
aI4
aI4
aI4
aI4
aI4
aI5
aI5
aI5
aI5
aI5
aI5
aI5
aI5
aI5
aI5
aI5
aI5
aI5
aI5
aI5
aI5
aI5
aI5
aI6
aI7
aI7
aI7
aI7
aI7
aI8
aI8
aI8
aI8
aI8
aI8
aI8
aI8
aI8
aI8
aI8
aI8
aI8
aI8
aI8
aI8
aI9
aI9
aI10
aI10
aI10
aI10
aI10
aI10
aI10
aI10
aI10
aI10
aI10
aI10
aI10
aI10
aI10
aI10
aI10
aI10
aI10
aI11
aI11
aI11
aI11
aI11
aI11
aI11
aI12
aI12
aI12
aI12
aI12
aI12
aI13
aI13
aI13
aI13
aI13
aI13
aI13
aI13
aI13
aI13
aI14
aI15
aI15
aI15
aI15
aI15
aI15
aI15
aI15
aI16
aI16
aI16
aI16
aI16
aI17
aI17
aI17
aI17
aI17
aI17
aI17
aI17
aI18
aI18
aI18
aI18
aI18
aI18
aI18
aI18
aI18
aI18
aI18
aI18
aI18
aI18
aI18
aI18
aI18
aI18
aI19
aI20
aI20
aI20
aI20
aI21
aI21
aI21
aI21
aI21
aI21
aI21
aI21
aI21
aI21
aI22
aI22
aI22
aI22
aI22
aI22
aI22
aI22
aI22
aI22
aI23
aI23
aI24
aI24
aI24
aI24
aI24
aI24
aI24
aI24
aI24
aI24
aI24
aI24
aI24
aI24
aI24
aI24
aI24
aI25
aI25
aI25
aI25
aI26
aI26
aI26
aI26
aI26
aI27
aI27
aI27
aI27
aI27
aI27
aI27
aI27
aI27
aI27
aI27
aI27
aI27
aI27
aI27
aI27
aI27
aI27
aI27
aI27
aI28
aI28
aI28
aI29
aI29
aI29
aI29
aI29
aI29
aI29
aI29
aI30
aI30
aI30
aI30
aI30
aI30
aI31
aI32
aI32
aI32
aI32
aI32
aI32
aI32
aI33
aI33
aI33
aI33
aI33
aI33
aI33
aI33
aI33
aI33
aI33
aI33
aI33
aI33
aI33
aI33
aI33
aI33
aI34
aI34
aI34
aI34
aI34
aI34
aI34
aI35
asssS'Arbitrary Code'
p61
(dp62
S'est'
p63
(dp64
S'x'
p65
(lp66
I100
aI200
aI300
aI400
aI500
aI600
aI700
aI800
aI900
aI1000
aI1100
aI1200
aI1300
aI1400
aI1500
aI1600
aI1700
aI1800
aI1900
aI2000
aI2100
aI2200
aI2300
aI2400
aI2500
aI2600
aI2700
aI2800
aI2900
aI3000
aI3100
aI3200
aI3300
aI3400
aI3500
aI3600
aI3700
aI3800
aI3900
aI4000
aI4100
aI4200
aI4300
aI4400
aI4500
aI4600
aI4700
aI4800
aI4900
aI5000
aI5100
aI5200
aI5300
aI5400
aI5500
aI5600
aI5700
aI5800
aI5900
aI6000
aI6100
aI6200
aI6300
aI6400
aI6500
aI6600
aI6700
aI6800
aI6900
aI7000
aI7100
aI7200
aI7300
aI7400
aI7500
aI7600
aI7700
aI7800
aI7900
aI8000
aI8100
aI8200
aI8300
aI8400
aI8500
aI8600
aI8700
aI8800
aI8900
aI9000
aI9100
aI9200
aI9300
aI9400
aI9500
aI9600
aI9700
aI9800
aI9900
aI10000
aI10100
aI10200
aI10300
aI10400
aI10500
aI10600
aI10700
aI10800
aI10900
aI11000
aI11100
aI11200
aI11300
aI11400
aI11500
aI11600
aI11700
aI11800
aI11900
aI12000
aI12100
aI12200
aI12300
aI12400
aI12500
aI12600
aI12700
aI12800
aI12900
aI13000
aI13100
aI13200
aI13300
aI13400
aI13500
aI13600
aI13700
aI13800
aI13900
aI14000
aI14100
aI14200
aI14300
aI14400
aI14500
aI14600
aI14700
aI14800
aI14900
aI15000
aI15100
aI15200
aI15300
aI15400
aI15500
aI15600
aI15700
aI15800
aI15900
aI16000
aI16100
aI16200
aI16300
aI16400
aI16500
aI16600
aI16700
aI16800
aI16900
aI17000
aI17100
aI17200
aI17300
aI17400
aI17500
aI17600
aI17700
aI17800
aI17900
aI18000
aI18100
aI18200
aI18300
aI18400
aI18500
aI18600
aI18700
aI18800
aI18900
aI19000
aI19100
aI19200
aI19300
aI19400
aI19500
aI19600
aI19700
aI19800
aI19900
aI20000
aI20100
aI20200
aI20300
aI20400
aI20500
aI20600
aI20700
aI20800
aI20900
aI21000
aI21100
aI21200
aI21300
aI21400
aI21500
aI21600
aI21700
aI21800
aI21900
aI22000
aI22100
aI22200
aI22300
aI22400
aI22500
aI22600
aI22700
aI22800
aI22900
aI23000
aI23100
aI23200
aI23300
aI23400
aI23500
aI23600
aI23700
aI23800
aI23900
aI24000
aI24100
aI24200
aI24300
aI24400
aI24500
aI24600
aI24700
aI24800
aI24900
aI25000
aI25100
aI25200
aI25300
aI25400
aI25500
aI25600
aI25700
aI25800
aI25900
aI26000
aI26100
aI26200
aI26300
aI26400
aI26500
aI26600
aI26700
aI26800
aI26900
aI27000
aI27100
aI27200
aI27300
aI27400
aI27500
aI27600
aI27700
aI27800
aI27900
aI28000
aI28100
aI28200
aI28300
aI28400
asS'semi'
p67
(lp68
F0.0
aF0.0
aF0.0
aF71.875
aF115.0
aF143.75
aF164.28571428571428
aF143.75
aF159.72222222222223
aF172.5
aF182.95454545454547
aF167.70833333333334
aF154.8076923076923
aF164.28571428571428
aF153.33333333333331
aF161.71875
aF152.20588235294116
aF143.75
aF151.31578947368422
aF143.75
aF136.90476190476193
aF130.6818181818182
aF125.0
aF131.77083333333334
aF149.5
aF143.75
aF159.72222222222223
aF154.01785714285714
aF148.70689655172413
aF143.75
aF139.11290322580646
aF134.765625
aF130.6818181818182
aF126.83823529411765
aF131.42857142857144
aF127.77777777777777
aF132.09459459459458
aF128.61842105263156
aF147.43589743589743
aF143.75
aF140.2439024390244
aF136.90476190476193
aF133.72093023255815
aF130.6818181818182
aF127.77777777777777
aF125.0
aF122.34042553191489
aF119.79166666666667
aF123.21428571428572
aF120.74999999999999
aF118.38235294117648
aF116.10576923076923
aF113.91509433962263
aF111.80555555555556
aF109.77272727272728
aF107.8125
aF105.92105263157895
aF104.0948275862069
aF102.33050847457626
aF100.625
aF98.97540983606558
aF102.01612903225806
aF100.39682539682539
aF98.828125
aF97.3076923076923
aF100.18939393939394
aF98.69402985074628
aF97.24264705882352
aF95.83333333333334
aF98.57142857142857
aF97.1830985915493
aF107.8125
aF110.27397260273972
aF108.78378378378378
aF107.33333333333333
aF105.92105263157895
aF108.27922077922078
aF106.89102564102564
aF105.5379746835443
aF104.21875
aF102.9320987654321
aF101.67682926829269
aF103.91566265060241
aF102.67857142857143
aF101.47058823529412
aF100.29069767441861
aF109.05172413793103
aF107.8125
aF106.60112359550563
aF108.61111111111111
aF110.57692307692308
aF109.375
aF111.29032258064517
aF110.1063829787234
aF108.94736842105263
aF107.8125
aF112.62886597938143
aF111.4795918367347
aF110.35353535353535
aF109.25
aF108.16831683168317
aF112.74509803921569
aF114.44174757281553
aF113.34134615384615
aF112.26190476190476
aF113.91509433962263
aF118.22429906542055
aF117.12962962962962
aF118.69266055045873
aF117.61363636363637
aF116.55405405405406
aF118.08035714285714
aF119.5796460176991
aF118.53070175438596
aF119.99999999999999
aF118.96551724137932
aF117.94871794871794
aF116.94915254237289
aF118.38235294117648
aF117.39583333333331
aF116.42561983471073
aF117.82786885245902
aF116.86991869918701
aF118.24596774193549
aF117.30000000000001
aF116.3690476190476
aF115.45275590551181
aF114.55078125
aF115.89147286821706
aF115.0
aF114.12213740458016
aF113.25757575757576
aF112.406015037594
aF115.85820895522389
aF115.0
aF114.15441176470587
aF113.32116788321167
aF112.50000000000001
aF111.69064748201438
aF110.89285714285714
aF110.1063829787234
aF109.33098591549296
aF108.56643356643356
aF107.8125
aF111.0344827586207
aF110.27397260273972
aF109.52380952380952
aF110.72635135135135
aF109.98322147651007
aF111.16666666666667
aF110.43046357615894
aF115.3782894736842
aF116.50326797385621
aF117.61363636363637
aF122.41935483870968
aF123.4775641025641
aF122.69108280254777
aF121.91455696202533
aF126.57232704402516
aF127.57812499999999
aF130.35714285714283
aF129.55246913580248
aF128.75766871165644
aF127.97256097560974
aF127.1969696969697
aF128.16265060240966
aF127.39520958083833
aF126.63690476190474
aF125.88757396449705
aF126.83823529411765
aF126.09649122807016
aF125.36337209302326
aF124.63872832369941
aF125.57471264367815
aF124.85714285714286
aF125.78125000000001
aF126.69491525423729
aF125.98314606741575
aF125.27932960893854
aF126.18055555555557
aF127.0718232044199
aF126.37362637362638
aF125.68306010928961
aF125.0
aF125.87837837837839
aF126.74731182795699
aF127.60695187165776
aF126.9281914893617
aF126.25661375661376
aF125.59210526315789
aF126.43979057591623
aF125.78125000000001
aF125.12953367875649
aF124.48453608247424
aF123.84615384615384
aF124.6811224489796
aF124.04822335025382
aF126.32575757575756
aF125.69095477386935
aF125.06249999999999
aF125.87064676616916
aF126.67079207920791
aF126.04679802955665
aF125.42892156862746
aF124.81707317073172
aF125.60679611650485
aF125.0
aF124.39903846153847
aF123.80382775119617
aF125.95238095238096
aF125.35545023696683
aF126.12028301886792
aF126.87793427230048
aF126.28504672897195
aF127.03488372093024
aF126.44675925925927
aF125.86405529953916
aF125.28669724770643
aF124.71461187214612
aF124.14772727272728
aF123.58597285067874
aF123.02927927927927
aF125.0560538116592
aF124.49776785714285
aF126.50000000000001
aF125.94026548672565
aF125.38546255506607
aF124.83552631578947
aF125.54585152838428
aF125.0
aF125.7034632034632
aF126.40086206896552
aF125.85836909871246
aF126.54914529914531
aF126.01063829787233
aF126.69491525423729
aF126.16033755274262
aF126.83823529411765
aF126.30753138075315
aF125.78125000000001
aF125.25933609958507
aF124.74173553719008
aF124.22839506172838
aF124.89754098360656
aF124.38775510204083
aF125.05081300813008
aF124.54453441295546
aF124.04233870967742
aF125.85341365461846
aF125.35000000000001
aF125.99601593625499
aF125.49603174603175
aF125.0
aF124.50787401574803
aF124.01960784313725
aF123.53515625000001
aF124.17315175097276
aF124.80620155038758
aF124.32432432432432
aF123.84615384615384
aF123.37164750957855
aF122.90076335877863
aF122.43346007604563
aF121.96969696969698
aF122.5943396226415
aF122.13345864661653
aF121.67602996254682
aF122.294776119403
aF123.97769516728624
aF124.58333333333333
aF124.12361623616238
aF123.6672794117647
aF123.21428571428572
aF122.76459854014597
aF122.31818181818181
aF121.87500000000001
aF121.4350180505415
aF120.99820143884891
aF121.59498207885306
aF121.16071428571429
aF120.72953736654806
aF120.30141843971631
aF119.87632508833921
aF119.45422535211267
assS'pos'
p69
(dp70
g65
(lp71
I0
aI100
aI200
aI300
aI400
aI500
aI600
aI700
aI800
aI900
aI1000
aI1100
aI1200
aI1300
aI1400
aI1500
aI1600
aI1700
aI1800
aI1900
aI2000
aI2100
aI2200
aI2300
aI2400
aI2500
aI2600
aI2700
aI2800
aI2900
aI3000
aI3100
aI3200
aI3300
aI3400
aI3500
aI3600
aI3700
aI3800
aI3900
aI4000
aI4100
aI4200
aI4300
aI4400
aI4500
aI4600
aI4700
aI4800
aI4900
aI5000
aI5100
aI5200
aI5300
aI5400
aI5500
aI5600
aI5700
aI5800
aI5900
aI6000
aI6100
aI6200
aI6300
aI6400
aI6500
aI6600
aI6700
aI6800
aI6900
aI7000
aI7100
aI7200
aI7300
aI7400
aI7500
aI7600
aI7700
aI7800
aI7900
aI8000
aI8100
aI8200
aI8300
aI8400
aI8500
aI8600
aI8700
aI8800
aI8900
aI9000
aI9100
aI9200
aI9300
aI9400
aI9500
aI9600
aI9700
aI9800
aI9900
aI10000
aI10100
aI10200
aI10300
aI10400
aI10500
aI10600
aI10700
aI10800
aI10900
aI11000
aI11100
aI11200
aI11300
aI11400
aI11500
aI11600
aI11700
aI11800
aI11900
aI12000
aI12100
aI12200
aI12300
aI12400
aI12500
aI12600
aI12700
aI12800
aI12900
aI13000
aI13100
aI13200
aI13300
aI13400
aI13500
aI13600
aI13700
aI13800
aI13900
aI14000
aI14100
aI14200
aI14300
aI14400
aI14500
aI14600
aI14700
aI14800
aI14900
aI15000
aI15100
aI15200
aI15300
aI15400
aI15500
aI15600
aI15700
aI15800
aI15900
aI16000
aI16100
aI16200
aI16300
aI16400
aI16500
aI16600
aI16700
aI16800
aI16900
aI17000
aI17100
aI17200
aI17300
aI17400
aI17500
aI17600
aI17700
aI17800
aI17900
aI18000
aI18100
aI18200
aI18300
aI18400
aI18500
aI18600
aI18700
aI18800
aI18900
aI19000
aI19100
aI19200
aI19300
aI19400
aI19500
aI19600
aI19700
aI19800
aI19900
aI20000
aI20100
aI20200
aI20300
aI20400
aI20500
aI20600
aI20700
aI20800
aI20900
aI21000
aI21100
aI21200
aI21300
aI21400
aI21500
aI21600
aI21700
aI21800
aI21900
aI22000
aI22100
aI22200
aI22300
aI22400
aI22500
aI22600
aI22700
aI22800
aI22900
aI23000
aI23100
aI23200
aI23300
aI23400
aI23500
aI23600
aI23700
aI23800
aI23900
aI24000
aI24100
aI24200
aI24300
aI24400
aI24500
aI24600
aI24700
aI24800
aI24900
aI25000
aI25100
aI25200
aI25300
aI25400
aI25500
aI25600
aI25700
aI25800
aI25900
aI26000
aI26100
aI26200
aI26300
aI26400
aI26500
aI26600
aI26700
aI26800
aI26900
aI27000
aI27100
aI27200
aI27300
aI27400
aI27500
aI27600
aI27700
aI27800
aI27900
aI28000
aI28100
aI28200
aI28300
aI28400
aI28500
asg69
(lp72
I0
aI0
aI0
aI0
aI1
aI2
aI3
aI4
aI4
aI5
aI6
aI7
aI7
aI7
aI8
aI8
aI9
aI9
aI9
aI10
aI10
aI10
aI10
aI10
aI11
aI13
aI13
aI15
aI15
aI15
aI15
aI15
aI15
aI15
aI15
aI16
aI16
aI17
aI17
aI20
aI20
aI20
aI20
aI20
aI20
aI20
aI20
aI20
aI20
aI21
aI21
aI21
aI21
aI21
aI21
aI21
aI21
aI21
aI21
aI21
aI21
aI21
aI22
aI22
aI22
aI22
aI23
aI23
aI23
aI23
aI24
aI24
aI27
aI28
aI28
aI28
aI28
aI29
aI29
aI29
aI29
aI29
aI29
aI30
aI30
aI30
aI30
aI33
aI33
aI33
aI34
aI35
aI35
aI36
aI36
aI36
aI36
aI38
aI38
aI38
aI38
aI38
aI40
aI41
aI41
aI41
aI42
aI44
aI44
aI45
aI45
aI45
aI46
aI47
aI47
aI48
aI48
aI48
aI48
aI49
aI49
aI49
aI50
aI50
aI51
aI51
aI51
aI51
aI51
aI52
aI52
aI52
aI52
aI52
aI54
aI54
aI54
aI54
aI54
aI54
aI54
aI54
aI54
aI54
aI54
aI56
aI56
aI56
aI57
aI57
aI58
aI58
aI61
aI62
aI63
aI66
aI67
aI67
aI67
aI70
aI71
aI73
aI73
aI73
aI73
aI73
aI74
aI74
aI74
aI74
aI75
aI75
aI75
aI75
aI76
aI76
aI77
aI78
aI78
aI78
aI79
aI80
aI80
aI80
aI80
aI81
aI82
aI83
aI83
aI83
aI83
aI84
aI84
aI84
aI84
aI84
aI85
aI85
aI87
aI87
aI87
aI88
aI89
aI89
aI89
aI89
aI90
aI90
aI90
aI90
aI92
aI92
aI93
aI94
aI94
aI95
aI95
aI95
aI95
aI95
aI95
aI95
aI95
aI97
aI97
aI99
aI99
aI99
aI99
aI100
aI100
aI101
aI102
aI102
aI103
aI103
aI104
aI104
aI105
aI105
aI105
aI105
aI105
aI105
aI106
aI106
aI107
aI107
aI107
aI109
aI109
aI110
aI110
aI110
aI110
aI110
aI110
aI111
aI112
aI112
aI112
aI112
aI112
aI112
aI112
aI113
aI113
aI113
aI114
aI116
aI117
aI117
aI117
aI117
aI117
aI117
aI117
aI117
aI117
aI118
aI118
aI118
aI118
aI118
aI118
aI119
asss.