(dp0
S'Arbitrary Code'
p1
(dp2
S'est'
p3
(dp4
S'x'
p5
(lp6
sS'semi'
p7
(lp8
ssS'pos'
p9
(dp10
g5
(lp11
I0
aI1000
aI2000
aI3000
aI4000
aI5000
aI6000
aI7000
aI8000
aI9000
aI10000
aI11000
aI12000
aI13000
aI14000
aI15000
aI16000
aI17000
aI18000
asg9
(lp12
I0
aI3
aI7
aI10
aI25
aI25
aI46
aI85
aI99
aI105
aI108
aI110
aI110
aI113
aI115
aI116
aI116
aI117
aI118
asss.