(dp0
S'Arbitrary Code'
p1
(dp2
S'est'
p3
(dp4
S'x'
p5
(lp6
sS'semi'
p7
(lp8
ssS'pos'
p9
(dp10
g5
(lp11
I0
aI100
aI200
aI300
aI400
aI500
aI600
aI700
aI800
aI900
aI1000
aI1100
aI1200
aI1300
aI1400
aI1500
aI1600
aI1700
aI1800
aI1900
aI2000
aI2100
aI2200
aI2300
aI2400
aI2500
aI2600
aI2700
aI2800
aI2900
aI3000
aI3100
aI3200
aI3300
aI3400
aI3500
aI3600
aI3700
aI3800
aI3900
aI4000
aI4100
aI4200
aI4300
asg9
(lp12
I0
aI16
aI23
aI32
aI37
aI42
aI47
aI51
aI53
aI54
aI57
aI63
aI67
aI68
aI69
aI70
aI71
aI74
aI76
aI76
aI76
aI77
aI79
aI80
aI82
aI83
aI84
aI85
aI85
aI85
aI87
aI87
aI88
aI89
aI91
aI93
aI93
aI94
aI95
aI96
aI98
aI99
aI99
aI99
asss.