(dp0
S'Improper Control of a Resource Through its Lifetime'
p1
(dp2
S'est'
p3
(dp4
S'x'
p5
(lp6
sS'semi'
p7
(lp8
ssS'pos'
p9
(dp10
g5
(lp11
I0
aI1000
aI2000
aI3000
aI4000
aI5000
aI6000
aI7000
aI8000
aI9000
aI10000
aI11000
aI12000
aI13000
aI14000
aI15000
aI16000
aI17000
asg9
(lp12
I0
aI1
aI13
aI31
aI54
aI64
aI67
aI69
aI73
aI75
aI77
aI77
aI78
aI78
aI79
aI79
aI80
aI81
asssS'Arbitrary Code'
p13
(dp14
g3
(dp15
g5
(lp16
sg7
(lp17
ssg9
(dp18
g5
(lp19
I0
aI1000
aI2000
aI3000
aI4000
aI5000
aI6000
aI7000
aI8000
aI9000
aI10000
aI11000
aI12000
aI13000
aI14000
aI15000
asg9
(lp20
I0
aI3
aI15
aI60
aI83
aI85
aI95
aI101
aI106
aI108
aI108
aI111
aI113
aI115
aI116
aI118
asss.