(dp0
S'all'
p1
(dp2
S'est'
p3
(dp4
S'x'
p5
(lp6
I100
aI200
aI300
aI400
aI500
aI600
aI700
aI800
aI900
aI1000
aI1100
aI1200
aI1300
aI1400
aI1500
aI1600
aI1700
aI1800
aI1900
aI2000
aI2100
aI2200
aI2300
aI2400
aI2500
aI2600
aI2700
aI2800
aI2900
aI3000
aI3100
aI3200
aI3300
aI3400
aI3500
aI3600
aI3700
aI3800
aI3900
aI4000
aI4100
aI4200
aI4300
aI4400
aI4500
aI4600
aI4700
aI4800
aI4900
aI5000
aI5100
aI5200
aI5300
aI5400
aI5500
aI5600
aI5700
aI5800
aI5900
aI6000
aI6100
aI6200
aI6300
aI6400
aI6500
aI6600
aI6700
aI6800
aI6900
aI7000
aI7100
aI7200
aI7300
aI7400
aI7500
aI7600
aI7700
aI7800
aI7900
aI8000
aI8100
aI8200
aI8300
aI8400
aI8500
aI8600
aI8700
aI8800
aI8900
aI9000
aI9100
aI9200
aI9300
aI9400
aI9500
aI9600
aI9700
aI9800
aI9900
aI10000
aI10100
aI10200
aI10300
aI10400
aI10500
aI10600
aI10700
aI10800
aI10900
aI11000
aI11100
aI11200
aI11300
aI11400
aI11500
aI11600
aI11700
aI11800
aI11900
aI12000
aI12100
aI12200
aI12300
aI12400
aI12500
aI12600
aI12700
aI12800
aI12900
aI13000
aI13100
aI13200
aI13300
aI13400
aI13500
aI13600
aI13700
aI13800
aI13900
aI14000
aI14100
aI14200
aI14300
aI14400
aI14500
aI14600
aI14700
aI14800
aI14900
aI15000
aI15100
aI15200
aI15300
aI15400
aI15500
aI15600
aI15700
aI15800
aI15900
aI16000
aI16100
aI16200
aI16300
aI16400
aI16500
aI16600
aI16700
aI16800
aI16900
aI17000
aI17100
aI17200
aI17300
aI17400
aI17500
aI17600
aI17700
aI17800
aI17900
aI18000
aI18100
aI18200
aI18300
aI18400
aI18500
aI18600
aI18700
aI18800
aI18900
aI19000
aI19100
aI19200
aI19300
aI19400
aI19500
aI19600
aI19700
aI19800
aI19900
aI20000
aI20100
aI20200
aI20300
aI20400
aI20500
aI20600
aI20700
aI20800
aI20900
aI21000
aI21100
aI21200
aI21300
aI21400
aI21500
aI21600
aI21700
aI21800
aI21900
asS'semi'
p7
(lp8
I219
aI173
aI188
aI199
aI208
aI207
aI209
aI206
aI222
aI226
aI231
aI231
aI235
aI236
aI243
aI239
aI250
aI255
aI251
aI244
aI250
aI250
aI241
aI264
aI283
aI252
aI265
aI255
aI237
aI237
aI237
aI255
aI262
aI254
aI252
aI248
aI282
aI280
aI279
aI287
aI282
aI287
aI295
aI287
aI302
aI298
aI321
aI302
aI306
aI309
aI302
aI315
aI310
aI308
aI291
aI306
aI298
aI305
aI296
aI301
aI293
aI290
aI300
aI297
aI292
aI288
aI288
aI303
aI303
aI300
aI295
aI305
aI296
aI293
aI293
aI301
aI305
aI293
aI300
aI304
aI309
aI291
aI295
aI292
aI292
aI288
aI289
aI289
aI289
aI287
aI292
aI285
aI290
aI296
aI290
aI293
aI292
aI287
aI289
aI292
aI290
aI289
aI286
aI288
aI283
aI286
aI284
aI285
aI285
aI283
aI283
aI283
aI282
aI282
aI281
aI281
aI281
aI281
aI281
aI284
aI283
aI282
aI282
aI282
aI283
aI281
aI281
aI280
aI281
aI280
aI281
aI280
aI279
aI279
aI280
aI280
aI278
aI279
aI278
aI278
aI278
aI278
aI278
aI277
aI277
aI277
aI276
aI276
aI276
aI276
aI276
aI276
aI275
aI275
aI275
aI275
aI275
aI275
aI275
aI275
aI274
aI274
aI274
aI274
aI274
aI274
aI274
aI274
aI274
aI273
aI275
aI275
aI275
aI274
aI274
aI274
aI274
aI274
aI274
aI274
aI274
aI274
aI274
aI273
aI273
aI273
aI273
aI273
aI273
aI273
aI273
aI273
aI273
aI273
aI273
aI273
aI273
aI272
aI272
aI272
aI272
aI272
aI272
aI272
aI272
aI272
aI272
aI272
aI272
aI272
aI272
aI272
aI272
aI272
aI272
aI272
aI272
aI272
aI271
assS'pos'
p9
(dp10
g5
(lp11
I0
aI100
aI200
aI300
aI400
aI500
aI600
aI700
aI800
aI900
aI1000
aI1100
aI1200
aI1300
aI1400
aI1500
aI1600
aI1700
aI1800
aI1900
aI2000
aI2100
aI2200
aI2300
aI2400
aI2500
aI2600
aI2700
aI2800
aI2900
aI3000
aI3100
aI3200
aI3300
aI3400
aI3500
aI3600
aI3700
aI3800
aI3900
aI4000
aI4100
aI4200
aI4300
aI4400
aI4500
aI4600
aI4700
aI4800
aI4900
aI5000
aI5100
aI5200
aI5300
aI5400
aI5500
aI5600
aI5700
aI5800
aI5900
aI6000
aI6100
aI6200
aI6300
aI6400
aI6500
aI6600
aI6700
aI6800
aI6900
aI7000
aI7100
aI7200
aI7300
aI7400
aI7500
aI7600
aI7700
aI7800
aI7900
aI8000
aI8100
aI8200
aI8300
aI8400
aI8500
aI8600
aI8700
aI8800
aI8900
aI9000
aI9100
aI9200
aI9300
aI9400
aI9500
aI9600
aI9700
aI9800
aI9900
aI10000
aI10100
aI10200
aI10300
aI10400
aI10500
aI10600
aI10700
aI10800
aI10900
aI11000
aI11100
aI11200
aI11300
aI11400
aI11500
aI11600
aI11700
aI11800
aI11900
aI12000
aI12100
aI12200
aI12300
aI12400
aI12500
aI12600
aI12700
aI12800
aI12900
aI13000
aI13100
aI13200
aI13300
aI13400
aI13500
aI13600
aI13700
aI13800
aI13900
aI14000
aI14100
aI14200
aI14300
aI14400
aI14500
aI14600
aI14700
aI14800
aI14900
aI15000
aI15100
aI15200
aI15300
aI15400
aI15500
aI15600
aI15700
aI15800
aI15900
aI16000
aI16100
aI16200
aI16300
aI16400
aI16500
aI16600
aI16700
aI16800
aI16900
aI17000
aI17100
aI17200
aI17300
aI17400
aI17500
aI17600
aI17700
aI17800
aI17900
aI18000
aI18100
aI18200
aI18300
aI18400
aI18500
aI18600
aI18700
aI18800
aI18900
aI19000
aI19100
aI19200
aI19300
aI19400
aI19500
aI19600
aI19700
aI19800
aI19900
aI20000
aI20100
aI20200
aI20300
aI20400
aI20500
aI20600
aI20700
aI20800
aI20900
aI21000
aI21100
aI21200
aI21300
aI21400
aI21500
aI21600
aI21700
aI21800
aI21900
asg9
(lp12
I0
aI27
aI29
aI42
aI54
aI63
aI70
aI76
aI84
aI94
aI100
aI109
aI113
aI120
aI126
aI136
aI141
aI150
aI157
aI160
aI164
aI171
aI177
aI182
aI191
aI198
aI200
aI204
aI205
aI206
aI210
aI213
aI219
aI221
aI221
aI222
aI222
aI226
aI228
aI231
aI232
aI233
aI234
aI238
aI238
aI241
aI242
aI244
aI244
aI246
aI246
aI246
aI248
aI249
aI250
aI250
aI252
aI254
aI254
aI254
aI255
aI255
aI256
aI256
aI256
aI256
aI257
aI258
aI259
aI261
aI261
aI263
aI264
aI264
aI264
aI265
aI265
aI265
aI265
aI266
aI266
aI266
aI266
aI266
aI266
aI266
aI266
aI266
aI266
aI266
aI266
aI266
aI266
aI267
aI268
aI268
aI268
aI268
aI268
aI268
aI268
aI268
aI268
aI268
aI268
aI268
aI268
aI268
aI268
aI268
aI268
aI268
aI268
aI268
aI268
aI268
aI268
aI268
aI268
aI269
aI270
aI270
aI270
aI270
aI270
aI270
aI270
aI270
aI270
aI270
aI270
aI270
aI270
aI270
aI270
aI270
aI270
aI270
aI270
aI270
aI270
aI270
aI270
aI270
aI270
aI270
aI270
aI270
aI270
aI270
aI270
aI270
aI270
aI270
aI270
aI270
aI270
aI270
aI270
aI270
aI270
aI270
aI270
aI270
aI270
aI270
aI270
aI270
aI270
aI270
aI270
aI271
aI271
aI271
aI271
aI271
aI271
aI271
aI271
aI271
aI271
aI271
aI271
aI271
aI271
aI271
aI271
aI271
aI271
aI271
aI271
aI271
aI271
aI271
aI271
aI271
aI271
aI271
aI271
aI271
aI271
aI271
aI271
aI271
aI271
aI271
aI271
aI271
aI271
aI271
aI271
aI271
aI271
aI271
aI271
aI271
aI271
aI271
aI271
aI271
asssS'Improper Control of a Resource Through its Lifetime'
p13
(dp14
S'est'
p15
(dp16
S'x'
p17
(lp18
I100
aI200
aI300
aI400
aI500
aI600
aI700
aI800
aI900
aI1000
aI1100
aI1200
aI1300
aI1400
aI1500
aI1600
aI1700
aI1800
aI1900
aI2000
aI2100
aI2200
aI2300
aI2400
aI2500
aI2600
aI2700
aI2800
aI2900
aI3000
aI3100
aI3200
aI3300
aI3400
aI3500
aI3600
aI3700
aI3800
aI3900
aI4000
aI4100
aI4200
aI4300
aI4400
aI4500
aI4600
aI4700
aI4800
aI4900
aI5000
aI5100
aI5200
aI5300
aI5400
aI5500
aI5600
aI5700
aI5800
aI5900
aI6000
aI6100
aI6200
aI6300
aI6400
aI6500
aI6600
aI6700
aI6800
aI6900
aI7000
aI7100
aI7200
aI7300
aI7400
aI7500
aI7600
aI7700
aI7800
aI7900
aI8000
aI8100
aI8200
aI8300
aI8400
aI8500
aI8600
aI8700
aI8800
aI8900
aI9000
aI9100
aI9200
aI9300
aI9400
aI9500
aI9600
aI9700
aI9800
aI9900
aI10000
aI10100
aI10200
aI10300
aI10400
aI10500
aI10600
aI10700
aI10800
aI10900
aI11000
aI11100
aI11200
aI11300
aI11400
aI11500
aI11600
aI11700
aI11800
aI11900
aI12000
aI12100
aI12200
aI12300
aI12400
aI12500
aI12600
aI12700
aI12800
aI12900
aI13000
aI13100
aI13200
aI13300
aI13400
aI13500
aI13600
aI13700
aI13800
aI13900
aI14000
aI14100
aI14200
aI14300
aI14400
aI14500
aI14600
aI14700
aI14800
aI14900
aI15000
aI15100
aI15200
aI15300
aI15400
aI15500
aI15600
aI15700
aI15800
aI15900
aI16000
aI16100
aI16200
aI16300
aI16400
aI16500
aI16600
aI16700
aI16800
aI16900
aI17000
aI17100
aI17200
aI17300
aI17400
aI17500
aI17600
aI17700
aI17800
aI17900
aI18000
aI18100
aI18200
asS'semi'
p19
(lp20
I222
aI126
aI138
aI139
aI130
aI132
aI143
aI131
aI127
aI129
aI131
aI142
aI120
aI127
aI123
aI130
aI128
aI122
aI122
aI131
aI121
aI123
aI116
aI121
aI115
aI131
aI117
aI116
aI113
aI107
aI108
aI100
aI100
aI102
aI110
aI106
aI105
aI108
aI105
aI102
aI97
aI104
aI101
aI102
aI99
aI99
aI97
aI96
aI98
aI99
aI102
aI103
aI101
aI100
aI100
aI100
aI99
aI99
aI97
aI96
aI96
aI95
aI95
aI95
aI95
aI94
aI94
aI94
aI94
aI93
aI92
aI93
aI92
aI92
aI92
aI91
aI91
aI91
aI91
aI90
aI91
aI91
aI90
aI90
aI90
aI90
aI90
aI89
aI89
aI89
aI89
aI88
aI89
aI89
aI88
aI88
aI88
aI89
aI88
aI88
aI89
aI90
aI89
aI89
aI89
aI89
aI89
aI89
aI88
aI88
aI89
aI88
aI88
aI88
aI88
aI88
aI88
aI88
aI87
aI88
aI87
aI87
aI87
aI87
aI87
aI87
aI87
aI87
aI88
aI87
aI87
aI88
aI87
aI88
aI87
aI88
aI88
aI87
aI87
aI87
aI87
aI87
aI87
aI87
aI87
aI87
aI87
aI87
aI87
aI87
aI87
aI86
aI86
aI86
aI86
aI86
aI86
aI86
aI86
aI86
aI86
aI86
aI86
aI86
aI86
aI86
aI86
aI86
aI86
aI86
aI86
aI86
aI86
aI86
aI86
aI86
aI86
aI86
aI86
aI86
aI86
aI85
assS'pos'
p21
(dp22
g17
(lp23
I0
aI100
aI200
aI300
aI400
aI500
aI600
aI700
aI800
aI900
aI1000
aI1100
aI1200
aI1300
aI1400
aI1500
aI1600
aI1700
aI1800
aI1900
aI2000
aI2100
aI2200
aI2300
aI2400
aI2500
aI2600
aI2700
aI2800
aI2900
aI3000
aI3100
aI3200
aI3300
aI3400
aI3500
aI3600
aI3700
aI3800
aI3900
aI4000
aI4100
aI4200
aI4300
aI4400
aI4500
aI4600
aI4700
aI4800
aI4900
aI5000
aI5100
aI5200
aI5300
aI5400
aI5500
aI5600
aI5700
aI5800
aI5900
aI6000
aI6100
aI6200
aI6300
aI6400
aI6500
aI6600
aI6700
aI6800
aI6900
aI7000
aI7100
aI7200
aI7300
aI7400
aI7500
aI7600
aI7700
aI7800
aI7900
aI8000
aI8100
aI8200
aI8300
aI8400
aI8500
aI8600
aI8700
aI8800
aI8900
aI9000
aI9100
aI9200
aI9300
aI9400
aI9500
aI9600
aI9700
aI9800
aI9900
aI10000
aI10100
aI10200
aI10300
aI10400
aI10500
aI10600
aI10700
aI10800
aI10900
aI11000
aI11100
aI11200
aI11300
aI11400
aI11500
aI11600
aI11700
aI11800
aI11900
aI12000
aI12100
aI12200
aI12300
aI12400
aI12500
aI12600
aI12700
aI12800
aI12900
aI13000
aI13100
aI13200
aI13300
aI13400
aI13500
aI13600
aI13700
aI13800
aI13900
aI14000
aI14100
aI14200
aI14300
aI14400
aI14500
aI14600
aI14700
aI14800
aI14900
aI15000
aI15100
aI15200
aI15300
aI15400
aI15500
aI15600
aI15700
aI15800
aI15900
aI16000
aI16100
aI16200
aI16300
aI16400
aI16500
aI16600
aI16700
aI16800
aI16900
aI17000
aI17100
aI17200
aI17300
aI17400
aI17500
aI17600
aI17700
aI17800
aI17900
aI18000
aI18100
aI18200
asg21
(lp24
I0
aI8
aI11
aI18
aI24
aI27
aI31
aI39
aI40
aI40
aI43
aI46
aI47
aI47
aI50
aI50
aI54
aI56
aI56
aI58
aI61
aI63
aI64
aI65
aI67
aI68
aI70
aI70
aI71
aI71
aI71
aI72
aI73
aI74
aI75
aI77
aI77
aI78
aI78
aI78
aI78
aI78
aI80
aI80
aI80
aI80
aI80
aI80
aI80
aI81
aI83
aI84
aI84
aI84
aI84
aI84
aI84
aI84
aI84
aI84
aI84
aI84
aI84
aI84
aI84
aI84
aI84
aI84
aI84
aI84
aI84
aI84
aI84
aI84
aI84
aI84
aI84
aI84
aI84
aI84
aI84
aI84
aI84
aI84
aI84
aI84
aI84
aI84
aI84
aI84
aI84
aI84
aI84
aI84
aI84
aI84
aI84
aI84
aI84
aI84
aI84
aI85
aI85
aI85
aI85
aI85
aI85
aI85
aI85
aI85
aI85
aI85
aI85
aI85
aI85
aI85
aI85
aI85
aI85
aI85
aI85
aI85
aI85
aI85
aI85
aI85
aI85
aI85
aI85
aI85
aI85
aI85
aI85
aI85
aI85
aI85
aI85
aI85
aI85
aI85
aI85
aI85
aI85
aI85
aI85
aI85
aI85
aI85
aI85
aI85
aI85
aI85
aI85
aI85
aI85
aI85
aI85
aI85
aI85
aI85
aI85
aI85
aI85
aI85
aI85
aI85
aI85
aI85
aI85
aI85
aI85
aI85
aI85
aI85
aI85
aI85
aI85
aI85
aI85
aI85
aI85
aI85
aI85
asssS'Code Quality'
p25
(dp26
S'est'
p27
(dp28
S'x'
p29
(lp30
I100
aI200
aI300
aI400
aI500
aI600
aI700
aI800
aI900
aI1000
aI1100
aI1200
aI1300
aI1400
aI1500
aI1600
aI1700
aI1800
aI1900
aI2000
aI2100
aI2200
aI2300
aI2400
aI2500
aI2600
aI2700
aI2800
aI2900
aI3000
aI3100
aI3200
aI3300
aI3400
aI3500
aI3600
aI3700
aI3800
aI3900
aI4000
aI4100
aI4200
aI4300
aI4400
aI4500
aI4600
aI4700
aI4800
aI4900
aI5000
aI5100
aI5200
aI5300
aI5400
aI5500
aI5600
aI5700
aI5800
aI5900
aI6000
aI6100
aI6200
aI6300
aI6400
aI6500
aI6600
aI6700
aI6800
aI6900
aI7000
aI7100
aI7200
aI7300
aI7400
aI7500
aI7600
aI7700
aI7800
aI7900
aI8000
aI8100
aI8200
aI8300
aI8400
aI8500
aI8600
aI8700
aI8800
aI8900
aI9000
aI9100
aI9200
aI9300
aI9400
aI9500
aI9600
aI9700
aI9800
aI9900
aI10000
aI10100
aI10200
aI10300
aI10400
aI10500
aI10600
aI10700
aI10800
aI10900
aI11000
aI11100
aI11200
aI11300
aI11400
aI11500
aI11600
aI11700
aI11800
aI11900
aI12000
aI12100
aI12200
aI12300
aI12400
aI12500
aI12600
aI12700
aI12800
aI12900
aI13000
aI13100
aI13200
aI13300
aI13400
aI13500
aI13600
aI13700
aI13800
aI13900
aI14000
aI14100
aI14200
aI14300
aI14400
aI14500
aI14600
aI14700
aI14800
aI14900
aI15000
aI15100
aI15200
aI15300
aI15400
aI15500
aI15600
aI15700
aI15800
aI15900
aI16000
aI16100
aI16200
aI16300
aI16400
aI16500
aI16600
aI16700
aI16800
aI16900
aI17000
aI17100
aI17200
aI17300
aI17400
aI17500
asS'semi'
p31
(lp32
I216
aI182
aI162
aI153
aI139
aI133
aI126
aI122
aI113
aI110
aI105
aI30
aI32
aI39
aI43
aI43
aI44
aI46
aI55
aI56
aI54
aI53
aI52
aI50
aI48
aI45
aI44
aI42
aI42
aI41
aI44
aI43
aI43
aI42
aI45
aI45
aI44
aI42
aI44
aI42
aI40
aI40
aI40
aI40
aI39
aI43
aI42
aI41
aI41
aI40
aI40
aI40
aI41
aI39
aI39
aI38
aI38
aI38
aI37
aI37
aI37
aI37
aI36
aI36
aI37
aI36
aI36
aI36
aI36
aI36
aI35
aI36
aI36
aI35
aI35
aI34
aI34
aI34
aI34
aI34
aI34
aI33
aI34
aI34
aI33
aI33
aI33
aI33
aI33
aI33
aI33
aI33
aI33
aI33
aI32
aI32
aI32
aI32
aI32
aI32
aI32
aI32
aI32
aI32
aI32
aI32
aI31
aI32
aI32
aI32
aI31
aI31
aI31
aI31
aI31
aI31
aI31
aI31
aI31
aI31
aI31
aI31
aI31
aI31
aI31
aI31
aI31
aI31
aI31
aI31
aI31
aI31
aI31
aI30
aI30
aI30
aI30
aI30
aI30
aI30
aI30
aI30
aI30
aI30
aI30
aI30
aI30
aI30
aI30
aI30
aI30
aI30
aI30
aI30
aI30
aI30
aI30
aI30
aI30
aI30
aI30
aI30
aI30
aI30
aI30
aI30
aI30
aI30
aI30
aI30
aI30
aI30
aI30
aI30
aI29
assS'pos'
p33
(dp34
g29
(lp35
I0
aI100
aI200
aI300
aI400
aI500
aI600
aI700
aI800
aI900
aI1000
aI1100
aI1200
aI1300
aI1400
aI1500
aI1600
aI1700
aI1800
aI1900
aI2000
aI2100
aI2200
aI2300
aI2400
aI2500
aI2600
aI2700
aI2800
aI2900
aI3000
aI3100
aI3200
aI3300
aI3400
aI3500
aI3600
aI3700
aI3800
aI3900
aI4000
aI4100
aI4200
aI4300
aI4400
aI4500
aI4600
aI4700
aI4800
aI4900
aI5000
aI5100
aI5200
aI5300
aI5400
aI5500
aI5600
aI5700
aI5800
aI5900
aI6000
aI6100
aI6200
aI6300
aI6400
aI6500
aI6600
aI6700
aI6800
aI6900
aI7000
aI7100
aI7200
aI7300
aI7400
aI7500
aI7600
aI7700
aI7800
aI7900
aI8000
aI8100
aI8200
aI8300
aI8400
aI8500
aI8600
aI8700
aI8800
aI8900
aI9000
aI9100
aI9200
aI9300
aI9400
aI9500
aI9600
aI9700
aI9800
aI9900
aI10000
aI10100
aI10200
aI10300
aI10400
aI10500
aI10600
aI10700
aI10800
aI10900
aI11000
aI11100
aI11200
aI11300
aI11400
aI11500
aI11600
aI11700
aI11800
aI11900
aI12000
aI12100
aI12200
aI12300
aI12400
aI12500
aI12600
aI12700
aI12800
aI12900
aI13000
aI13100
aI13200
aI13300
aI13400
aI13500
aI13600
aI13700
aI13800
aI13900
aI14000
aI14100
aI14200
aI14300
aI14400
aI14500
aI14600
aI14700
aI14800
aI14900
aI15000
aI15100
aI15200
aI15300
aI15400
aI15500
aI15600
aI15700
aI15800
aI15900
aI16000
aI16100
aI16200
aI16300
aI16400
aI16500
aI16600
aI16700
aI16800
aI16900
aI17000
aI17100
aI17200
aI17300
aI17400
aI17500
asg33
(lp36
I0
aI6
aI6
aI6
aI6
aI7
aI7
aI7
aI8
aI8
aI8
aI8
aI10
aI11
aI15
aI19
aI19
aI19
aI20
aI24
aI26
aI26
aI26
aI26
aI26
aI26
aI26
aI26
aI26
aI26
aI26
aI27
aI27
aI27
aI27
aI28
aI28
aI28
aI28
aI28
aI28
aI28
aI28
aI28
aI28
aI28
aI29
aI29
aI29
aI29
aI29
aI29
aI29
aI29
aI29
aI29
aI29
aI29
aI29
aI29
aI29
aI29
aI29
aI29
aI29
aI29
aI29
aI29
aI29
aI29
aI29
aI29
aI29
aI29
aI29
aI29
aI29
aI29
aI29
aI29
aI29
aI29
aI29
aI29
aI29
aI29
aI29
aI29
aI29
aI29
aI29
aI29
aI29
aI29
aI29
aI29
aI29
aI29
aI29
aI29
aI29
aI29
aI29
aI29
aI29
aI29
aI29
aI29
aI29
aI29
aI29
aI29
aI29
aI29
aI29
aI29
aI29
aI29
aI29
aI29
aI29
aI29
aI29
aI29
aI29
aI29
aI29
aI29
aI29
aI29
aI29
aI29
aI29
aI29
aI29
aI29
aI29
aI29
aI29
aI29
aI29
aI29
aI29
aI29
aI29
aI29
aI29
aI29
aI29
aI29
aI29
aI29
aI29
aI29
aI29
aI29
aI29
aI29
aI29
aI29
aI29
aI29
aI29
aI29
aI29
aI29
aI29
aI29
aI29
aI29
aI29
aI29
aI29
aI29
aI29
aI29
asssS'Other'
p37
(dp38
S'est'
p39
(dp40
S'x'
p41
(lp42
I100
aI200
aI300
aI400
aI500
aI600
aI700
aI800
aI900
aI1000
aI1100
aI1200
aI1300
aI1400
aI1500
aI1600
aI1700
aI1800
aI1900
aI2000
aI2100
aI2200
aI2300
aI2400
aI2500
aI2600
aI2700
aI2800
aI2900
aI3000
aI3100
aI3200
aI3300
aI3400
aI3500
aI3600
aI3700
aI3800
aI3900
aI4000
aI4100
aI4200
aI4300
aI4400
aI4500
aI4600
aI4700
aI4800
aI4900
aI5000
aI5100
aI5200
aI5300
aI5400
aI5500
aI5600
aI5700
aI5800
aI5900
aI6000
aI6100
aI6200
aI6300
aI6400
aI6500
aI6600
aI6700
aI6800
aI6900
aI7000
aI7100
aI7200
aI7300
aI7400
aI7500
aI7600
aI7700
aI7800
aI7900
aI8000
aI8100
aI8200
aI8300
aI8400
aI8500
aI8600
aI8700
aI8800
aI8900
aI9000
aI9100
aI9200
aI9300
aI9400
aI9500
aI9600
aI9700
aI9800
aI9900
aI10000
aI10100
aI10200
aI10300
aI10400
aI10500
aI10600
aI10700
aI10800
aI10900
aI11000
aI11100
aI11200
aI11300
aI11400
aI11500
aI11600
aI11700
aI11800
aI11900
aI12000
aI12100
aI12200
aI12300
aI12400
aI12500
aI12600
aI12700
aI12800
aI12900
aI13000
aI13100
aI13200
aI13300
aI13400
aI13500
aI13600
aI13700
aI13800
aI13900
aI14000
aI14100
aI14200
aI14300
aI14400
aI14500
aI14600
aI14700
aI14800
aI14900
aI15000
aI15100
aI15200
aI15300
aI15400
aI15500
aI15600
aI15700
aI15800
aI15900
aI16000
aI16100
aI16200
aI16300
aI16400
aI16500
aI16600
aI16700
aI16800
aI16900
aI17000
aI17100
aI17200
aI17300
aI17400
aI17500
aI17600
aI17700
aI17800
aI17900
aI18000
aI18100
aI18200
aI18300
aI18400
aI18500
aI18600
aI18700
aI18800
aI18900
asS'semi'
p43
(lp44
I253
aI218
aI166
aI158
aI144
aI145
aI139
aI119
aI101
aI109
aI96
aI83
aI42
aI58
aI59
aI61
aI61
aI59
aI61
aI60
aI58
aI58
aI56
aI55
aI52
aI60
aI62
aI66
aI63
aI61
aI63
aI61
aI61
aI62
aI59
aI57
aI55
aI55
aI54
aI52
aI52
aI53
aI50
aI50
aI51
aI50
aI48
aI48
aI48
aI48
aI45
aI45
aI44
aI44
aI43
aI44
aI45
aI43
aI43
aI43
aI43
aI40
aI42
aI42
aI41
aI40
aI42
aI42
aI39
aI39
aI40
aI39
aI39
aI39
aI39
aI40
aI39
aI39
aI38
aI39
aI38
aI38
aI38
aI38
aI38
aI37
aI38
aI37
aI37
aI37
aI36
aI37
aI36
aI36
aI36
aI36
aI36
aI35
aI35
aI35
aI35
aI35
aI35
aI35
aI34
aI35
aI35
aI35
aI35
aI34
aI34
aI35
aI35
aI34
aI34
aI34
aI34
aI34
aI34
aI33
aI34
aI34
aI34
aI34
aI34
aI34
aI34
aI34
aI33
aI33
aI33
aI33
aI33
aI33
aI33
aI33
aI33
aI33
aI33
aI33
aI34
aI34
aI34
aI34
aI34
aI34
aI34
aI34
aI34
aI34
aI34
aI34
aI34
aI34
aI34
aI34
aI34
aI33
aI33
aI33
aI33
aI33
aI33
aI33
aI33
aI33
aI33
aI33
aI33
aI33
aI33
aI33
aI33
aI33
aI33
aI33
aI33
aI33
aI33
aI33
aI33
aI33
aI33
aI33
aI33
aI33
aI33
aI33
aI32
assS'pos'
p45
(dp46
g41
(lp47
I0
aI100
aI200
aI300
aI400
aI500
aI600
aI700
aI800
aI900
aI1000
aI1100
aI1200
aI1300
aI1400
aI1500
aI1600
aI1700
aI1800
aI1900
aI2000
aI2100
aI2200
aI2300
aI2400
aI2500
aI2600
aI2700
aI2800
aI2900
aI3000
aI3100
aI3200
aI3300
aI3400
aI3500
aI3600
aI3700
aI3800
aI3900
aI4000
aI4100
aI4200
aI4300
aI4400
aI4500
aI4600
aI4700
aI4800
aI4900
aI5000
aI5100
aI5200
aI5300
aI5400
aI5500
aI5600
aI5700
aI5800
aI5900
aI6000
aI6100
aI6200
aI6300
aI6400
aI6500
aI6600
aI6700
aI6800
aI6900
aI7000
aI7100
aI7200
aI7300
aI7400
aI7500
aI7600
aI7700
aI7800
aI7900
aI8000
aI8100
aI8200
aI8300
aI8400
aI8500
aI8600
aI8700
aI8800
aI8900
aI9000
aI9100
aI9200
aI9300
aI9400
aI9500
aI9600
aI9700
aI9800
aI9900
aI10000
aI10100
aI10200
aI10300
aI10400
aI10500
aI10600
aI10700
aI10800
aI10900
aI11000
aI11100
aI11200
aI11300
aI11400
aI11500
aI11600
aI11700
aI11800
aI11900
aI12000
aI12100
aI12200
aI12300
aI12400
aI12500
aI12600
aI12700
aI12800
aI12900
aI13000
aI13100
aI13200
aI13300
aI13400
aI13500
aI13600
aI13700
aI13800
aI13900
aI14000
aI14100
aI14200
aI14300
aI14400
aI14500
aI14600
aI14700
aI14800
aI14900
aI15000
aI15100
aI15200
aI15300
aI15400
aI15500
aI15600
aI15700
aI15800
aI15900
aI16000
aI16100
aI16200
aI16300
aI16400
aI16500
aI16600
aI16700
aI16800
aI16900
aI17000
aI17100
aI17200
aI17300
aI17400
aI17500
aI17600
aI17700
aI17800
aI17900
aI18000
aI18100
aI18200
aI18300
aI18400
aI18500
aI18600
aI18700
aI18800
aI18900
asg45
(lp48
I0
aI1
aI1
aI2
aI3
aI3
aI3
aI5
aI7
aI7
aI8
aI8
aI8
aI12
aI20
aI20
aI22
aI22
aI22
aI22
aI22
aI22
aI22
aI22
aI22
aI22
aI24
aI25
aI26
aI26
aI27
aI28
aI29
aI30
aI30
aI30
aI30
aI30
aI30
aI30
aI30
aI30
aI30
aI30
aI30
aI30
aI30
aI30
aI30
aI30
aI30
aI30
aI30
aI30
aI30
aI30
aI30
aI30
aI30
aI30
aI30
aI30
aI30
aI30
aI30
aI30
aI30
aI30
aI30
aI30
aI30
aI30
aI30
aI30
aI30
aI30
aI30
aI30
aI30
aI30
aI30
aI30
aI30
aI30
aI30
aI30
aI30
aI30
aI30
aI30
aI30
aI30
aI30
aI30
aI30
aI30
aI30
aI30
aI30
aI30
aI30
aI30
aI30
aI30
aI30
aI30
aI30
aI30
aI30
aI30
aI30
aI30
aI30
aI30
aI30
aI30
aI30
aI30
aI30
aI30
aI30
aI31
aI31
aI31
aI31
aI31
aI31
aI31
aI31
aI31
aI31
aI31
aI31
aI31
aI31
aI31
aI31
aI31
aI31
aI31
aI31
aI32
aI32
aI32
aI32
aI32
aI32
aI32
aI32
aI32
aI32
aI32
aI32
aI32
aI32
aI32
aI32
aI32
aI32
aI32
aI32
aI32
aI32
aI32
aI32
aI32
aI32
aI32
aI32
aI32
aI32
aI32
aI32
aI32
aI32
aI32
aI32
aI32
aI32
aI32
aI32
aI32
aI32
aI32
aI32
aI32
aI32
aI32
aI32
aI32
asssS'Range Error'
p49
(dp50
S'est'
p51
(dp52
S'x'
p53
(lp54
I100
aI200
aI300
aI400
aI500
aI600
aI700
aI800
aI900
aI1000
aI1100
aI1200
aI1300
aI1400
aI1500
aI1600
aI1700
aI1800
aI1900
aI2000
aI2100
aI2200
aI2300
aI2400
aI2500
aI2600
aI2700
aI2800
aI2900
aI3000
aI3100
aI3200
aI3300
aI3400
aI3500
aI3600
aI3700
aI3800
aI3900
aI4000
aI4100
aI4200
aI4300
aI4400
aI4500
aI4600
aI4700
aI4800
aI4900
aI5000
aI5100
aI5200
aI5300
aI5400
aI5500
aI5600
aI5700
aI5800
aI5900
aI6000
aI6100
aI6200
aI6300
aI6400
aI6500
aI6600
aI6700
aI6800
aI6900
aI7000
aI7100
aI7200
aI7300
aI7400
aI7500
aI7600
aI7700
aI7800
aI7900
aI8000
aI8100
aI8200
aI8300
aI8400
aI8500
aI8600
aI8700
aI8800
aI8900
aI9000
aI9100
aI9200
aI9300
aI9400
aI9500
aI9600
aI9700
aI9800
aI9900
aI10000
aI10100
aI10200
aI10300
aI10400
aI10500
aI10600
aI10700
aI10800
aI10900
aI11000
aI11100
aI11200
aI11300
aI11400
aI11500
aI11600
aI11700
aI11800
aI11900
aI12000
aI12100
aI12200
aI12300
aI12400
aI12500
aI12600
aI12700
aI12800
aI12900
aI13000
aI13100
aI13200
aI13300
aI13400
aI13500
aI13600
aI13700
aI13800
aI13900
aI14000
aI14100
aI14200
aI14300
aI14400
aI14500
aI14600
aI14700
aI14800
aI14900
aI15000
aI15100
aI15200
aI15300
aI15400
aI15500
aI15600
aI15700
aI15800
aI15900
aI16000
aI16100
aI16200
aI16300
aI16400
aI16500
aI16600
aI16700
aI16800
aI16900
aI17000
aI17100
aI17200
aI17300
aI17400
aI17500
aI17600
aI17700
aI17800
aI17900
aI18000
aI18100
aI18200
aI18300
aI18400
aI18500
aI18600
aI18700
aI18800
aI18900
aI19000
aI19100
aI19200
aI19300
aI19400
aI19500
aI19600
aI19700
aI19800
aI19900
aI20000
aI20100
aI20200
aI20300
aI20400
aI20500
aI20600
aI20700
aI20800
aI20900
aI21000
aI21100
aI21200
aI21300
aI21400
aI21500
aI21600
aI21700
aI21800
asS'semi'
p55
(lp56
I242
aI200
aI163
aI161
aI143
aI140
aI137
aI129
aI49
aI57
aI52
aI48
aI49
aI50
aI50
aI48
aI50
aI50
aI51
aI49
aI49
aI49
aI47
aI50
aI53
aI52
aI57
aI55
aI53
aI53
aI53
aI53
aI50
aI51
aI51
aI52
aI59
aI56
aI62
aI61
aI62
aI58
aI58
aI63
aI65
aI65
aI64
aI65
aI63
aI62
aI64
aI66
aI57
aI59
aI58
aI56
aI56
aI57
aI57
aI59
aI63
aI60
aI60
aI60
aI59
aI58
aI59
aI56
aI55
aI55
aI55
aI56
aI53
aI54
aI53
aI53
aI52
aI52
aI53
aI51
aI52
aI51
aI51
aI50
aI51
aI50
aI49
aI50
aI49
aI49
aI49
aI52
aI51
aI51
aI51
aI50
aI50
aI50
aI50
aI49
aI49
aI48
aI49
aI48
aI48
aI48
aI49
aI47
aI47
aI48
aI47
aI46
aI46
aI46
aI46
aI46
aI45
aI45
aI45
aI45
aI46
aI45
aI45
aI44
aI45
aI44
aI44
aI43
aI43
aI43
aI43
aI43
aI43
aI42
aI43
aI43
aI42
aI42
aI42
aI42
aI42
aI42
aI42
aI42
aI42
aI41
aI41
aI41
aI41
aI41
aI41
aI41
aI41
aI40
aI40
aI40
aI40
aI40
aI40
aI40
aI40
aI39
aI39
aI39
aI39
aI39
aI39
aI39
aI39
aI39
aI39
aI38
aI38
aI38
aI38
aI38
aI38
aI38
aI38
aI38
aI38
aI38
aI38
aI37
aI37
aI37
aI37
aI37
aI37
aI37
aI37
aI37
aI37
aI37
aI37
aI37
aI37
aI36
aI36
aI36
aI36
aI36
aI36
aI36
aI36
aI36
aI36
aI36
aI36
aI36
aI36
aI36
aI36
aI36
aI36
aI36
aI36
aI35
assS'pos'
p57
(dp58
g53
(lp59
I0
aI100
aI200
aI300
aI400
aI500
aI600
aI700
aI800
aI900
aI1000
aI1100
aI1200
aI1300
aI1400
aI1500
aI1600
aI1700
aI1800
aI1900
aI2000
aI2100
aI2200
aI2300
aI2400
aI2500
aI2600
aI2700
aI2800
aI2900
aI3000
aI3100
aI3200
aI3300
aI3400
aI3500
aI3600
aI3700
aI3800
aI3900
aI4000
aI4100
aI4200
aI4300
aI4400
aI4500
aI4600
aI4700
aI4800
aI4900
aI5000
aI5100
aI5200
aI5300
aI5400
aI5500
aI5600
aI5700
aI5800
aI5900
aI6000
aI6100
aI6200
aI6300
aI6400
aI6500
aI6600
aI6700
aI6800
aI6900
aI7000
aI7100
aI7200
aI7300
aI7400
aI7500
aI7600
aI7700
aI7800
aI7900
aI8000
aI8100
aI8200
aI8300
aI8400
aI8500
aI8600
aI8700
aI8800
aI8900
aI9000
aI9100
aI9200
aI9300
aI9400
aI9500
aI9600
aI9700
aI9800
aI9900
aI10000
aI10100
aI10200
aI10300
aI10400
aI10500
aI10600
aI10700
aI10800
aI10900
aI11000
aI11100
aI11200
aI11300
aI11400
aI11500
aI11600
aI11700
aI11800
aI11900
aI12000
aI12100
aI12200
aI12300
aI12400
aI12500
aI12600
aI12700
aI12800
aI12900
aI13000
aI13100
aI13200
aI13300
aI13400
aI13500
aI13600
aI13700
aI13800
aI13900
aI14000
aI14100
aI14200
aI14300
aI14400
aI14500
aI14600
aI14700
aI14800
aI14900
aI15000
aI15100
aI15200
aI15300
aI15400
aI15500
aI15600
aI15700
aI15800
aI15900
aI16000
aI16100
aI16200
aI16300
aI16400
aI16500
aI16600
aI16700
aI16800
aI16900
aI17000
aI17100
aI17200
aI17300
aI17400
aI17500
aI17600
aI17700
aI17800
aI17900
aI18000
aI18100
aI18200
aI18300
aI18400
aI18500
aI18600
aI18700
aI18800
aI18900
aI19000
aI19100
aI19200
aI19300
aI19400
aI19500
aI19600
aI19700
aI19800
aI19900
aI20000
aI20100
aI20200
aI20300
aI20400
aI20500
aI20600
aI20700
aI20800
aI20900
aI21000
aI21100
aI21200
aI21300
aI21400
aI21500
aI21600
aI21700
aI21800
asg57
(lp60
I0
aI2
aI2
aI3
aI3
aI5
aI7
aI8
aI9
aI11
aI15
aI15
aI15
aI15
aI16
aI16
aI16
aI17
aI17
aI17
aI17
aI17
aI17
aI17
aI18
aI19
aI19
aI21
aI21
aI21
aI23
aI25
aI25
aI25
aI25
aI25
aI26
aI27
aI28
aI30
aI30
aI30
aI30
aI30
aI32
aI32
aI32
aI32
aI33
aI33
aI33
aI33
aI33
aI33
aI33
aI33
aI33
aI33
aI33
aI33
aI34
aI34
aI34
aI34
aI34
aI34
aI34
aI34
aI34
aI34
aI34
aI34
aI34
aI34
aI34
aI34
aI34
aI34
aI34
aI34
aI34
aI34
aI34
aI34
aI34
aI34
aI34
aI34
aI34
aI34
aI34
aI34
aI35
aI35
aI35
aI35
aI35
aI35
aI35
aI35
aI35
aI35
aI35
aI35
aI35
aI35
aI35
aI35
aI35
aI35
aI35
aI35
aI35
aI35
aI35
aI35
aI35
aI35
aI35
aI35
aI35
aI35
aI35
aI35
aI35
aI35
aI35
aI35
aI35
aI35
aI35
aI35
aI35
aI35
aI35
aI35
aI35
aI35
aI35
aI35
aI35
aI35
aI35
aI35
aI35
aI35
aI35
aI35
aI35
aI35
aI35
aI35
aI35
aI35
aI35
aI35
aI35
aI35
aI35
aI35
aI35
aI35
aI35
aI35
aI35
aI35
aI35
aI35
aI35
aI35
aI35
aI35
aI35
aI35
aI35
aI35
aI35
aI35
aI35
aI35
aI35
aI35
aI35
aI35
aI35
aI35
aI35
aI35
aI35
aI35
aI35
aI35
aI35
aI35
aI35
aI35
aI35
aI35
aI35
aI35
aI35
aI35
aI35
aI35
aI35
aI35
aI35
aI35
aI35
aI35
aI35
aI35
aI35
aI35
aI35
aI35
aI35
aI35
aI35
asssS'Arbitrary Code'
p61
(dp62
S'est'
p63
(dp64
S'x'
p65
(lp66
I100
aI200
aI300
aI400
aI500
aI600
aI700
aI800
aI900
aI1000
aI1100
aI1200
aI1300
aI1400
aI1500
aI1600
aI1700
aI1800
aI1900
aI2000
aI2100
aI2200
aI2300
aI2400
aI2500
aI2600
aI2700
aI2800
aI2900
aI3000
aI3100
aI3200
aI3300
aI3400
aI3500
aI3600
aI3700
aI3800
aI3900
aI4000
aI4100
aI4200
aI4300
aI4400
aI4500
aI4600
aI4700
aI4800
aI4900
aI5000
aI5100
aI5200
aI5300
aI5400
aI5500
aI5600
aI5700
aI5800
aI5900
aI6000
aI6100
aI6200
aI6300
aI6400
aI6500
aI6600
aI6700
aI6800
aI6900
aI7000
aI7100
aI7200
aI7300
aI7400
aI7500
aI7600
aI7700
aI7800
aI7900
aI8000
aI8100
aI8200
aI8300
aI8400
aI8500
aI8600
aI8700
aI8800
aI8900
aI9000
aI9100
aI9200
aI9300
aI9400
aI9500
aI9600
aI9700
aI9800
aI9900
aI10000
aI10100
aI10200
aI10300
aI10400
aI10500
aI10600
aI10700
aI10800
aI10900
aI11000
aI11100
aI11200
aI11300
aI11400
aI11500
aI11600
aI11700
aI11800
aI11900
aI12000
aI12100
aI12200
aI12300
aI12400
aI12500
aI12600
aI12700
aI12800
aI12900
aI13000
aI13100
aI13200
aI13300
aI13400
aI13500
aI13600
aI13700
aI13800
aI13900
aI14000
aI14100
aI14200
aI14300
aI14400
aI14500
aI14600
aI14700
aI14800
aI14900
aI15000
aI15100
aI15200
aI15300
aI15400
aI15500
aI15600
aI15700
aI15800
aI15900
aI16000
aI16100
aI16200
aI16300
aI16400
aI16500
aI16600
aI16700
aI16800
aI16900
aI17000
aI17100
aI17200
aI17300
aI17400
aI17500
aI17600
aI17700
aI17800
aI17900
aI18000
aI18100
aI18200
aI18300
aI18400
aI18500
aI18600
aI18700
aI18800
aI18900
aI19000
aI19100
aI19200
aI19300
aI19400
aI19500
aI19600
aI19700
aI19800
aI19900
asS'semi'
p67
(lp68
I155
aI118
aI105
aI106
aI101
aI115
aI101
aI104
aI116
aI127
aI137
aI136
aI139
aI138
aI144
aI145
aI136
aI137
aI130
aI126
aI136
aI145
aI140
aI148
aI153
aI151
aI138
aI129
aI127
aI118
aI116
aI118
aI117
aI119
aI126
aI121
aI120
aI116
aI120
aI121
aI119
aI115
aI113
aI125
aI146
aI142
aI143
aI152
aI144
aI145
aI153
aI147
aI150
aI137
aI139
aI138
aI137
aI137
aI131
aI138
aI137
aI132
aI132
aI131
aI131
aI131
aI129
aI131
aI128
aI128
aI129
aI128
aI130
aI127
aI127
aI126
aI128
aI127
aI127
aI125
aI127
aI126
aI124
aI128
aI127
aI127
aI125
aI126
aI126
aI124
aI127
aI124
aI125
aI126
aI125
aI125
aI123
aI124
aI123
aI123
aI124
aI123
aI124
aI124
aI123
aI123
aI123
aI122
aI123
aI122
aI126
aI127
aI127
aI126
aI126
aI126
aI126
aI125
aI125
aI125
aI125
aI125
aI124
aI124
aI125
aI124
aI124
aI124
aI123
aI123
aI123
aI123
aI123
aI123
aI123
aI123
aI123
aI123
aI123
aI123
aI122
aI122
aI122
aI122
aI122
aI122
aI122
aI122
aI122
aI122
aI122
aI122
aI121
aI121
aI121
aI121
aI121
aI121
aI121
aI121
aI121
aI121
aI121
aI121
aI121
aI121
aI121
aI121
aI121
aI121
aI120
aI120
aI120
aI120
aI120
aI120
aI120
aI120
aI120
aI120
aI120
aI120
aI120
aI120
aI120
aI120
aI120
aI120
aI120
aI120
aI120
aI120
aI120
aI120
aI120
aI120
aI120
aI120
aI119
assS'pos'
p69
(dp70
g65
(lp71
I0
aI100
aI200
aI300
aI400
aI500
aI600
aI700
aI800
aI900
aI1000
aI1100
aI1200
aI1300
aI1400
aI1500
aI1600
aI1700
aI1800
aI1900
aI2000
aI2100
aI2200
aI2300
aI2400
aI2500
aI2600
aI2700
aI2800
aI2900
aI3000
aI3100
aI3200
aI3300
aI3400
aI3500
aI3600
aI3700
aI3800
aI3900
aI4000
aI4100
aI4200
aI4300
aI4400
aI4500
aI4600
aI4700
aI4800
aI4900
aI5000
aI5100
aI5200
aI5300
aI5400
aI5500
aI5600
aI5700
aI5800
aI5900
aI6000
aI6100
aI6200
aI6300
aI6400
aI6500
aI6600
aI6700
aI6800
aI6900
aI7000
aI7100
aI7200
aI7300
aI7400
aI7500
aI7600
aI7700
aI7800
aI7900
aI8000
aI8100
aI8200
aI8300
aI8400
aI8500
aI8600
aI8700
aI8800
aI8900
aI9000
aI9100
aI9200
aI9300
aI9400
aI9500
aI9600
aI9700
aI9800
aI9900
aI10000
aI10100
aI10200
aI10300
aI10400
aI10500
aI10600
aI10700
aI10800
aI10900
aI11000
aI11100
aI11200
aI11300
aI11400
aI11500
aI11600
aI11700
aI11800
aI11900
aI12000
aI12100
aI12200
aI12300
aI12400
aI12500
aI12600
aI12700
aI12800
aI12900
aI13000
aI13100
aI13200
aI13300
aI13400
aI13500
aI13600
aI13700
aI13800
aI13900
aI14000
aI14100
aI14200
aI14300
aI14400
aI14500
aI14600
aI14700
aI14800
aI14900
aI15000
aI15100
aI15200
aI15300
aI15400
aI15500
aI15600
aI15700
aI15800
aI15900
aI16000
aI16100
aI16200
aI16300
aI16400
aI16500
aI16600
aI16700
aI16800
aI16900
aI17000
aI17100
aI17200
aI17300
aI17400
aI17500
aI17600
aI17700
aI17800
aI17900
aI18000
aI18100
aI18200
aI18300
aI18400
aI18500
aI18600
aI18700
aI18800
aI18900
aI19000
aI19100
aI19200
aI19300
aI19400
aI19500
aI19600
aI19700
aI19800
aI19900
asg69
(lp72
I0
aI17
aI18
aI20
aI25
aI27
aI33
aI33
aI35
aI41
aI45
aI50
aI53
aI55
aI58
aI62
aI64
aI65
aI67
aI68
aI70
aI74
aI78
aI79
aI83
aI85
aI86
aI87
aI87
aI87
aI87
aI87
aI90
aI91
aI93
aI94
aI94
aI94
aI94
aI96
aI96
aI96
aI96
aI97
aI101
aI105
aI106
aI107
aI108
aI108
aI109
aI109
aI109
aI109
aI109
aI109
aI109
aI109
aI110
aI111
aI113
aI113
aI113
aI113
aI113
aI113
aI113
aI113
aI113
aI114
aI114
aI115
aI115
aI115
aI115
aI115
aI115
aI115
aI115
aI115
aI115
aI115
aI115
aI115
aI116
aI116
aI116
aI116
aI116
aI116
aI116
aI116
aI116
aI116
aI116
aI116
aI116
aI116
aI116
aI116
aI116
aI116
aI116
aI117
aI117
aI117
aI117
aI117
aI117
aI117
aI117
aI118
aI119
aI119
aI119
aI119
aI119
aI119
aI119
aI119
aI119
aI119
aI119
aI119
aI119
aI119
aI119
aI119
aI119
aI119
aI119
aI119
aI119
aI119
aI119
aI119
aI119
aI119
aI119
aI119
aI119
aI119
aI119
aI119
aI119
aI119
aI119
aI119
aI119
aI119
aI119
aI119
aI119
aI119
aI119
aI119
aI119
aI119
aI119
aI119
aI119
aI119
aI119
aI119
aI119
aI119
aI119
aI119
aI119
aI119
aI119
aI119
aI119
aI119
aI119
aI119
aI119
aI119
aI119
aI119
aI119
aI119
aI119
aI119
aI119
aI119
aI119
aI119
aI119
aI119
aI119
aI119
aI119
aI119
aI119
aI119
aI119
aI119
aI119
aI119
asss.