(dp0
S'Code Quality'
p1
(dp2
S'est'
p3
(dp4
S'x'
p5
(lp6
sS'semi'
p7
(lp8
ssS'pos'
p9
(dp10
g5
(lp11
I0
aI100
aI200
aI300
aI400
aI500
aI600
aI700
aI800
aI900
aI1000
aI1100
aI1200
aI1300
aI1400
aI1500
aI1600
aI1700
aI1800
aI1900
aI2000
aI2100
aI2200
aI2300
aI2400
aI2500
aI2600
aI2700
aI2800
aI2900
aI3000
aI3100
aI3200
aI3300
aI3400
aI3500
aI3600
aI3700
aI3800
aI3900
aI4000
aI4100
aI4200
aI4300
asg9
(lp12
I0
aI6
aI9
aI11
aI16
aI18
aI20
aI20
aI21
aI23
aI23
aI23
aI23
aI24
aI25
aI25
aI25
aI25
aI25
aI25
aI25
aI25
aI26
aI26
aI26
aI26
aI26
aI26
aI26
aI27
aI27
aI27
aI27
aI27
aI28
aI29
aI29
aI29
aI29
aI29
aI29
aI29
aI29
aI29
asssS'Other'
p13
(dp14
g3
(dp15
g5
(lp16
sg7
(lp17
ssg9
(dp18
g5
(lp19
I0
aI100
aI200
aI300
aI400
aI500
aI600
aI700
aI800
aI900
aI1000
aI1100
aI1200
aI1300
aI1400
aI1500
aI1600
aI1700
aI1800
aI1900
aI2000
aI2100
aI2200
aI2300
aI2400
aI2500
aI2600
aI2700
aI2800
aI2900
aI3000
aI3100
aI3200
aI3300
aI3400
aI3500
aI3600
aI3700
aI3800
aI3900
aI4000
aI4100
aI4200
aI4300
asg9
(lp20
I0
aI3
aI4
aI6
aI9
aI9
aI9
aI11
aI13
aI17
aI18
aI20
aI22
aI23
aI24
aI24
aI24
aI24
aI26
aI26
aI26
aI27
aI27
aI28
aI28
aI28
aI28
aI30
aI30
aI32
aI32
aI33
aI33
aI33
aI33
aI33
aI33
aI34
aI34
aI35
aI35
aI35
aI35
aI35
asssS'Range Error'
p21
(dp22
g3
(dp23
g5
(lp24
sg7
(lp25
ssg9
(dp26
g5
(lp27
I0
aI100
aI200
aI300
aI400
aI500
aI600
aI700
aI800
aI900
aI1000
aI1100
aI1200
aI1300
aI1400
aI1500
aI1600
aI1700
aI1800
aI1900
aI2000
aI2100
aI2200
aI2300
aI2400
aI2500
aI2600
aI2700
aI2800
aI2900
aI3000
aI3100
aI3200
aI3300
aI3400
aI3500
aI3600
aI3700
aI3800
aI3900
aI4000
aI4100
aI4200
aI4300
asg9
(lp28
I0
aI2
aI4
aI5
aI5
aI5
aI8
aI9
aI10
aI11
aI12
aI12
aI13
aI13
aI14
aI15
aI15
aI16
aI16
aI17
aI17
aI18
aI18
aI18
aI19
aI20
aI20
aI20
aI20
aI20
aI20
aI22
aI22
aI23
aI23
aI23
aI23
aI23
aI23
aI23
aI23
aI24
aI24
aI24
asssS'Improper Control of a Resource Through its Lifetime'
p29
(dp30
g3
(dp31
g5
(lp32
sg7
(lp33
ssg9
(dp34
g5
(lp35
I0
aI100
aI200
aI300
aI400
aI500
aI600
aI700
aI800
aI900
aI1000
aI1100
aI1200
aI1300
aI1400
aI1500
aI1600
aI1700
aI1800
aI1900
aI2000
aI2100
aI2200
aI2300
aI2400
aI2500
aI2600
aI2700
aI2800
aI2900
aI3000
aI3100
aI3200
aI3300
aI3400
aI3500
aI3600
aI3700
aI3800
aI3900
aI4000
aI4100
aI4200
aI4300
asg9
(lp36
I0
aI8
aI16
aI23
aI28
aI31
aI31
aI35
aI35
aI37
aI41
aI42
aI44
aI45
aI50
aI53
aI57
aI57
aI60
aI63
aI64
aI64
aI64
aI66
aI66
aI66
aI67
aI67
aI68
aI71
aI71
aI71
aI72
aI73
aI73
aI74
aI74
aI75
aI75
aI75
aI75
aI75
aI75
aI75
asssS'Arbitrary Code'
p37
(dp38
g3
(dp39
g5
(lp40
sg7
(lp41
ssg9
(dp42
g5
(lp43
I0
aI100
aI200
aI300
aI400
aI500
aI600
aI700
aI800
aI900
aI1000
aI1100
aI1200
aI1300
aI1400
aI1500
aI1600
aI1700
aI1800
aI1900
aI2000
aI2100
aI2200
aI2300
aI2400
aI2500
aI2600
aI2700
aI2800
aI2900
aI3000
aI3100
aI3200
aI3300
aI3400
aI3500
aI3600
aI3700
aI3800
aI3900
aI4000
aI4100
aI4200
aI4300
asg9
(lp44
I0
aI16
aI23
aI32
aI37
aI42
aI47
aI51
aI53
aI54
aI57
aI63
aI67
aI68
aI69
aI70
aI71
aI74
aI76
aI76
aI76
aI77
aI79
aI80
aI82
aI83
aI84
aI85
aI85
aI85
aI87
aI87
aI88
aI89
aI91
aI93
aI93
aI94
aI95
aI96
aI98
aI99
aI99
aI99
asss.