(dp0
S'all'
p1
(dp2
S'est'
p3
(dp4
S'x'
p5
(lp6
sS'semi'
p7
(lp8
ssS'pos'
p9
(dp10
g5
(lp11
I0
aI100
aI200
aI300
aI400
aI500
aI600
aI700
aI800
aI900
aI1000
aI1100
aI1200
aI1300
aI1400
aI1500
aI1600
aI1700
aI1800
aI1900
aI2000
aI2100
aI2200
aI2300
aI2400
aI2500
aI2600
aI2700
aI2800
aI2900
aI3000
aI3100
aI3200
aI3300
aI3400
aI3500
aI3600
aI3700
aI3800
aI3900
aI4000
aI4100
aI4200
aI4300
aI4400
aI4500
aI4600
aI4700
aI4800
aI4900
aI5000
aI5100
aI5200
aI5300
aI5400
aI5500
aI5600
aI5700
aI5800
aI5900
aI6000
aI6100
aI6200
aI6300
aI6400
aI6500
aI6600
aI6700
aI6800
aI6900
aI7000
aI7100
aI7200
aI7300
aI7400
aI7500
aI7600
aI7700
aI7800
aI7900
aI8000
aI8100
aI8200
aI8300
aI8400
aI8500
aI8600
aI8700
aI8800
aI8900
aI9000
aI9100
aI9200
aI9300
aI9400
aI9500
aI9600
aI9700
aI9800
aI9900
aI10000
aI10100
aI10200
aI10300
aI10400
aI10500
aI10600
aI10700
aI10800
aI10900
aI11000
aI11100
aI11200
aI11300
aI11400
aI11500
aI11600
aI11700
aI11800
aI11900
aI12000
aI12100
aI12200
aI12300
aI12400
aI12500
aI12600
aI12700
aI12800
aI12900
aI13000
aI13100
aI13200
aI13300
aI13400
aI13500
aI13600
aI13700
aI13800
aI13900
aI14000
aI14100
aI14200
aI14300
aI14400
aI14500
aI14600
aI14700
aI14800
aI14900
aI15000
aI15100
aI15200
aI15300
aI15400
aI15500
aI15600
aI15700
aI15800
aI15900
aI16000
aI16100
aI16200
aI16300
aI16400
aI16500
aI16600
aI16700
aI16800
aI16900
aI17000
aI17100
aI17200
aI17300
aI17400
aI17500
aI17600
aI17700
aI17800
aI17900
aI18000
aI18100
aI18200
aI18300
aI18400
aI18500
aI18600
aI18700
aI18800
aI18900
aI19000
aI19100
aI19200
aI19300
aI19400
aI19500
aI19600
aI19700
aI19800
aI19900
aI20000
aI20100
aI20200
aI20300
aI20400
aI20500
aI20600
aI20700
aI20800
aI20900
aI21000
aI21100
aI21200
aI21300
aI21400
aI21500
aI21600
aI21700
aI21800
aI21900
aI22000
aI22100
aI22200
aI22300
aI22400
aI22500
aI22600
aI22700
aI22800
aI22900
aI23000
aI23100
aI23200
aI23300
aI23400
aI23500
aI23600
aI23700
aI23800
aI23900
aI24000
aI24100
aI24200
aI24300
aI24400
aI24500
aI24600
aI24700
aI24800
aI24900
aI25000
aI25100
aI25200
aI25300
aI25400
aI25500
aI25600
aI25700
aI25800
aI25900
aI26000
aI26100
aI26200
aI26300
aI26400
aI26500
aI26600
aI26700
aI26800
aI26900
aI27000
aI27100
aI27200
aI27300
aI27400
aI27500
aI27600
aI27700
aI27800
aI27900
aI28000
aI28100
aI28200
aI28300
aI28400
aI28500
aI28600
aI28700
asg9
(lp12
I0
aI0
aI1
aI3
aI3
aI3
aI4
aI4
aI5
aI7
aI7
aI9
aI9
aI11
aI11
aI11
aI11
aI11
aI11
aI11
aI11
aI11
aI11
aI11
aI11
aI11
aI11
aI12
aI14
aI14
aI18
aI19
aI22
aI22
aI24
aI24
aI24
aI25
aI26
aI28
aI32
aI33
aI33
aI37
aI39
aI40
aI41
aI43
aI44
aI44
aI47
aI50
aI55
aI55
aI60
aI60
aI65
aI66
aI69
aI69
aI75
aI75
aI81
aI81
aI83
aI86
aI95
aI95
aI95
aI99
aI105
aI112
aI112
aI112
aI112
aI112
aI112
aI114
aI120
aI123
aI123
aI127
aI128
aI132
aI135
aI138
aI139
aI140
aI143
aI148
aI151
aI151
aI155
aI160
aI164
aI170
aI170
aI173
aI173
aI173
aI173
aI173
aI173
aI173
aI173
aI173
aI173
aI173
aI173
aI173
aI174
aI175
aI179
aI179
aI183
aI184
aI184
aI184
aI184
aI184
aI184
aI184
aI185
aI185
aI191
aI192
aI192
aI192
aI192
aI192
aI192
aI192
aI192
aI192
aI192
aI192
aI192
aI192
aI192
aI192
aI192
aI192
aI192
aI192
aI192
aI194
aI194
aI194
aI195
aI196
aI197
aI197
aI200
aI200
aI200
aI200
aI200
aI200
aI203
aI205
aI205
aI205
aI205
aI205
aI208
aI210
aI210
aI210
aI210
aI210
aI211
aI212
aI215
aI215
aI217
aI217
aI217
aI218
aI220
aI220
aI220
aI221
aI221
aI223
aI226
aI232
aI233
aI234
aI235
aI235
aI236
aI241
aI241
aI242
aI242
aI243
aI243
aI246
aI248
aI249
aI253
aI254
aI255
aI256
aI256
aI257
aI257
aI258
aI258
aI258
aI259
aI260
aI260
aI260
aI261
aI261
aI261
aI263
aI263
aI263
aI264
aI264
aI264
aI264
aI264
aI264
aI265
aI265
aI266
aI266
aI266
aI266
aI266
aI267
aI267
aI267
aI267
aI267
aI267
aI267
aI267
aI267
aI267
aI267
aI267
aI267
aI267
aI267
aI267
aI267
aI267
aI267
aI267
aI267
aI267
aI267
aI267
aI267
aI267
aI267
aI267
aI267
aI267
aI267
aI267
aI267
aI268
aI268
aI268
aI268
aI268
aI268
aI269
aI269
aI269
aI269
aI269
aI269
aI269
aI269
aI269
aI269
aI269
aI269
aI269
aI269
aI270
aI271
asssS'Improper Control of a Resource Through its Lifetime'
p13
(dp14
S'est'
p15
(dp16
S'x'
p17
(lp18
sS'semi'
p19
(lp20
ssS'pos'
p21
(dp22
g17
(lp23
I0
aI100
aI200
aI300
aI400
aI500
aI600
aI700
aI800
aI900
aI1000
aI1100
aI1200
aI1300
aI1400
aI1500
aI1600
aI1700
aI1800
aI1900
aI2000
aI2100
aI2200
aI2300
aI2400
aI2500
aI2600
aI2700
aI2800
aI2900
aI3000
aI3100
aI3200
aI3300
aI3400
aI3500
aI3600
aI3700
aI3800
aI3900
aI4000
aI4100
aI4200
aI4300
aI4400
aI4500
aI4600
aI4700
aI4800
aI4900
aI5000
aI5100
aI5200
aI5300
aI5400
aI5500
aI5600
aI5700
aI5800
aI5900
aI6000
aI6100
aI6200
aI6300
aI6400
aI6500
aI6600
aI6700
aI6800
aI6900
aI7000
aI7100
aI7200
aI7300
aI7400
aI7500
aI7600
aI7700
aI7800
aI7900
aI8000
aI8100
aI8200
aI8300
aI8400
aI8500
aI8600
aI8700
aI8800
aI8900
aI9000
aI9100
aI9200
aI9300
aI9400
aI9500
aI9600
aI9700
aI9800
aI9900
aI10000
aI10100
aI10200
aI10300
aI10400
aI10500
aI10600
aI10700
aI10800
aI10900
aI11000
aI11100
aI11200
aI11300
aI11400
aI11500
aI11600
aI11700
aI11800
aI11900
aI12000
aI12100
aI12200
aI12300
aI12400
aI12500
aI12600
aI12700
aI12800
aI12900
aI13000
aI13100
aI13200
aI13300
aI13400
aI13500
aI13600
aI13700
aI13800
aI13900
aI14000
aI14100
aI14200
aI14300
aI14400
aI14500
aI14600
aI14700
aI14800
aI14900
aI15000
aI15100
aI15200
aI15300
aI15400
aI15500
aI15600
aI15700
aI15800
aI15900
aI16000
aI16100
aI16200
aI16300
aI16400
aI16500
aI16600
aI16700
aI16800
aI16900
aI17000
aI17100
aI17200
aI17300
aI17400
aI17500
aI17600
aI17700
aI17800
aI17900
aI18000
aI18100
aI18200
aI18300
aI18400
aI18500
aI18600
aI18700
aI18800
aI18900
aI19000
aI19100
aI19200
aI19300
aI19400
aI19500
aI19600
aI19700
aI19800
aI19900
aI20000
aI20100
aI20200
aI20300
aI20400
aI20500
aI20600
aI20700
aI20800
aI20900
aI21000
aI21100
aI21200
aI21300
aI21400
aI21500
aI21600
aI21700
aI21800
aI21900
aI22000
aI22100
aI22200
aI22300
aI22400
aI22500
aI22600
aI22700
aI22800
aI22900
aI23000
aI23100
aI23200
aI23300
aI23400
aI23500
aI23600
aI23700
aI23800
aI23900
aI24000
aI24100
aI24200
aI24300
aI24400
aI24500
aI24600
aI24700
aI24800
aI24900
aI25000
aI25100
aI25200
aI25300
aI25400
aI25500
aI25600
aI25700
aI25800
aI25900
aI26000
aI26100
aI26200
aI26300
aI26400
aI26500
aI26600
aI26700
aI26800
aI26900
aI27000
aI27100
aI27200
aI27300
aI27400
aI27500
aI27600
aI27700
aI27800
aI27900
aI28000
aI28100
aI28200
aI28300
aI28400
aI28500
aI28600
asg21
(lp24
I0
aI0
aI0
aI1
aI1
aI1
aI2
aI2
aI2
aI2
aI2
aI2
aI2
aI2
aI2
aI2
aI2
aI2
aI2
aI2
aI2
aI3
aI3
aI3
aI3
aI3
aI3
aI3
aI4
aI4
aI4
aI4
aI4
aI4
aI4
aI4
aI5
aI5
aI5
aI5
aI5
aI5
aI5
aI5
aI5
aI5
aI5
aI5
aI5
aI6
aI6
aI6
aI6
aI6
aI6
aI7
aI7
aI7
aI7
aI7
aI7
aI7
aI8
aI8
aI8
aI8
aI9
aI9
aI9
aI10
aI10
aI10
aI10
aI10
aI10
aI10
aI11
aI11
aI11
aI11
aI12
aI13
aI13
aI13
aI16
aI16
aI16
aI16
aI19
aI19
aI21
aI23
aI23
aI24
aI26
aI30
aI30
aI31
aI31
aI32
aI32
aI32
aI33
aI33
aI33
aI33
aI33
aI33
aI33
aI33
aI33
aI33
aI33
aI33
aI33
aI33
aI33
aI33
aI33
aI33
aI33
aI33
aI33
aI33
aI33
aI33
aI33
aI33
aI33
aI33
aI33
aI33
aI33
aI33
aI33
aI33
aI33
aI33
aI33
aI33
aI33
aI33
aI33
aI33
aI33
aI33
aI33
aI33
aI33
aI33
aI35
aI35
aI35
aI35
aI36
aI36
aI37
aI42
aI42
aI42
aI42
aI42
aI43
aI43
aI43
aI43
aI43
aI43
aI44
aI44
aI44
aI44
aI46
aI46
aI46
aI46
aI47
aI47
aI48
aI51
aI53
aI53
aI53
aI53
aI53
aI53
aI54
aI55
aI55
aI56
aI56
aI56
aI56
aI57
aI57
aI60
aI60
aI61
aI61
aI61
aI65
aI65
aI66
aI66
aI66
aI66
aI66
aI67
aI67
aI67
aI67
aI67
aI68
aI68
aI68
aI68
aI68
aI68
aI68
aI68
aI69
aI69
aI70
aI70
aI70
aI70
aI70
aI70
aI70
aI72
aI72
aI72
aI72
aI72
aI72
aI73
aI74
aI76
aI77
aI77
aI77
aI77
aI77
aI77
aI78
aI78
aI78
aI78
aI78
aI78
aI78
aI78
aI78
aI78
aI78
aI78
aI78
aI78
aI78
aI78
aI78
aI78
aI78
aI79
aI80
aI80
aI80
aI80
aI80
aI80
aI80
aI80
aI80
aI80
aI80
aI80
aI80
aI80
aI80
aI80
aI80
aI80
aI80
aI80
aI80
aI80
aI81
asssS'Code Quality'
p25
(dp26
S'est'
p27
(dp28
S'x'
p29
(lp30
sS'semi'
p31
(lp32
ssS'pos'
p33
(dp34
g29
(lp35
I0
aI100
aI200
aI300
aI400
aI500
aI600
aI700
aI800
aI900
aI1000
aI1100
aI1200
aI1300
aI1400
aI1500
aI1600
aI1700
aI1800
aI1900
aI2000
aI2100
aI2200
aI2300
aI2400
aI2500
aI2600
aI2700
aI2800
aI2900
aI3000
aI3100
aI3200
aI3300
aI3400
aI3500
aI3600
aI3700
aI3800
aI3900
aI4000
aI4100
aI4200
aI4300
aI4400
aI4500
aI4600
aI4700
aI4800
aI4900
aI5000
aI5100
aI5200
aI5300
aI5400
aI5500
aI5600
aI5700
aI5800
aI5900
aI6000
aI6100
aI6200
aI6300
aI6400
aI6500
aI6600
aI6700
aI6800
aI6900
aI7000
aI7100
aI7200
aI7300
aI7400
aI7500
aI7600
aI7700
aI7800
aI7900
aI8000
aI8100
aI8200
aI8300
aI8400
aI8500
aI8600
aI8700
aI8800
aI8900
aI9000
aI9100
aI9200
aI9300
aI9400
aI9500
aI9600
aI9700
aI9800
aI9900
aI10000
aI10100
aI10200
aI10300
aI10400
aI10500
aI10600
aI10700
aI10800
aI10900
aI11000
aI11100
aI11200
aI11300
aI11400
aI11500
aI11600
aI11700
aI11800
aI11900
aI12000
aI12100
aI12200
aI12300
aI12400
aI12500
aI12600
aI12700
aI12800
aI12900
aI13000
aI13100
aI13200
aI13300
aI13400
aI13500
aI13600
aI13700
aI13800
aI13900
aI14000
aI14100
aI14200
aI14300
aI14400
aI14500
aI14600
aI14700
aI14800
aI14900
aI15000
aI15100
aI15200
aI15300
aI15400
aI15500
aI15600
aI15700
aI15800
aI15900
aI16000
aI16100
aI16200
aI16300
aI16400
aI16500
aI16600
aI16700
aI16800
aI16900
aI17000
aI17100
aI17200
aI17300
aI17400
aI17500
aI17600
aI17700
aI17800
aI17900
aI18000
aI18100
aI18200
aI18300
aI18400
aI18500
aI18600
aI18700
aI18800
aI18900
aI19000
aI19100
aI19200
aI19300
aI19400
aI19500
aI19600
aI19700
aI19800
aI19900
aI20000
aI20100
aI20200
aI20300
aI20400
aI20500
asg33
(lp36
I0
aI0
aI0
aI0
aI0
aI1
aI1
aI1
aI3
aI3
aI3
aI3
aI3
aI3
aI3
aI3
aI3
aI3
aI3
aI3
aI3
aI4
aI4
aI4
aI4
aI4
aI4
aI4
aI4
aI4
aI4
aI4
aI4
aI4
aI4
aI4
aI4
aI4
aI4
aI4
aI4
aI4
aI4
aI4
aI4
aI5
aI6
aI6
aI6
aI6
aI6
aI6
aI6
aI8
aI8
aI8
aI8
aI8
aI8
aI8
aI8
aI8
aI8
aI8
aI8
aI8
aI8
aI8
aI8
aI8
aI8
aI9
aI9
aI9
aI9
aI9
aI10
aI10
aI10
aI10
aI10
aI10
aI10
aI10
aI10
aI10
aI10
aI11
aI11
aI12
aI12
aI12
aI12
aI12
aI12
aI12
aI12
aI12
aI12
aI12
aI13
aI13
aI14
aI14
aI15
aI15
aI16
aI16
aI19
aI19
aI21
aI21
aI21
aI21
aI21
aI21
aI21
aI21
aI21
aI21
aI21
aI21
aI21
aI21
aI21
aI21
aI21
aI21
aI21
aI21
aI21
aI21
aI21
aI21
aI21
aI21
aI21
aI21
aI21
aI21
aI21
aI21
aI21
aI21
aI21
aI21
aI21
aI21
aI21
aI21
aI21
aI21
aI21
aI21
aI21
aI21
aI21
aI21
aI21
aI21
aI21
aI21
aI21
aI21
aI21
aI21
aI21
aI21
aI22
aI22
aI22
aI23
aI23
aI23
aI23
aI23
aI25
aI25
aI25
aI25
aI26
aI27
aI27
aI27
aI27
aI27
aI28
aI28
aI28
aI28
aI28
aI28
aI28
aI28
aI28
aI28
aI28
aI28
aI28
aI28
aI28
aI28
aI28
aI28
aI28
aI29
asssS'Other'
p37
(dp38
S'est'
p39
(dp40
S'x'
p41
(lp42
sS'semi'
p43
(lp44
ssS'pos'
p45
(dp46
g41
(lp47
I0
aI100
aI200
aI300
aI400
aI500
aI600
aI700
aI800
aI900
aI1000
aI1100
aI1200
aI1300
aI1400
aI1500
aI1600
aI1700
aI1800
aI1900
aI2000
aI2100
aI2200
aI2300
aI2400
aI2500
aI2600
aI2700
aI2800
aI2900
aI3000
aI3100
aI3200
aI3300
aI3400
aI3500
aI3600
aI3700
aI3800
aI3900
aI4000
aI4100
aI4200
aI4300
aI4400
aI4500
aI4600
aI4700
aI4800
aI4900
aI5000
aI5100
aI5200
aI5300
aI5400
aI5500
aI5600
aI5700
aI5800
aI5900
aI6000
aI6100
aI6200
aI6300
aI6400
aI6500
aI6600
aI6700
aI6800
aI6900
aI7000
aI7100
aI7200
aI7300
aI7400
aI7500
aI7600
aI7700
aI7800
aI7900
aI8000
aI8100
aI8200
aI8300
aI8400
aI8500
aI8600
aI8700
aI8800
aI8900
aI9000
aI9100
aI9200
aI9300
aI9400
aI9500
aI9600
aI9700
aI9800
aI9900
aI10000
aI10100
aI10200
aI10300
aI10400
aI10500
aI10600
aI10700
aI10800
aI10900
aI11000
aI11100
aI11200
aI11300
aI11400
aI11500
aI11600
aI11700
aI11800
aI11900
aI12000
aI12100
aI12200
aI12300
aI12400
aI12500
aI12600
aI12700
aI12800
aI12900
aI13000
aI13100
aI13200
aI13300
aI13400
aI13500
aI13600
aI13700
aI13800
aI13900
aI14000
aI14100
aI14200
aI14300
aI14400
aI14500
aI14600
aI14700
aI14800
aI14900
aI15000
aI15100
aI15200
aI15300
aI15400
aI15500
aI15600
aI15700
aI15800
aI15900
aI16000
aI16100
aI16200
aI16300
aI16400
aI16500
aI16600
aI16700
aI16800
aI16900
aI17000
aI17100
aI17200
aI17300
aI17400
aI17500
aI17600
aI17700
aI17800
aI17900
aI18000
aI18100
aI18200
aI18300
aI18400
aI18500
aI18600
aI18700
aI18800
aI18900
aI19000
aI19100
aI19200
aI19300
aI19400
aI19500
aI19600
aI19700
aI19800
aI19900
aI20000
aI20100
aI20200
aI20300
aI20400
aI20500
aI20600
aI20700
aI20800
aI20900
aI21000
aI21100
aI21200
aI21300
aI21400
aI21500
aI21600
aI21700
aI21800
aI21900
aI22000
aI22100
aI22200
aI22300
aI22400
aI22500
aI22600
aI22700
aI22800
aI22900
aI23000
aI23100
aI23200
aI23300
aI23400
aI23500
aI23600
aI23700
aI23800
aI23900
aI24000
aI24100
aI24200
aI24300
aI24400
aI24500
aI24600
aI24700
aI24800
aI24900
aI25000
aI25100
aI25200
aI25300
aI25400
aI25500
aI25600
aI25700
aI25800
aI25900
aI26000
aI26100
aI26200
aI26300
aI26400
aI26500
aI26600
aI26700
aI26800
aI26900
asg45
(lp48
I0
aI0
aI0
aI0
aI0
aI0
aI0
aI0
aI0
aI0
aI0
aI0
aI0
aI0
aI0
aI0
aI0
aI0
aI0
aI0
aI0
aI0
aI0
aI0
aI0
aI0
aI0
aI0
aI1
aI1
aI1
aI1
aI2
aI2
aI2
aI2
aI2
aI2
aI2
aI2
aI2
aI2
aI2
aI2
aI2
aI2
aI2
aI2
aI2
aI3
aI3
aI3
aI3
aI3
aI3
aI3
aI4
aI4
aI6
aI7
aI7
aI7
aI7
aI7
aI7
aI7
aI7
aI7
aI8
aI8
aI8
aI8
aI8
aI8
aI8
aI8
aI8
aI8
aI8
aI8
aI9
aI9
aI10
aI10
aI10
aI10
aI10
aI10
aI10
aI10
aI10
aI10
aI11
aI14
aI14
aI15
aI15
aI16
aI17
aI17
aI17
aI19
aI19
aI21
aI21
aI21
aI21
aI21
aI22
aI23
aI23
aI24
aI25
aI25
aI25
aI26
aI27
aI29
aI30
aI30
aI30
aI30
aI30
aI30
aI30
aI30
aI30
aI30
aI30
aI30
aI30
aI30
aI30
aI30
aI30
aI30
aI30
aI30
aI30
aI30
aI30
aI30
aI30
aI30
aI30
aI30
aI30
aI30
aI30
aI30
aI30
aI30
aI30
aI30
aI30
aI30
aI30
aI30
aI30
aI30
aI30
aI30
aI30
aI30
aI30
aI31
aI31
aI31
aI32
aI33
aI33
aI34
aI34
aI34
aI34
aI35
aI36
aI36
aI37
aI38
aI38
aI38
aI38
aI38
aI38
aI38
aI38
aI38
aI38
aI38
aI38
aI38
aI38
aI39
aI40
aI40
aI40
aI40
aI40
aI40
aI40
aI40
aI40
aI40
aI40
aI41
aI41
aI41
aI41
aI41
aI41
aI41
aI41
aI41
aI41
aI41
aI41
aI41
aI41
aI41
aI41
aI41
aI41
aI41
aI41
aI41
aI41
aI41
aI41
aI41
aI41
aI41
aI41
aI41
aI41
aI41
aI41
aI41
aI41
aI41
aI41
aI41
aI41
aI41
aI41
aI41
aI41
aI41
aI41
aI41
aI41
aI41
aI41
aI41
aI41
aI41
aI41
aI41
aI41
aI41
aI41
aI41
aI41
aI41
aI41
aI41
aI41
aI41
aI41
aI42
asssS'Range Error'
p49
(dp50
S'est'
p51
(dp52
S'x'
p53
(lp54
sS'semi'
p55
(lp56
ssS'pos'
p57
(dp58
g53
(lp59
I0
aI100
aI200
aI300
aI400
aI500
aI600
aI700
aI800
aI900
aI1000
aI1100
aI1200
aI1300
aI1400
aI1500
aI1600
aI1700
aI1800
aI1900
aI2000
aI2100
aI2200
aI2300
aI2400
aI2500
aI2600
aI2700
aI2800
aI2900
aI3000
aI3100
aI3200
aI3300
aI3400
aI3500
aI3600
aI3700
aI3800
aI3900
aI4000
aI4100
aI4200
aI4300
aI4400
aI4500
aI4600
aI4700
aI4800
aI4900
aI5000
aI5100
aI5200
aI5300
aI5400
aI5500
aI5600
aI5700
aI5800
aI5900
aI6000
aI6100
aI6200
aI6300
aI6400
aI6500
aI6600
aI6700
aI6800
aI6900
aI7000
aI7100
aI7200
aI7300
aI7400
aI7500
aI7600
aI7700
aI7800
aI7900
aI8000
aI8100
aI8200
aI8300
aI8400
aI8500
aI8600
aI8700
aI8800
aI8900
aI9000
aI9100
aI9200
aI9300
aI9400
aI9500
aI9600
aI9700
aI9800
aI9900
aI10000
aI10100
aI10200
aI10300
aI10400
aI10500
aI10600
aI10700
aI10800
aI10900
aI11000
aI11100
aI11200
aI11300
aI11400
aI11500
aI11600
aI11700
aI11800
aI11900
aI12000
aI12100
aI12200
aI12300
aI12400
aI12500
aI12600
aI12700
aI12800
aI12900
aI13000
aI13100
aI13200
aI13300
aI13400
aI13500
aI13600
aI13700
aI13800
aI13900
aI14000
aI14100
aI14200
aI14300
aI14400
aI14500
aI14600
aI14700
aI14800
aI14900
aI15000
aI15100
aI15200
aI15300
aI15400
aI15500
aI15600
aI15700
aI15800
aI15900
aI16000
aI16100
aI16200
aI16300
aI16400
aI16500
aI16600
aI16700
aI16800
aI16900
aI17000
aI17100
aI17200
aI17300
aI17400
aI17500
aI17600
aI17700
aI17800
aI17900
aI18000
aI18100
aI18200
aI18300
aI18400
aI18500
aI18600
aI18700
aI18800
aI18900
aI19000
aI19100
aI19200
aI19300
aI19400
aI19500
aI19600
aI19700
aI19800
aI19900
aI20000
aI20100
aI20200
aI20300
aI20400
aI20500
aI20600
aI20700
aI20800
aI20900
aI21000
aI21100
aI21200
asg57
(lp60
I0
aI0
aI0
aI0
aI0
aI0
aI0
aI0
aI0
aI0
aI0
aI0
aI0
aI0
aI0
aI0
aI1
aI3
aI3
aI3
aI3
aI3
aI3
aI4
aI4
aI5
aI6
aI7
aI7
aI8
aI8
aI8
aI8
aI8
aI8
aI8
aI8
aI8
aI8
aI8
aI8
aI9
aI9
aI9
aI9
aI9
aI9
aI9
aI9
aI9
aI9
aI9
aI9
aI9
aI9
aI9
aI10
aI10
aI10
aI10
aI10
aI10
aI10
aI10
aI10
aI10
aI10
aI11
aI11
aI11
aI11
aI11
aI11
aI11
aI12
aI13
aI13
aI14
aI14
aI14
aI15
aI15
aI15
aI15
aI15
aI15
aI15
aI15
aI15
aI16
aI16
aI16
aI16
aI16
aI17
aI17
aI17
aI19
aI19
aI20
aI20
aI20
aI20
aI20
aI20
aI20
aI20
aI21
aI21
aI21
aI21
aI21
aI21
aI21
aI21
aI21
aI21
aI22
aI24
aI24
aI24
aI24
aI24
aI25
aI26
aI26
aI26
aI26
aI26
aI26
aI26
aI26
aI26
aI26
aI26
aI26
aI26
aI26
aI26
aI26
aI26
aI26
aI26
aI26
aI26
aI26
aI26
aI26
aI26
aI26
aI26
aI26
aI26
aI26
aI26
aI26
aI26
aI26
aI26
aI26
aI26
aI26
aI26
aI26
aI26
aI26
aI26
aI26
aI26
aI26
aI26
aI26
aI26
aI26
aI26
aI26
aI26
aI26
aI26
aI26
aI26
aI26
aI26
aI26
aI26
aI26
aI26
aI26
aI26
aI26
aI26
aI26
aI26
aI26
aI26
aI26
aI27
aI28
aI29
aI30
aI30
aI30
aI31
aI31
aI31
aI31
aI31
aI31
aI31
aI31
aI31
aI31
aI32
asssS'Arbitrary Code'
p61
(dp62
S'est'
p63
(dp64
S'x'
p65
(lp66
sS'semi'
p67
(lp68
ssS'pos'
p69
(dp70
g65
(lp71
I0
aI100
aI200
aI300
aI400
aI500
aI600
aI700
aI800
aI900
aI1000
aI1100
aI1200
aI1300
aI1400
aI1500
aI1600
aI1700
aI1800
aI1900
aI2000
aI2100
aI2200
aI2300
aI2400
aI2500
aI2600
aI2700
aI2800
aI2900
aI3000
aI3100
aI3200
aI3300
aI3400
aI3500
aI3600
aI3700
aI3800
aI3900
aI4000
aI4100
aI4200
aI4300
aI4400
aI4500
aI4600
aI4700
aI4800
aI4900
aI5000
aI5100
aI5200
aI5300
aI5400
aI5500
aI5600
aI5700
aI5800
aI5900
aI6000
aI6100
aI6200
aI6300
aI6400
aI6500
aI6600
aI6700
aI6800
aI6900
aI7000
aI7100
aI7200
aI7300
aI7400
aI7500
aI7600
aI7700
aI7800
aI7900
aI8000
aI8100
aI8200
aI8300
aI8400
aI8500
aI8600
aI8700
aI8800
aI8900
aI9000
aI9100
aI9200
aI9300
aI9400
aI9500
aI9600
aI9700
aI9800
aI9900
aI10000
aI10100
aI10200
aI10300
aI10400
aI10500
aI10600
aI10700
aI10800
aI10900
aI11000
aI11100
aI11200
aI11300
aI11400
aI11500
aI11600
aI11700
aI11800
aI11900
aI12000
aI12100
aI12200
aI12300
aI12400
aI12500
aI12600
aI12700
aI12800
aI12900
aI13000
aI13100
aI13200
aI13300
aI13400
aI13500
aI13600
aI13700
aI13800
aI13900
aI14000
aI14100
aI14200
aI14300
aI14400
aI14500
aI14600
aI14700
aI14800
aI14900
aI15000
aI15100
aI15200
aI15300
aI15400
aI15500
aI15600
aI15700
aI15800
aI15900
aI16000
aI16100
aI16200
aI16300
aI16400
aI16500
aI16600
aI16700
aI16800
aI16900
aI17000
aI17100
aI17200
aI17300
aI17400
aI17500
aI17600
aI17700
aI17800
aI17900
aI18000
aI18100
aI18200
aI18300
aI18400
aI18500
aI18600
aI18700
aI18800
aI18900
aI19000
aI19100
aI19200
aI19300
aI19400
aI19500
aI19600
aI19700
aI19800
aI19900
aI20000
aI20100
aI20200
aI20300
aI20400
aI20500
aI20600
aI20700
aI20800
aI20900
aI21000
aI21100
aI21200
aI21300
aI21400
aI21500
aI21600
aI21700
aI21800
aI21900
aI22000
aI22100
aI22200
aI22300
aI22400
aI22500
aI22600
aI22700
aI22800
aI22900
aI23000
aI23100
aI23200
aI23300
aI23400
aI23500
aI23600
aI23700
aI23800
aI23900
aI24000
aI24100
aI24200
aI24300
aI24400
aI24500
aI24600
aI24700
aI24800
aI24900
aI25000
aI25100
aI25200
aI25300
aI25400
aI25500
aI25600
aI25700
aI25800
aI25900
aI26000
aI26100
aI26200
aI26300
aI26400
aI26500
aI26600
aI26700
aI26800
aI26900
aI27000
aI27100
aI27200
aI27300
aI27400
aI27500
aI27600
aI27700
aI27800
aI27900
aI28000
aI28100
aI28200
aI28300
aI28400
aI28500
aI28600
aI28700
aI28750
asg69
(lp72
I0
aI0
aI1
aI2
aI2
aI2
aI2
aI2
aI2
aI2
aI4
aI4
aI4
aI5
aI5
aI5
aI6
aI6
aI7
aI7
aI7
aI7
aI7
aI8
aI11
aI11
aI11
aI11
aI11
aI11
aI11
aI11
aI11
aI11
aI11
aI11
aI11
aI11
aI11
aI11
aI13
aI14
aI15
aI15
aI15
aI17
aI17
aI19
aI19
aI22
aI22
aI22
aI22
aI24
aI26
aI26
aI28
aI28
aI31
aI31
aI34
aI34
aI34
aI38
aI39
aI42
aI44
aI45
aI46
aI48
aI48
aI49
aI49
aI49
aI49
aI49
aI49
aI50
aI50
aI50
aI50
aI50
aI50
aI50
aI50
aI50
aI50
aI50
aI52
aI52
aI52
aI52
aI52
aI52
aI52
aI52
aI54
aI54
aI54
aI54
aI54
aI54
aI54
aI54
aI54
aI54
aI54
aI59
aI60
aI61
aI62
aI62
aI62
aI66
aI66
aI66
aI66
aI66
aI66
aI66
aI66
aI66
aI66
aI66
aI66
aI66
aI66
aI66
aI66
aI66
aI66
aI66
aI66
aI66
aI66
aI67
aI67
aI68
aI68
aI70
aI70
aI70
aI73
aI74
aI75
aI78
aI78
aI79
aI81
aI82
aI83
aI84
aI87
aI87
aI87
aI88
aI89
aI89
aI89
aI89
aI91
aI91
aI91
aI91
aI93
aI93
aI94
aI95
aI97
aI99
aI100
aI100
aI103
aI103
aI104
aI105
aI105
aI106
aI107
aI108
aI108
aI108
aI108
aI109
aI110
aI110
aI111
aI111
aI111
aI111
aI111
aI113
aI113
aI113
aI113
aI113
aI113
aI113
aI113
aI113
aI113
aI113
aI113
aI113
aI113
aI113
aI113
aI113
aI113
aI114
aI114
aI114
aI114
aI114
aI114
aI114
aI114
aI114
aI114
aI114
aI114
aI114
aI114
aI114
aI114
aI114
aI114
aI114
aI114
aI114
aI114
aI114
aI114
aI114
aI114
aI114
aI114
aI114
aI114
aI114
aI114
aI115
aI115
aI115
aI115
aI115
aI115
aI115
aI115
aI115
aI115
aI115
aI115
aI115
aI115
aI115
aI115
aI115
aI115
aI115
aI115
aI115
aI115
aI115
aI115
aI115
aI115
aI115
aI115
aI116
aI116
aI116
aI116
aI116
aI116
aI117
aI117
aI117
aI117
aI117
aI117
aI117
aI117
aI117
aI117
aI117
aI117
aI117
aI118
asss.