(dp0
S'all'
p1
(dp2
S'est'
p3
(dp4
S'x'
p5
(lp6
I100
aI200
aI300
aI400
aI500
aI600
aI700
aI800
aI900
aI1000
aI1100
aI1200
aI1300
aI1400
aI1500
aI1600
aI1700
aI1800
aI1900
aI2000
aI2100
aI2200
aI2300
aI2400
aI2500
aI2600
aI2700
aI2800
aI2900
aI3000
aI3100
aI3200
aI3300
aI3400
aI3500
aI3600
aI3700
aI3800
aI3900
aI4000
aI4100
aI4200
aI4300
aI4400
aI4500
aI4600
aI4700
aI4800
aI4900
aI5000
aI5100
aI5200
aI5300
aI5400
aI5500
aI5600
aI5700
aI5800
aI5900
aI6000
aI6100
aI6200
aI6300
aI6400
aI6500
aI6600
aI6700
aI6800
aI6900
aI7000
aI7100
aI7200
aI7300
aI7400
aI7500
aI7600
aI7700
aI7800
aI7900
aI8000
aI8100
aI8200
aI8300
aI8400
aI8500
aI8600
aI8700
aI8800
aI8900
aI9000
aI9100
aI9200
aI9300
aI9400
aI9500
aI9600
aI9700
aI9800
aI9900
aI10000
aI10100
aI10200
aI10300
aI10400
aI10500
aI10600
aI10700
aI10800
aI10900
aI11000
aI11100
aI11200
aI11300
aI11400
aI11500
aI11600
aI11700
aI11800
aI11900
aI12000
aI12100
aI12200
aI12300
aI12400
aI12500
aI12600
aI12700
aI12800
aI12900
aI13000
aI13100
aI13200
aI13300
aI13400
aI13500
aI13600
aI13700
aI13800
aI13900
aI14000
aI14100
aI14200
aI14300
aI14400
aI14500
aI14600
aI14700
aI14800
aI14900
aI15000
aI15100
aI15200
aI15300
aI15400
aI15500
aI15600
aI15700
aI15800
aI15900
aI16000
aI16100
aI16200
aI16300
aI16400
aI16500
aI16600
aI16700
aI16800
aI16900
aI17000
aI17100
aI17200
aI17300
aI17400
aI17500
aI17600
aI17700
aI17800
aI17900
aI18000
aI18100
aI18200
aI18300
aI18400
aI18500
aI18600
aI18700
aI18800
aI18900
aI19000
aI19100
aI19200
aI19300
aI19400
aI19500
aI19600
aI19700
aI19800
aI19900
aI20000
aI20100
aI20200
aI20300
aI20400
aI20500
aI20600
aI20700
aI20800
aI20900
aI21000
aI21100
aI21200
aI21300
aI21400
aI21500
aI21600
aI21700
aI21800
aI21900
aI22000
aI22100
aI22200
aI22300
aI22400
aI22500
aI22600
aI22700
aI22800
aI22900
aI23000
aI23100
aI23200
aI23300
aI23400
aI23500
aI23600
aI23700
aI23800
aI23900
aI24000
aI24100
aI24200
aI24300
aI24400
aI24500
aI24600
aI24700
aI24800
aI24900
aI25000
aI25100
aI25200
aI25300
aI25400
aI25500
aI25600
aI25700
aI25800
aI25900
aI26000
aI26100
aI26200
aI26300
aI26400
aI26500
aI26600
aI26700
aI26800
aI26900
aI27000
aI27100
aI27200
aI27300
aI27400
aI27500
aI27600
aI27700
aI27800
aI27900
aI28000
aI28100
aI28200
aI28300
aI28400
aI28500
aI28600
aI28700
asS'semi'
p7
(lp8
F575.0
aF287.5
aF191.66666666666669
aF215.625
aF172.5
aF143.75
aF123.21428571428572
aF179.6875
aF159.72222222222223
aF201.25
aF182.95454545454547
aF167.70833333333334
aF154.8076923076923
aF164.28571428571428
aF172.5
aF179.6875
aF186.02941176470588
aF207.63888888888889
aF211.8421052631579
aF201.25
aF205.35714285714286
aF209.0909090909091
aF200.0
aF203.64583333333331
aF207.0
aF199.03846153846155
aF202.3148148148148
aF225.89285714285717
aF228.01724137931035
aF220.41666666666666
aF213.30645161290323
aF233.59375
aF226.51515151515153
aF219.8529411764706
aF221.78571428571428
aF247.56944444444443
aF256.41891891891896
aF249.67105263157893
aF250.64102564102564
aF258.75
aF266.4634146341463
aF260.1190476190476
aF260.75581395348837
aF267.89772727272725
aF261.94444444444446
aF262.5
aF281.3829787234042
aF281.5104166666667
aF275.765306122449
aF281.75
aF276.2254901960784
aF270.91346153846155
aF282.07547169811323
aF276.85185185185185
aF282.27272727272725
aF282.36607142857144
aF282.4561403508772
aF277.58620689655174
aF272.8813559322034
aF273.125
aF273.3606557377049
aF268.95161290322585
aF273.80952380952385
aF287.5
aF287.5
aF287.5
aF296.0820895522388
aF291.7279411764706
aF291.66666666666663
aF295.7142857142857
aF299.6478873239437
aF303.47222222222223
aF299.3150684931507
aF299.1554054054054
aF306.66666666666663
aF306.4144736842105
aF302.43506493506493
aF298.5576923076923
aF298.4177215189873
aF298.28125
aF294.59876543209873
aF291.0060975609756
aF290.96385542168673
aF290.92261904761904
aF290.88235294117646
aF297.52906976744185
aF297.41379310344826
aF294.03409090909093
aF290.73033707865164
aF287.5
aF287.5
aF284.375
aF281.31720430107526
aF278.3244680851064
aF278.42105263157896
aF281.5104166666667
aF278.60824742268045
aF281.63265306122446
aF284.5959595959596
aF281.75
aF281.8069306930693
aF279.04411764705884
aF276.3349514563107
aF276.44230769230774
aF273.80952380952385
aF271.2264150943396
aF274.06542056074767
aF271.52777777777777
aF271.6743119266055
aF269.20454545454544
aF266.7792792792793
aF269.53125
aF274.7787610619469
aF272.3684210526316
aF270.0
aF267.67241379310343
aF267.84188034188037
aF268.0084745762712
aF268.172268907563
aF265.9375
aF273.24380165289256
aF273.3606557377049
aF273.4756097560975
aF271.27016129032256
aF269.1
aF269.24603174603175
aF271.65354330708664
aF269.53125
aF269.6705426356589
aF267.59615384615387
aF265.5534351145038
aF272.2537878787879
aF270.20676691729324
aF276.7723880597015
aF276.85185185185185
aF274.81617647058823
aF272.81021897810217
aF272.91666666666663
aF270.95323741007195
aF271.07142857142856
aF273.2269503546099
aF271.30281690140845
aF269.4055944055944
aF269.53125
aF273.6206896551724
aF271.74657534246575
aF269.89795918367344
aF270.0168918918919
aF268.2046979865772
aF268.33333333333337
aF266.5562913907285
aF266.69407894736844
aF264.9509803921569
aF266.9642857142857
aF267.09677419354836
aF267.2275641025641
aF272.8503184713376
aF271.123417721519
aF271.2264150943396
aF271.328125
aF269.64285714285717
aF269.75308641975306
aF268.09815950920245
aF269.9695121951219
aF270.07575757575756
aF268.4487951807229
aF266.8413173652695
aF268.67559523809524
aF268.7869822485207
aF268.8970588235294
aF269.0058479532164
aF269.11337209302326
aF267.55780346820814
aF269.3247126436782
aF269.42857142857144
aF267.89772727272725
aF266.3841807909605
aF264.8876404494382
aF263.4078212290503
aF265.13888888888886
aF263.67403314917124
aF263.80494505494505
aF265.5054644808743
aF264.0625
aF264.18918918918916
aF262.76881720430106
aF261.3636363636364
aF263.031914893617
aF263.16137566137564
aF263.2894736842105
aF261.9109947643979
aF262.04427083333337
aF260.6865284974093
aF259.3427835051546
aF259.48717948717945
aF261.0969387755102
aF264.1497461928934
aF265.719696969697
aF265.8291457286432
aF265.9375
aF267.47512437810946
aF267.5742574257426
aF267.67241379310343
aF269.17892156862746
aF270.6707317073171
aF270.752427184466
aF273.61111111111114
aF273.67788461538464
aF273.74401913875596
aF273.80952380952385
aF273.87440758293843
aF275.2948113207547
aF274.0023474178404
aF275.4088785046729
aF276.80232558139534
aF276.85185185185185
aF275.57603686635946
aF275.6307339449541
aF274.37214611872145
aF274.4318181818182
aF273.1900452488687
aF271.9594594594595
aF272.0291479820628
aF272.09821428571433
aF270.8888888888889
aF272.2345132743363
aF271.0352422907489
aF271.10745614035085
aF269.9235807860262
aF270.0
aF268.83116883116884
aF267.67241379310343
aF267.7575107296137
aF266.61324786324786
aF265.4787234042553
aF268.0084745762712
aF266.8776371308017
aF266.9642857142857
aF265.84728033472805
aF265.9375
aF264.8340248962656
aF263.7396694214876
aF265.0205761316873
aF266.29098360655735
aF265.204081632653
aF267.6321138211382
aF268.8765182186235
aF268.95161290322585
aF269.02610441767064
aF270.25
aF270.3187250996016
aF270.38690476190476
aF269.3181818181818
aF269.3897637795276
aF268.33333333333337
aF267.28515625
aF267.363813229572
aF267.4418604651163
aF266.4092664092664
aF265.3846153846154
aF265.4693486590038
aF265.5534351145038
aF264.5437262357414
aF264.6306818181818
aF263.6320754716981
aF265.88345864661653
aF264.8876404494382
aF266.04477611940297
aF265.0557620817844
aF265.13888888888886
aF265.22140221402213
aF265.3033088235294
aF266.43772893772893
aF266.514598540146
aF266.59090909090907
aF265.625
aF265.7039711191336
aF265.78237410071944
aF265.86021505376345
aF266.9642857142857
aF266.0142348754448
aF267.10992907801415
aF267.18197879858656
aF268.26584507042253
aF268.33333333333337
aF270.41083916083915
aF269.4686411149826
assS'pos'
p9
(dp10
g5
(lp11
I0
aI100
aI200
aI300
aI400
aI500
aI600
aI700
aI800
aI900
aI1000
aI1100
aI1200
aI1300
aI1400
aI1500
aI1600
aI1700
aI1800
aI1900
aI2000
aI2100
aI2200
aI2300
aI2400
aI2500
aI2600
aI2700
aI2800
aI2900
aI3000
aI3100
aI3200
aI3300
aI3400
aI3500
aI3600
aI3700
aI3800
aI3900
aI4000
aI4100
aI4200
aI4300
aI4400
aI4500
aI4600
aI4700
aI4800
aI4900
aI5000
aI5100
aI5200
aI5300
aI5400
aI5500
aI5600
aI5700
aI5800
aI5900
aI6000
aI6100
aI6200
aI6300
aI6400
aI6500
aI6600
aI6700
aI6800
aI6900
aI7000
aI7100
aI7200
aI7300
aI7400
aI7500
aI7600
aI7700
aI7800
aI7900
aI8000
aI8100
aI8200
aI8300
aI8400
aI8500
aI8600
aI8700
aI8800
aI8900
aI9000
aI9100
aI9200
aI9300
aI9400
aI9500
aI9600
aI9700
aI9800
aI9900
aI10000
aI10100
aI10200
aI10300
aI10400
aI10500
aI10600
aI10700
aI10800
aI10900
aI11000
aI11100
aI11200
aI11300
aI11400
aI11500
aI11600
aI11700
aI11800
aI11900
aI12000
aI12100
aI12200
aI12300
aI12400
aI12500
aI12600
aI12700
aI12800
aI12900
aI13000
aI13100
aI13200
aI13300
aI13400
aI13500
aI13600
aI13700
aI13800
aI13900
aI14000
aI14100
aI14200
aI14300
aI14400
aI14500
aI14600
aI14700
aI14800
aI14900
aI15000
aI15100
aI15200
aI15300
aI15400
aI15500
aI15600
aI15700
aI15800
aI15900
aI16000
aI16100
aI16200
aI16300
aI16400
aI16500
aI16600
aI16700
aI16800
aI16900
aI17000
aI17100
aI17200
aI17300
aI17400
aI17500
aI17600
aI17700
aI17800
aI17900
aI18000
aI18100
aI18200
aI18300
aI18400
aI18500
aI18600
aI18700
aI18800
aI18900
aI19000
aI19100
aI19200
aI19300
aI19400
aI19500
aI19600
aI19700
aI19800
aI19900
aI20000
aI20100
aI20200
aI20300
aI20400
aI20500
aI20600
aI20700
aI20800
aI20900
aI21000
aI21100
aI21200
aI21300
aI21400
aI21500
aI21600
aI21700
aI21800
aI21900
aI22000
aI22100
aI22200
aI22300
aI22400
aI22500
aI22600
aI22700
aI22800
aI22900
aI23000
aI23100
aI23200
aI23300
aI23400
aI23500
aI23600
aI23700
aI23800
aI23900
aI24000
aI24100
aI24200
aI24300
aI24400
aI24500
aI24600
aI24700
aI24800
aI24900
aI25000
aI25100
aI25200
aI25300
aI25400
aI25500
aI25600
aI25700
aI25800
aI25900
aI26000
aI26100
aI26200
aI26300
aI26400
aI26500
aI26600
aI26700
aI26800
aI26900
aI27000
aI27100
aI27200
aI27300
aI27400
aI27500
aI27600
aI27700
aI27800
aI27900
aI28000
aI28100
aI28200
aI28300
aI28400
aI28500
aI28600
aI28700
aI28750
asg9
(lp12
I0
aI2
aI2
aI2
aI3
aI3
aI3
aI3
aI5
aI5
aI7
aI7
aI7
aI7
aI8
aI9
aI10
aI11
aI13
aI14
aI14
aI15
aI16
aI16
aI17
aI18
aI18
aI19
aI22
aI23
aI23
aI23
aI26
aI26
aI26
aI27
aI31
aI33
aI33
aI34
aI36
aI38
aI38
aI39
aI41
aI41
aI42
aI46
aI47
aI47
aI49
aI49
aI49
aI52
aI52
aI54
aI55
aI56
aI56
aI56
aI57
aI58
aI58
aI60
aI64
aI65
aI66
aI69
aI69
aI70
aI72
aI74
aI76
aI76
aI77
aI80
aI81
aI81
aI81
aI82
aI83
aI83
aI83
aI84
aI85
aI86
aI89
aI90
aI90
aI90
aI90
aI91
aI91
aI91
aI91
aI92
aI94
aI94
aI96
aI98
aI98
aI99
aI99
aI99
aI100
aI100
aI100
aI102
aI102
aI103
aI103
aI103
aI105
aI108
aI108
aI108
aI108
aI109
aI110
aI111
aI111
aI115
aI116
aI117
aI117
aI117
aI118
aI120
aI120
aI121
aI121
aI121
aI125
aI125
aI129
aI130
aI130
aI130
aI131
aI131
aI132
aI134
aI134
aI134
aI135
aI138
aI138
aI138
aI139
aI139
aI140
aI140
aI141
aI141
aI143
aI144
aI145
aI149
aI149
aI150
aI151
aI151
aI152
aI152
aI154
aI155
aI155
aI155
aI157
aI158
aI159
aI160
aI161
aI161
aI163
aI164
aI164
aI164
aI164
aI164
aI166
aI166
aI167
aI169
aI169
aI170
aI170
aI170
aI172
aI173
aI174
aI174
aI175
aI175
aI175
aI176
aI178
aI181
aI183
aI184
aI185
aI187
aI188
aI189
aI191
aI193
aI194
aI197
aI198
aI199
aI200
aI201
aI203
aI203
aI205
aI207
aI208
aI208
aI209
aI209
aI210
aI210
aI210
aI211
aI212
aI212
aI214
aI214
aI215
aI215
aI216
aI216
aI216
aI217
aI217
aI217
aI220
aI220
aI221
aI221
aI222
aI222
aI222
aI224
aI226
aI226
aI229
aI231
aI232
aI233
aI235
aI236
aI237
aI237
aI238
aI238
aI238
aI239
aI240
aI240
aI240
aI241
aI242
aI242
aI243
aI243
aI246
aI246
aI248
aI248
aI249
aI250
aI251
aI253
aI254
aI255
aI255
aI256
aI257
aI258
aI260
aI260
aI262
aI263
aI265
aI266
aI269
aI269
aI271
asssS'Improper Control of a Resource Through its Lifetime'
p13
(dp14
S'est'
p15
(dp16
S'x'
p17
(lp18
I100
aI200
aI300
aI400
aI500
aI600
aI700
aI800
aI900
aI1000
aI1100
aI1200
aI1300
aI1400
aI1500
aI1600
aI1700
aI1800
aI1900
aI2000
aI2100
aI2200
aI2300
aI2400
aI2500
aI2600
aI2700
aI2800
aI2900
aI3000
aI3100
aI3200
aI3300
aI3400
aI3500
aI3600
aI3700
aI3800
aI3900
aI4000
aI4100
aI4200
aI4300
aI4400
aI4500
aI4600
aI4700
aI4800
aI4900
aI5000
aI5100
aI5200
aI5300
aI5400
aI5500
aI5600
aI5700
aI5800
aI5900
aI6000
aI6100
aI6200
aI6300
aI6400
aI6500
aI6600
aI6700
aI6800
aI6900
aI7000
aI7100
aI7200
aI7300
aI7400
aI7500
aI7600
aI7700
aI7800
aI7900
aI8000
aI8100
aI8200
aI8300
aI8400
aI8500
aI8600
aI8700
aI8800
aI8900
aI9000
aI9100
aI9200
aI9300
aI9400
aI9500
aI9600
aI9700
aI9800
aI9900
aI10000
aI10100
aI10200
aI10300
aI10400
aI10500
aI10600
aI10700
aI10800
aI10900
aI11000
aI11100
aI11200
aI11300
aI11400
aI11500
aI11600
aI11700
aI11800
aI11900
aI12000
aI12100
aI12200
aI12300
aI12400
aI12500
aI12600
aI12700
aI12800
aI12900
aI13000
aI13100
aI13200
aI13300
aI13400
aI13500
aI13600
aI13700
aI13800
aI13900
aI14000
aI14100
aI14200
aI14300
aI14400
aI14500
aI14600
aI14700
aI14800
aI14900
aI15000
aI15100
aI15200
aI15300
aI15400
aI15500
aI15600
aI15700
aI15800
aI15900
aI16000
aI16100
aI16200
aI16300
aI16400
aI16500
aI16600
aI16700
aI16800
aI16900
aI17000
aI17100
aI17200
aI17300
aI17400
aI17500
aI17600
aI17700
aI17800
aI17900
aI18000
aI18100
aI18200
aI18300
aI18400
aI18500
aI18600
aI18700
aI18800
aI18900
aI19000
aI19100
aI19200
aI19300
aI19400
aI19500
aI19600
aI19700
aI19800
aI19900
aI20000
aI20100
aI20200
aI20300
aI20400
aI20500
aI20600
aI20700
aI20800
aI20900
aI21000
aI21100
aI21200
aI21300
aI21400
aI21500
aI21600
aI21700
aI21800
aI21900
aI22000
aI22100
aI22200
aI22300
aI22400
aI22500
aI22600
aI22700
aI22800
aI22900
aI23000
aI23100
aI23200
aI23300
aI23400
aI23500
aI23600
aI23700
aI23800
aI23900
aI24000
aI24100
aI24200
aI24300
aI24400
aI24500
aI24600
aI24700
aI24800
aI24900
aI25000
aI25100
aI25200
aI25300
aI25400
aI25500
aI25600
aI25700
aI25800
aI25900
aI26000
aI26100
aI26200
aI26300
aI26400
aI26500
aI26600
aI26700
aI26800
aI26900
aI27000
aI27100
aI27200
aI27300
aI27400
aI27500
aI27600
aI27700
aI27800
aI27900
aI28000
aI28100
aI28200
aI28300
aI28400
asS'semi'
p19
(lp20
F0.0
aF0.0
aF0.0
aF0.0
aF0.0
aF0.0
aF0.0
aF0.0
aF0.0
aF0.0
aF0.0
aF0.0
aF0.0
aF0.0
aF19.166666666666664
aF17.96875
aF16.91176470588235
aF31.944444444444443
aF45.39473684210526
aF43.125
aF54.76190476190476
aF65.3409090909091
aF62.5
aF59.895833333333336
aF57.5
aF55.28846153846154
aF63.888888888888886
aF82.14285714285714
aF79.3103448275862
aF76.66666666666666
aF74.19354838709677
aF80.859375
aF78.40909090909092
aF76.10294117647058
aF73.92857142857143
aF79.86111111111111
aF77.70270270270271
aF75.65789473684211
aF73.71794871794872
aF71.875
aF77.13414634146342
aF75.29761904761905
aF80.23255813953489
aF84.94318181818181
aF83.05555555555556
aF87.5
aF97.87234042553192
aF95.83333333333334
aF93.87755102040816
aF97.75
aF95.83333333333334
aF93.99038461538461
aF92.21698113207547
aF90.50925925925927
aF99.31818181818181
aF102.67857142857143
aF100.87719298245614
aF99.13793103448276
aF97.45762711864407
aF95.83333333333334
aF94.26229508196721
aF92.74193548387096
aF95.83333333333334
aF103.3203125
aF101.73076923076923
aF100.18939393939394
aF102.98507462686567
aF101.47058823529412
aF100.0
aF98.57142857142857
aF97.1830985915493
aF99.82638888888889
aF98.45890410958904
aF97.12837837837839
aF95.83333333333334
aF98.35526315789474
aF97.07792207792208
aF95.83333333333334
aF98.25949367088607
aF100.625
aF99.38271604938272
aF98.17073170731707
aF96.98795180722891
aF95.83333333333334
aF98.08823529411764
aF96.94767441860465
aF95.83333333333334
aF94.74431818181819
aF93.67977528089888
aF92.63888888888889
aF91.62087912087912
aF90.625
aF89.65053763440861
aF88.6968085106383
aF87.76315789473685
aF89.84375
aF88.91752577319588
aF90.94387755102042
aF92.92929292929293
aF92.0
aF93.93564356435643
aF93.01470588235294
aF92.11165048543688
aF91.22596153846153
aF90.35714285714286
aF89.50471698113208
aF88.66822429906543
aF87.84722222222223
aF87.04128440366972
aF86.25
aF85.47297297297297
aF84.70982142857143
aF91.59292035398231
aF90.78947368421052
aF90.0
aF89.22413793103448
aF90.91880341880342
aF92.58474576271186
aF94.22268907563024
aF93.4375
aF95.04132231404958
aF94.26229508196721
aF95.83333333333334
aF95.06048387096774
aF94.3
aF93.5515873015873
aF97.34251968503938
aF96.58203125
aF95.83333333333334
aF95.09615384615384
aF94.37022900763358
aF95.83333333333334
aF95.11278195488723
aF98.69402985074628
aF100.0925925925926
aF99.35661764705883
aF98.63138686131387
aF97.91666666666667
aF97.21223021582733
aF96.51785714285714
aF97.87234042553192
aF97.1830985915493
aF96.5034965034965
aF95.83333333333334
aF97.1551724137931
aF96.48972602739725
aF95.83333333333334
aF95.1858108108108
aF94.5469798657718
aF93.91666666666667
aF93.29470198675497
aF94.57236842105263
aF93.95424836601308
aF93.34415584415585
aF92.74193548387096
aF92.1474358974359
aF91.56050955414013
aF90.98101265822784
aF92.21698113207547
aF91.640625
aF91.07142857142857
aF90.50925925925927
aF89.95398773006134
aF91.15853658536587
aF90.60606060606061
aF90.06024096385542
aF89.52095808383234
aF88.98809523809524
aF88.46153846153847
aF87.94117647058825
aF87.42690058479532
aF86.91860465116278
aF86.41618497109826
aF87.57183908045977
aF87.07142857142857
aF86.57670454545455
aF86.08757062146893
aF85.60393258426966
aF85.12569832402235
aF87.84722222222223
aF87.36187845303867
aF88.46153846153847
aF87.97814207650273
aF87.5
aF87.02702702702703
aF86.55913978494624
aF86.09625668449198
aF87.16755319148936
aF88.22751322751323
aF89.27631578947368
aF88.80890052356021
aF88.34635416666666
aF87.88860103626943
aF87.43556701030928
aF86.98717948717949
aF86.54336734693878
aF86.10406091370558
aF85.66919191919192
aF86.68341708542714
aF86.25
aF85.82089552238806
aF85.3960396039604
aF84.97536945812809
aF84.55882352941177
aF85.54878048780488
aF85.13349514563107
aF87.5
aF87.07932692307692
aF86.66267942583733
aF86.25
aF85.84123222748815
aF88.14858490566039
aF87.73474178403755
aF88.66822429906543
aF89.59302325581395
aF89.17824074074073
aF88.76728110599079
aF88.36009174311927
aF87.95662100456622
aF87.55681818181819
aF87.1606334841629
aF86.76801801801801
aF86.37892376681614
aF87.27678571428571
aF86.88888888888889
aF86.50442477876106
aF86.12334801762115
aF85.74561403508773
aF85.37117903930131
aF85.0
aF84.63203463203463
aF84.26724137931035
aF85.13948497854078
aF84.77564102564102
aF84.41489361702128
aF84.0572033898305
aF83.70253164556962
aF83.35084033613445
aF83.0020920502092
aF82.65625
aF82.31327800829875
aF81.97314049586777
aF82.81893004115227
aF82.47950819672131
aF82.14285714285714
aF84.14634146341463
aF84.96963562753037
aF85.78629032258065
aF85.4417670682731
aF85.1
aF84.7609561752988
aF84.42460317460318
aF84.0909090909091
aF83.75984251968504
aF83.4313725490196
aF83.10546875
aF82.78210116731518
aF83.57558139534883
aF83.25289575289575
aF82.9326923076923
aF82.61494252873563
aF82.29961832061069
aF81.98669201520913
aF82.76515151515152
aF82.45283018867924
aF82.14285714285714
aF81.83520599250936
aF81.52985074626866
aF81.2267657992565
aF80.92592592592592
aF81.68819188191881
aF81.38786764705883
aF82.14285714285714
aF81.84306569343066
aF81.54545454545455
aF81.25
aF81.99458483754513
aF81.69964028776978
aF82.43727598566308
aF82.14285714285714
aF81.8505338078292
aF83.59929078014184
aF83.30388692579506
aF85.03521126760563
assS'pos'
p21
(dp22
g17
(lp23
I0
aI100
aI200
aI300
aI400
aI500
aI600
aI700
aI800
aI900
aI1000
aI1100
aI1200
aI1300
aI1400
aI1500
aI1600
aI1700
aI1800
aI1900
aI2000
aI2100
aI2200
aI2300
aI2400
aI2500
aI2600
aI2700
aI2800
aI2900
aI3000
aI3100
aI3200
aI3300
aI3400
aI3500
aI3600
aI3700
aI3800
aI3900
aI4000
aI4100
aI4200
aI4300
aI4400
aI4500
aI4600
aI4700
aI4800
aI4900
aI5000
aI5100
aI5200
aI5300
aI5400
aI5500
aI5600
aI5700
aI5800
aI5900
aI6000
aI6100
aI6200
aI6300
aI6400
aI6500
aI6600
aI6700
aI6800
aI6900
aI7000
aI7100
aI7200
aI7300
aI7400
aI7500
aI7600
aI7700
aI7800
aI7900
aI8000
aI8100
aI8200
aI8300
aI8400
aI8500
aI8600
aI8700
aI8800
aI8900
aI9000
aI9100
aI9200
aI9300
aI9400
aI9500
aI9600
aI9700
aI9800
aI9900
aI10000
aI10100
aI10200
aI10300
aI10400
aI10500
aI10600
aI10700
aI10800
aI10900
aI11000
aI11100
aI11200
aI11300
aI11400
aI11500
aI11600
aI11700
aI11800
aI11900
aI12000
aI12100
aI12200
aI12300
aI12400
aI12500
aI12600
aI12700
aI12800
aI12900
aI13000
aI13100
aI13200
aI13300
aI13400
aI13500
aI13600
aI13700
aI13800
aI13900
aI14000
aI14100
aI14200
aI14300
aI14400
aI14500
aI14600
aI14700
aI14800
aI14900
aI15000
aI15100
aI15200
aI15300
aI15400
aI15500
aI15600
aI15700
aI15800
aI15900
aI16000
aI16100
aI16200
aI16300
aI16400
aI16500
aI16600
aI16700
aI16800
aI16900
aI17000
aI17100
aI17200
aI17300
aI17400
aI17500
aI17600
aI17700
aI17800
aI17900
aI18000
aI18100
aI18200
aI18300
aI18400
aI18500
aI18600
aI18700
aI18800
aI18900
aI19000
aI19100
aI19200
aI19300
aI19400
aI19500
aI19600
aI19700
aI19800
aI19900
aI20000
aI20100
aI20200
aI20300
aI20400
aI20500
aI20600
aI20700
aI20800
aI20900
aI21000
aI21100
aI21200
aI21300
aI21400
aI21500
aI21600
aI21700
aI21800
aI21900
aI22000
aI22100
aI22200
aI22300
aI22400
aI22500
aI22600
aI22700
aI22800
aI22900
aI23000
aI23100
aI23200
aI23300
aI23400
aI23500
aI23600
aI23700
aI23800
aI23900
aI24000
aI24100
aI24200
aI24300
aI24400
aI24500
aI24600
aI24700
aI24800
aI24900
aI25000
aI25100
aI25200
aI25300
aI25400
aI25500
aI25600
aI25700
aI25800
aI25900
aI26000
aI26100
aI26200
aI26300
aI26400
aI26500
aI26600
aI26700
aI26800
aI26900
aI27000
aI27100
aI27200
aI27300
aI27400
aI27500
aI27600
aI27700
aI27800
aI27900
aI28000
aI28100
aI28200
aI28300
aI28400
aI28500
asg21
(lp24
I0
aI0
aI0
aI0
aI0
aI0
aI0
aI0
aI0
aI0
aI0
aI0
aI0
aI0
aI0
aI1
aI1
aI1
aI2
aI3
aI3
aI4
aI5
aI5
aI5
aI5
aI5
aI6
aI8
aI8
aI8
aI8
aI9
aI9
aI9
aI9
aI10
aI10
aI10
aI10
aI10
aI11
aI11
aI12
aI13
aI13
aI14
aI16
aI16
aI16
aI17
aI17
aI17
aI17
aI17
aI19
aI20
aI20
aI20
aI20
aI20
aI20
aI20
aI21
aI23
aI23
aI23
aI24
aI24
aI24
aI24
aI24
aI25
aI25
aI25
aI25
aI26
aI26
aI26
aI27
aI28
aI28
aI28
aI28
aI28
aI29
aI29
aI29
aI29
aI29
aI29
aI29
aI29
aI29
aI29
aI29
aI30
aI30
aI31
aI32
aI32
aI33
aI33
aI33
aI33
aI33
aI33
aI33
aI33
aI33
aI33
aI33
aI33
aI36
aI36
aI36
aI36
aI37
aI38
aI39
aI39
aI40
aI40
aI41
aI41
aI41
aI41
aI43
aI43
aI43
aI43
aI43
aI44
aI44
aI46
aI47
aI47
aI47
aI47
aI47
aI47
aI48
aI48
aI48
aI48
aI49
aI49
aI49
aI49
aI49
aI49
aI49
aI50
aI50
aI50
aI50
aI50
aI50
aI50
aI51
aI51
aI51
aI51
aI51
aI52
aI52
aI52
aI52
aI52
aI52
aI52
aI52
aI52
aI52
aI53
aI53
aI53
aI53
aI53
aI53
aI55
aI55
aI56
aI56
aI56
aI56
aI56
aI56
aI57
aI58
aI59
aI59
aI59
aI59
aI59
aI59
aI59
aI59
aI59
aI60
aI60
aI60
aI60
aI60
aI60
aI61
aI61
aI63
aI63
aI63
aI63
aI63
aI65
aI65
aI66
aI67
aI67
aI67
aI67
aI67
aI67
aI67
aI67
aI67
aI68
aI68
aI68
aI68
aI68
aI68
aI68
aI68
aI68
aI69
aI69
aI69
aI69
aI69
aI69
aI69
aI69
aI69
aI69
aI70
aI70
aI70
aI72
aI73
aI74
aI74
aI74
aI74
aI74
aI74
aI74
aI74
aI74
aI74
aI75
aI75
aI75
aI75
aI75
aI75
aI76
aI76
aI76
aI76
aI76
aI76
aI76
aI77
aI77
aI78
aI78
aI78
aI78
aI79
aI79
aI80
aI80
aI80
aI82
aI82
aI84
aI85
asssS'Code Quality'
p25
(dp26
S'est'
p27
(dp28
S'x'
p29
(lp30
I100
aI200
aI300
aI400
aI500
aI600
aI700
aI800
aI900
aI1000
aI1100
aI1200
aI1300
aI1400
aI1500
aI1600
aI1700
aI1800
aI1900
aI2000
aI2100
aI2200
aI2300
aI2400
aI2500
aI2600
aI2700
aI2800
aI2900
aI3000
aI3100
aI3200
aI3300
aI3400
aI3500
aI3600
aI3700
aI3800
aI3900
aI4000
aI4100
aI4200
aI4300
aI4400
aI4500
aI4600
aI4700
aI4800
aI4900
aI5000
aI5100
aI5200
aI5300
aI5400
aI5500
aI5600
aI5700
aI5800
aI5900
aI6000
aI6100
aI6200
aI6300
aI6400
aI6500
aI6600
aI6700
aI6800
aI6900
aI7000
aI7100
aI7200
aI7300
aI7400
aI7500
aI7600
aI7700
aI7800
aI7900
aI8000
aI8100
aI8200
aI8300
aI8400
aI8500
aI8600
aI8700
aI8800
aI8900
aI9000
aI9100
aI9200
aI9300
aI9400
aI9500
aI9600
aI9700
aI9800
aI9900
aI10000
aI10100
aI10200
aI10300
aI10400
aI10500
aI10600
aI10700
aI10800
aI10900
aI11000
aI11100
aI11200
aI11300
aI11400
aI11500
aI11600
aI11700
aI11800
aI11900
aI12000
aI12100
aI12200
aI12300
aI12400
aI12500
aI12600
aI12700
aI12800
aI12900
aI13000
aI13100
aI13200
aI13300
aI13400
aI13500
aI13600
aI13700
aI13800
aI13900
aI14000
aI14100
aI14200
aI14300
aI14400
aI14500
aI14600
aI14700
aI14800
aI14900
aI15000
aI15100
aI15200
aI15300
aI15400
aI15500
aI15600
aI15700
aI15800
aI15900
aI16000
aI16100
aI16200
aI16300
aI16400
aI16500
aI16600
aI16700
aI16800
aI16900
aI17000
aI17100
aI17200
aI17300
aI17400
aI17500
aI17600
aI17700
aI17800
aI17900
aI18000
aI18100
aI18200
aI18300
aI18400
aI18500
aI18600
aI18700
aI18800
aI18900
aI19000
aI19100
aI19200
aI19300
aI19400
aI19500
aI19600
aI19700
aI19800
aI19900
aI20000
aI20100
aI20200
aI20300
aI20400
aI20500
aI20600
aI20700
aI20800
aI20900
aI21000
aI21100
aI21200
aI21300
aI21400
aI21500
aI21600
aI21700
aI21800
aI21900
aI22000
aI22100
aI22200
aI22300
aI22400
aI22500
aI22600
aI22700
aI22800
aI22900
aI23000
aI23100
aI23200
aI23300
aI23400
aI23500
aI23600
aI23700
aI23800
aI23900
aI24000
aI24100
aI24200
aI24300
aI24400
aI24500
aI24600
aI24700
aI24800
aI24900
aI25000
aI25100
aI25200
aI25300
aI25400
aI25500
aI25600
aI25700
aI25800
aI25900
aI26000
aI26100
aI26200
aI26300
aI26400
aI26500
aI26600
aI26700
aI26800
aI26900
aI27000
aI27100
aI27200
aI27300
aI27400
aI27500
aI27600
aI27700
aI27800
aI27900
aI28000
aI28100
aI28200
aI28300
aI28400
aI28500
aI28600
aI28700
asS'semi'
p31
(lp32
F0.0
aF0.0
aF0.0
aF0.0
aF0.0
aF0.0
aF0.0
aF0.0
aF0.0
aF0.0
aF0.0
aF0.0
aF0.0
aF0.0
aF0.0
aF0.0
aF16.91176470588235
aF15.972222222222221
aF15.131578947368421
aF14.375
aF13.69047619047619
aF13.068181818181818
aF12.5
aF11.979166666666668
aF11.5
aF11.057692307692308
aF10.648148148148147
aF10.267857142857142
aF9.913793103448276
aF9.583333333333332
aF9.274193548387096
aF17.96875
aF17.424242424242426
aF16.91176470588235
aF24.642857142857142
aF23.958333333333336
aF23.31081081081081
aF22.69736842105263
aF22.115384615384617
aF21.5625
aF21.036585365853657
aF20.535714285714285
aF20.058139534883722
aF19.60227272727273
aF19.166666666666664
aF18.75
aF24.46808510638298
aF23.958333333333336
aF23.46938775510204
aF23.0
aF22.549019607843135
aF22.115384615384617
aF27.12264150943396
aF26.62037037037037
aF26.136363636363637
aF25.669642857142858
aF25.219298245614034
aF24.78448275862069
aF24.364406779661017
aF23.958333333333336
aF23.565573770491802
aF23.18548387096774
aF22.817460317460316
aF22.4609375
aF22.115384615384617
aF21.78030303030303
aF25.746268656716417
aF25.36764705882353
aF25.0
aF24.642857142857142
aF24.295774647887324
aF23.958333333333336
aF23.63013698630137
aF27.195945945945944
aF26.833333333333332
aF26.480263157894736
aF26.136363636363637
aF25.80128205128205
aF25.474683544303797
aF25.15625
aF24.84567901234568
aF24.54268292682927
aF24.246987951807228
aF23.958333333333336
aF23.676470588235293
aF26.74418604651163
aF26.4367816091954
aF26.136363636363637
aF25.842696629213485
aF25.555555555555557
aF28.434065934065934
aF28.125000000000004
aF27.822580645161292
aF27.52659574468085
aF27.236842105263158
aF26.953125
aF26.675257731958762
aF32.27040816326531
aF31.944444444444443
aF31.625000000000004
aF31.311881188118814
aF31.004901960784313
aF30.703883495145632
aF30.408653846153847
aF30.11904761904762
aF29.83490566037736
aF29.556074766355138
aF29.282407407407405
aF29.013761467889907
aF28.75
aF28.490990990990994
aF28.236607142857146
aF27.986725663716815
aF27.74122807017544
aF27.5
aF27.262931034482758
aF27.02991452991453
aF26.80084745762712
aF26.57563025210084
aF26.354166666666668
aF26.136363636363637
aF25.922131147540984
aF25.711382113821138
aF25.504032258064516
aF25.3
aF27.38095238095238
aF27.165354330708663
aF26.953125
aF26.74418604651163
aF26.538461538461537
aF26.335877862595417
aF26.136363636363637
aF25.93984962406015
aF25.746268656716417
aF25.555555555555557
aF25.36764705882353
aF25.182481751824817
aF25.0
aF24.820143884892087
aF24.642857142857142
aF26.50709219858156
aF26.320422535211268
aF26.136363636363637
aF25.95486111111111
aF25.775862068965516
aF25.599315068493148
aF25.42517006802721
aF25.25337837837838
aF25.083892617449663
aF24.916666666666664
aF24.751655629139073
aF24.588815789473685
aF24.4281045751634
aF26.136363636363637
aF25.96774193548387
aF25.80128205128205
aF25.636942675159236
aF25.474683544303797
aF25.31446540880503
aF25.15625
aF25.0
aF24.84567901234568
aF24.693251533742334
aF26.295731707317074
aF26.136363636363637
aF25.978915662650603
aF25.823353293413174
aF25.669642857142858
aF25.517751479289938
aF27.058823529411764
aF26.900584795321638
aF26.74418604651163
aF26.589595375722542
aF26.4367816091954
aF26.285714285714285
aF26.136363636363637
aF25.98870056497175
aF25.842696629213485
aF25.69832402234637
aF25.555555555555557
aF25.414364640883978
aF25.274725274725274
aF26.707650273224044
aF26.5625
aF26.41891891891892
aF26.276881720430108
aF26.136363636363637
aF25.997340425531917
aF25.859788359788357
aF25.723684210526315
aF25.589005235602095
aF25.455729166666664
aF25.323834196891195
aF25.193298969072167
aF26.538461538461537
aF26.403061224489793
aF26.269035532994923
aF26.136363636363637
aF26.00502512562814
aF25.875
aF27.176616915422883
aF28.465346534653467
aF29.74137931034483
aF29.59558823529412
aF29.451219512195124
aF29.308252427184467
aF29.166666666666668
aF29.026442307692307
aF28.88755980861244
aF28.75
aF28.613744075829384
aF28.478773584905657
aF28.34507042253521
aF28.212616822429908
aF28.08139534883721
aF27.95138888888889
aF27.822580645161292
aF27.69495412844037
aF27.56849315068493
aF27.44318181818182
aF27.31900452488688
aF27.195945945945944
aF27.073991031390136
aF26.953125
aF26.833333333333332
aF26.714601769911503
aF26.59691629955947
aF26.480263157894736
aF26.364628820960696
aF26.25
aF26.136363636363637
aF26.023706896551726
aF25.912017167381975
aF25.80128205128205
aF25.691489361702125
aF26.80084745762712
aF26.68776371308017
aF27.78361344537815
aF27.667364016736403
aF27.552083333333332
aF27.437759336099585
aF27.324380165289256
aF27.2119341563786
aF27.100409836065577
aF26.98979591836735
aF26.880081300813007
aF27.93522267206478
aF27.822580645161292
aF27.710843373493976
aF27.6
aF27.49003984063745
aF27.38095238095238
aF27.272727272727273
aF28.29724409448819
aF28.186274509803923
aF28.076171875
aF27.966926070038912
aF27.858527131782946
aF27.75096525096525
aF27.64423076923077
aF27.53831417624521
aF27.433206106870227
aF27.328897338403042
aF27.22537878787879
aF27.12264150943396
aF27.02067669172932
aF26.919475655430713
aF26.81902985074627
aF26.719330855018587
aF26.62037037037037
aF26.522140221402214
aF26.424632352941178
aF26.32783882783883
aF26.23175182481752
aF26.136363636363637
aF26.041666666666668
aF25.947653429602887
aF25.85431654676259
aF26.7921146953405
aF26.69642857142857
aF26.601423487544483
aF26.50709219858156
aF27.429328621908127
aF27.33274647887324
aF28.24561403508772
aF28.146853146853147
aF28.048780487804876
assS'pos'
p33
(dp34
g29
(lp35
I0
aI100
aI200
aI300
aI400
aI500
aI600
aI700
aI800
aI900
aI1000
aI1100
aI1200
aI1300
aI1400
aI1500
aI1600
aI1700
aI1800
aI1900
aI2000
aI2100
aI2200
aI2300
aI2400
aI2500
aI2600
aI2700
aI2800
aI2900
aI3000
aI3100
aI3200
aI3300
aI3400
aI3500
aI3600
aI3700
aI3800
aI3900
aI4000
aI4100
aI4200
aI4300
aI4400
aI4500
aI4600
aI4700
aI4800
aI4900
aI5000
aI5100
aI5200
aI5300
aI5400
aI5500
aI5600
aI5700
aI5800
aI5900
aI6000
aI6100
aI6200
aI6300
aI6400
aI6500
aI6600
aI6700
aI6800
aI6900
aI7000
aI7100
aI7200
aI7300
aI7400
aI7500
aI7600
aI7700
aI7800
aI7900
aI8000
aI8100
aI8200
aI8300
aI8400
aI8500
aI8600
aI8700
aI8800
aI8900
aI9000
aI9100
aI9200
aI9300
aI9400
aI9500
aI9600
aI9700
aI9800
aI9900
aI10000
aI10100
aI10200
aI10300
aI10400
aI10500
aI10600
aI10700
aI10800
aI10900
aI11000
aI11100
aI11200
aI11300
aI11400
aI11500
aI11600
aI11700
aI11800
aI11900
aI12000
aI12100
aI12200
aI12300
aI12400
aI12500
aI12600
aI12700
aI12800
aI12900
aI13000
aI13100
aI13200
aI13300
aI13400
aI13500
aI13600
aI13700
aI13800
aI13900
aI14000
aI14100
aI14200
aI14300
aI14400
aI14500
aI14600
aI14700
aI14800
aI14900
aI15000
aI15100
aI15200
aI15300
aI15400
aI15500
aI15600
aI15700
aI15800
aI15900
aI16000
aI16100
aI16200
aI16300
aI16400
aI16500
aI16600
aI16700
aI16800
aI16900
aI17000
aI17100
aI17200
aI17300
aI17400
aI17500
aI17600
aI17700
aI17800
aI17900
aI18000
aI18100
aI18200
aI18300
aI18400
aI18500
aI18600
aI18700
aI18800
aI18900
aI19000
aI19100
aI19200
aI19300
aI19400
aI19500
aI19600
aI19700
aI19800
aI19900
aI20000
aI20100
aI20200
aI20300
aI20400
aI20500
aI20600
aI20700
aI20800
aI20900
aI21000
aI21100
aI21200
aI21300
aI21400
aI21500
aI21600
aI21700
aI21800
aI21900
aI22000
aI22100
aI22200
aI22300
aI22400
aI22500
aI22600
aI22700
aI22800
aI22900
aI23000
aI23100
aI23200
aI23300
aI23400
aI23500
aI23600
aI23700
aI23800
aI23900
aI24000
aI24100
aI24200
aI24300
aI24400
aI24500
aI24600
aI24700
aI24800
aI24900
aI25000
aI25100
aI25200
aI25300
aI25400
aI25500
aI25600
aI25700
aI25800
aI25900
aI26000
aI26100
aI26200
aI26300
aI26400
aI26500
aI26600
aI26700
aI26800
aI26900
aI27000
aI27100
aI27200
aI27300
aI27400
aI27500
aI27600
aI27700
aI27800
aI27900
aI28000
aI28100
aI28200
aI28300
aI28400
aI28500
aI28600
aI28700
aI28750
asg33
(lp36
I0
aI0
aI0
aI0
aI0
aI0
aI0
aI0
aI0
aI0
aI0
aI0
aI0
aI0
aI0
aI0
aI0
aI1
aI1
aI1
aI1
aI1
aI1
aI1
aI1
aI1
aI1
aI1
aI1
aI1
aI1
aI1
aI2
aI2
aI2
aI3
aI3
aI3
aI3
aI3
aI3
aI3
aI3
aI3
aI3
aI3
aI3
aI4
aI4
aI4
aI4
aI4
aI4
aI5
aI5
aI5
aI5
aI5
aI5
aI5
aI5
aI5
aI5
aI5
aI5
aI5
aI5
aI6
aI6
aI6
aI6
aI6
aI6
aI6
aI7
aI7
aI7
aI7
aI7
aI7
aI7
aI7
aI7
aI7
aI7
aI7
aI8
aI8
aI8
aI8
aI8
aI9
aI9
aI9
aI9
aI9
aI9
aI9
aI11
aI11
aI11
aI11
aI11
aI11
aI11
aI11
aI11
aI11
aI11
aI11
aI11
aI11
aI11
aI11
aI11
aI11
aI11
aI11
aI11
aI11
aI11
aI11
aI11
aI11
aI11
aI11
aI12
aI12
aI12
aI12
aI12
aI12
aI12
aI12
aI12
aI12
aI12
aI12
aI12
aI12
aI12
aI13
aI13
aI13
aI13
aI13
aI13
aI13
aI13
aI13
aI13
aI13
aI13
aI13
aI14
aI14
aI14
aI14
aI14
aI14
aI14
aI14
aI14
aI14
aI15
aI15
aI15
aI15
aI15
aI15
aI16
aI16
aI16
aI16
aI16
aI16
aI16
aI16
aI16
aI16
aI16
aI16
aI16
aI17
aI17
aI17
aI17
aI17
aI17
aI17
aI17
aI17
aI17
aI17
aI17
aI18
aI18
aI18
aI18
aI18
aI18
aI19
aI20
aI21
aI21
aI21
aI21
aI21
aI21
aI21
aI21
aI21
aI21
aI21
aI21
aI21
aI21
aI21
aI21
aI21
aI21
aI21
aI21
aI21
aI21
aI21
aI21
aI21
aI21
aI21
aI21
aI21
aI21
aI21
aI21
aI21
aI22
aI22
aI23
aI23
aI23
aI23
aI23
aI23
aI23
aI23
aI23
aI24
aI24
aI24
aI24
aI24
aI24
aI24
aI25
aI25
aI25
aI25
aI25
aI25
aI25
aI25
aI25
aI25
aI25
aI25
aI25
aI25
aI25
aI25
aI25
aI25
aI25
aI25
aI25
aI25
aI25
aI25
aI25
aI26
aI26
aI26
aI26
aI27
aI27
aI28
aI28
aI28
aI29
asssS'Other'
p37
(dp38
S'est'
p39
(dp40
S'x'
p41
(lp42
I100
aI200
aI300
aI400
aI500
aI600
aI700
aI800
aI900
aI1000
aI1100
aI1200
aI1300
aI1400
aI1500
aI1600
aI1700
aI1800
aI1900
aI2000
aI2100
aI2200
aI2300
aI2400
aI2500
aI2600
aI2700
aI2800
aI2900
aI3000
aI3100
aI3200
aI3300
aI3400
aI3500
aI3600
aI3700
aI3800
aI3900
aI4000
aI4100
aI4200
aI4300
aI4400
aI4500
aI4600
aI4700
aI4800
aI4900
aI5000
aI5100
aI5200
aI5300
aI5400
aI5500
aI5600
aI5700
aI5800
aI5900
aI6000
aI6100
aI6200
aI6300
aI6400
aI6500
aI6600
aI6700
aI6800
aI6900
aI7000
aI7100
aI7200
aI7300
aI7400
aI7500
aI7600
aI7700
aI7800
aI7900
aI8000
aI8100
aI8200
aI8300
aI8400
aI8500
aI8600
aI8700
aI8800
aI8900
aI9000
aI9100
aI9200
aI9300
aI9400
aI9500
aI9600
aI9700
aI9800
aI9900
aI10000
aI10100
aI10200
aI10300
aI10400
aI10500
aI10600
aI10700
aI10800
aI10900
aI11000
aI11100
aI11200
aI11300
aI11400
aI11500
aI11600
aI11700
aI11800
aI11900
aI12000
aI12100
aI12200
aI12300
aI12400
aI12500
aI12600
aI12700
aI12800
aI12900
aI13000
aI13100
aI13200
aI13300
aI13400
aI13500
aI13600
aI13700
aI13800
aI13900
aI14000
aI14100
aI14200
aI14300
aI14400
aI14500
aI14600
aI14700
aI14800
aI14900
aI15000
aI15100
aI15200
aI15300
aI15400
aI15500
aI15600
aI15700
aI15800
aI15900
aI16000
aI16100
aI16200
aI16300
aI16400
aI16500
aI16600
aI16700
aI16800
aI16900
aI17000
aI17100
aI17200
aI17300
aI17400
aI17500
aI17600
aI17700
aI17800
aI17900
aI18000
aI18100
aI18200
aI18300
aI18400
aI18500
aI18600
aI18700
aI18800
aI18900
aI19000
aI19100
aI19200
aI19300
aI19400
aI19500
aI19600
aI19700
aI19800
aI19900
aI20000
aI20100
aI20200
aI20300
aI20400
aI20500
aI20600
aI20700
aI20800
aI20900
aI21000
aI21100
aI21200
aI21300
aI21400
aI21500
aI21600
aI21700
aI21800
aI21900
aI22000
aI22100
aI22200
aI22300
aI22400
aI22500
aI22600
aI22700
aI22800
aI22900
aI23000
aI23100
aI23200
aI23300
aI23400
aI23500
aI23600
aI23700
aI23800
aI23900
aI24000
aI24100
aI24200
aI24300
aI24400
aI24500
aI24600
aI24700
aI24800
aI24900
aI25000
aI25100
aI25200
aI25300
aI25400
aI25500
aI25600
aI25700
aI25800
aI25900
aI26000
aI26100
aI26200
aI26300
aI26400
aI26500
aI26600
aI26700
aI26800
aI26900
aI27000
aI27100
aI27200
aI27300
aI27400
aI27500
aI27600
aI27700
aI27800
aI27900
aI28000
aI28100
aI28200
aI28300
aI28400
aI28500
asS'semi'
p43
(lp44
F0.0
aF0.0
aF0.0
aF0.0
aF0.0
aF0.0
aF0.0
aF35.9375
aF31.944444444444443
aF28.75
aF26.136363636363637
aF23.958333333333336
aF22.115384615384617
aF20.535714285714285
aF19.166666666666664
aF17.96875
aF16.91176470588235
aF15.972222222222221
aF15.131578947368421
aF14.375
aF13.69047619047619
aF13.068181818181818
aF12.5
aF11.979166666666668
aF11.5
aF11.057692307692308
aF10.648148148148147
aF10.267857142857142
aF9.913793103448276
aF9.583333333333332
aF9.274193548387096
aF8.984375
aF8.712121212121213
aF8.455882352941176
aF8.214285714285715
aF7.986111111111111
aF7.77027027027027
aF7.565789473684211
aF7.371794871794871
aF14.375
aF14.024390243902438
aF13.69047619047619
aF13.372093023255815
aF19.60227272727273
aF19.166666666666664
aF18.75
aF18.351063829787233
aF17.96875
aF17.60204081632653
aF17.25
aF16.91176470588235
aF16.586538461538463
aF16.27358490566038
aF15.972222222222221
aF20.909090909090907
aF20.535714285714285
aF20.175438596491226
aF19.82758620689655
aF19.491525423728813
aF19.166666666666664
aF18.852459016393443
aF18.548387096774192
aF18.253968253968253
aF17.96875
aF22.115384615384617
aF21.78030303030303
aF21.455223880597014
aF21.139705882352942
aF20.833333333333332
aF24.642857142857142
aF24.295774647887324
aF23.958333333333336
aF23.63013698630137
aF23.31081081081081
aF23.0
aF22.69736842105263
aF22.4025974025974
aF22.115384615384617
aF21.835443037974684
aF21.5625
aF21.296296296296294
aF21.036585365853657
aF20.783132530120483
aF23.958333333333336
aF23.676470588235293
aF23.401162790697676
aF23.132183908045977
aF22.869318181818183
aF22.6123595505618
aF22.36111111111111
aF22.115384615384617
aF21.875
aF21.63978494623656
aF21.409574468085108
aF24.210526315789476
aF23.958333333333336
aF23.711340206185568
aF23.46938775510204
aF23.232323232323232
aF23.0
aF22.772277227722775
aF22.549019607843135
aF22.330097087378643
aF24.879807692307693
aF24.642857142857142
aF24.410377358490564
aF24.182242990654206
aF23.958333333333336
aF23.738532110091743
aF23.522727272727273
aF23.31081081081081
aF23.10267857142857
aF22.898230088495577
aF22.69736842105263
aF22.5
aF22.30603448275862
aF22.115384615384617
aF21.927966101694917
aF21.743697478991596
aF21.5625
aF23.760330578512395
aF25.922131147540984
aF25.711382113821138
aF25.504032258064516
aF25.3
aF25.099206349206348
aF24.901574803149607
aF24.70703125
aF26.74418604651163
aF26.538461538461537
aF26.335877862595417
aF28.31439393939394
aF28.1015037593985
aF27.891791044776117
aF27.685185185185187
aF27.481617647058826
aF27.28102189781022
aF27.083333333333332
aF26.888489208633096
aF26.69642857142857
aF26.50709219858156
aF26.320422535211268
aF26.136363636363637
aF25.95486111111111
aF27.758620689655174
aF27.56849315068493
aF27.38095238095238
aF27.195945945945944
aF27.013422818791945
aF26.833333333333332
aF26.655629139072847
aF28.37171052631579
aF28.186274509803923
aF28.003246753246753
aF27.822580645161292
aF29.487179487179485
aF31.130573248407643
aF30.93354430379747
aF30.738993710691823
aF30.546875000000004
aF30.35714285714286
aF30.169753086419753
aF29.984662576687118
aF29.801829268292686
aF29.62121212121212
aF29.44277108433735
aF29.266467065868266
aF29.0922619047619
aF28.920118343195263
aF28.75
aF28.58187134502924
aF28.415697674418603
aF28.2514450867052
aF28.089080459770113
aF27.928571428571427
aF27.769886363636363
aF27.612994350282484
aF27.45786516853933
aF27.304469273743017
aF27.15277777777778
aF27.002762430939228
aF26.854395604395606
aF26.707650273224044
aF26.5625
aF26.41891891891892
aF26.276881720430108
aF26.136363636363637
aF25.997340425531917
aF25.859788359788357
aF25.723684210526315
aF25.589005235602095
aF25.455729166666664
aF25.323834196891195
aF25.193298969072167
aF25.064102564102566
aF26.403061224489793
aF26.269035532994923
aF26.136363636363637
aF26.00502512562814
aF25.875
aF27.176616915422883
aF27.042079207920793
aF26.908866995073893
aF26.776960784313726
aF26.646341463414632
aF26.516990291262136
aF26.38888888888889
aF26.26201923076923
aF26.136363636363637
aF26.011904761904763
aF25.88862559241706
aF25.766509433962263
aF25.645539906103288
aF25.52570093457944
aF28.08139534883721
aF27.95138888888889
aF27.822580645161292
aF29.013761467889907
aF28.881278538812783
aF28.75
aF28.619909502262445
aF28.490990990990994
aF28.36322869955157
aF28.236607142857146
aF28.11111111111111
aF29.258849557522122
aF29.129955947136562
aF29.00219298245614
aF28.875545851528386
aF28.75
aF28.625541125541126
aF28.502155172413794
aF28.379828326180256
aF28.258547008547012
aF28.138297872340427
aF28.01906779661017
aF27.90084388185654
aF27.78361344537815
aF27.667364016736403
aF27.552083333333332
aF27.437759336099585
aF27.324380165289256
aF27.2119341563786
aF27.100409836065577
aF26.98979591836735
aF26.880081300813007
aF26.771255060728745
aF26.663306451612904
aF26.556224899598394
aF27.6
aF27.49003984063745
aF28.521825396825395
aF28.409090909090907
aF28.29724409448819
aF28.186274509803923
aF28.076171875
aF27.966926070038912
aF27.858527131782946
aF27.75096525096525
aF27.64423076923077
aF27.53831417624521
aF28.53053435114504
aF28.422053231939167
aF28.31439393939394
aF28.20754716981132
aF29.18233082706767
aF29.07303370786517
aF30.03731343283582
aF29.92565055762082
aF29.814814814814817
aF29.70479704797048
aF29.59558823529412
aF29.487179487179485
aF29.379562043795623
aF30.318181818181817
aF30.208333333333336
aF31.137184115523464
aF31.025179856115106
aF30.913978494623656
aF30.80357142857143
aF30.693950177935946
aF30.585106382978722
aF30.477031802120138
aF31.382042253521128
aF31.2719298245614
assS'pos'
p45
(dp46
g41
(lp47
I0
aI100
aI200
aI300
aI400
aI500
aI600
aI700
aI800
aI900
aI1000
aI1100
aI1200
aI1300
aI1400
aI1500
aI1600
aI1700
aI1800
aI1900
aI2000
aI2100
aI2200
aI2300
aI2400
aI2500
aI2600
aI2700
aI2800
aI2900
aI3000
aI3100
aI3200
aI3300
aI3400
aI3500
aI3600
aI3700
aI3800
aI3900
aI4000
aI4100
aI4200
aI4300
aI4400
aI4500
aI4600
aI4700
aI4800
aI4900
aI5000
aI5100
aI5200
aI5300
aI5400
aI5500
aI5600
aI5700
aI5800
aI5900
aI6000
aI6100
aI6200
aI6300
aI6400
aI6500
aI6600
aI6700
aI6800
aI6900
aI7000
aI7100
aI7200
aI7300
aI7400
aI7500
aI7600
aI7700
aI7800
aI7900
aI8000
aI8100
aI8200
aI8300
aI8400
aI8500
aI8600
aI8700
aI8800
aI8900
aI9000
aI9100
aI9200
aI9300
aI9400
aI9500
aI9600
aI9700
aI9800
aI9900
aI10000
aI10100
aI10200
aI10300
aI10400
aI10500
aI10600
aI10700
aI10800
aI10900
aI11000
aI11100
aI11200
aI11300
aI11400
aI11500
aI11600
aI11700
aI11800
aI11900
aI12000
aI12100
aI12200
aI12300
aI12400
aI12500
aI12600
aI12700
aI12800
aI12900
aI13000
aI13100
aI13200
aI13300
aI13400
aI13500
aI13600
aI13700
aI13800
aI13900
aI14000
aI14100
aI14200
aI14300
aI14400
aI14500
aI14600
aI14700
aI14800
aI14900
aI15000
aI15100
aI15200
aI15300
aI15400
aI15500
aI15600
aI15700
aI15800
aI15900
aI16000
aI16100
aI16200
aI16300
aI16400
aI16500
aI16600
aI16700
aI16800
aI16900
aI17000
aI17100
aI17200
aI17300
aI17400
aI17500
aI17600
aI17700
aI17800
aI17900
aI18000
aI18100
aI18200
aI18300
aI18400
aI18500
aI18600
aI18700
aI18800
aI18900
aI19000
aI19100
aI19200
aI19300
aI19400
aI19500
aI19600
aI19700
aI19800
aI19900
aI20000
aI20100
aI20200
aI20300
aI20400
aI20500
aI20600
aI20700
aI20800
aI20900
aI21000
aI21100
aI21200
aI21300
aI21400
aI21500
aI21600
aI21700
aI21800
aI21900
aI22000
aI22100
aI22200
aI22300
aI22400
aI22500
aI22600
aI22700
aI22800
aI22900
aI23000
aI23100
aI23200
aI23300
aI23400
aI23500
aI23600
aI23700
aI23800
aI23900
aI24000
aI24100
aI24200
aI24300
aI24400
aI24500
aI24600
aI24700
aI24800
aI24900
aI25000
aI25100
aI25200
aI25300
aI25400
aI25500
aI25600
aI25700
aI25800
aI25900
aI26000
aI26100
aI26200
aI26300
aI26400
aI26500
aI26600
aI26700
aI26800
aI26900
aI27000
aI27100
aI27200
aI27300
aI27400
aI27500
aI27600
aI27700
aI27800
aI27900
aI28000
aI28100
aI28200
aI28300
aI28400
aI28500
aI28600
asg45
(lp48
I0
aI0
aI0
aI0
aI0
aI0
aI0
aI0
aI1
aI1
aI1
aI1
aI1
aI1
aI1
aI1
aI1
aI1
aI1
aI1
aI1
aI1
aI1
aI1
aI1
aI1
aI1
aI1
aI1
aI1
aI1
aI1
aI1
aI1
aI1
aI1
aI1
aI1
aI1
aI1
aI2
aI2
aI2
aI2
aI3
aI3
aI3
aI3
aI3
aI3
aI3
aI3
aI3
aI3
aI3
aI4
aI4
aI4
aI4
aI4
aI4
aI4
aI4
aI4
aI4
aI5
aI5
aI5
aI5
aI5
aI6
aI6
aI6
aI6
aI6
aI6
aI6
aI6
aI6
aI6
aI6
aI6
aI6
aI6
aI7
aI7
aI7
aI7
aI7
aI7
aI7
aI7
aI7
aI7
aI7
aI8
aI8
aI8
aI8
aI8
aI8
aI8
aI8
aI8
aI9
aI9
aI9
aI9
aI9
aI9
aI9
aI9
aI9
aI9
aI9
aI9
aI9
aI9
aI9
aI9
aI9
aI10
aI11
aI11
aI11
aI11
aI11
aI11
aI11
aI12
aI12
aI12
aI13
aI13
aI13
aI13
aI13
aI13
aI13
aI13
aI13
aI13
aI13
aI13
aI13
aI14
aI14
aI14
aI14
aI14
aI14
aI14
aI15
aI15
aI15
aI15
aI16
aI17
aI17
aI17
aI17
aI17
aI17
aI17
aI17
aI17
aI17
aI17
aI17
aI17
aI17
aI17
aI17
aI17
aI17
aI17
aI17
aI17
aI17
aI17
aI17
aI17
aI17
aI17
aI17
aI17
aI17
aI17
aI17
aI17
aI17
aI17
aI17
aI17
aI17
aI17
aI18
aI18
aI18
aI18
aI18
aI19
aI19
aI19
aI19
aI19
aI19
aI19
aI19
aI19
aI19
aI19
aI19
aI19
aI19
aI21
aI21
aI21
aI22
aI22
aI22
aI22
aI22
aI22
aI22
aI22
aI23
aI23
aI23
aI23
aI23
aI23
aI23
aI23
aI23
aI23
aI23
aI23
aI23
aI23
aI23
aI23
aI23
aI23
aI23
aI23
aI23
aI23
aI23
aI23
aI24
aI24
aI25
aI25
aI25
aI25
aI25
aI25
aI25
aI25
aI25
aI25
aI26
aI26
aI26
aI26
aI27
aI27
aI28
aI28
aI28
aI28
aI28
aI28
aI28
aI29
aI29
aI30
aI30
aI30
aI30
aI30
aI30
aI30
aI31
aI31
aI32
asssS'Range Error'
p49
(dp50
S'est'
p51
(dp52
S'x'
p53
(lp54
I100
aI200
aI300
aI400
aI500
aI600
aI700
aI800
aI900
aI1000
aI1100
aI1200
aI1300
aI1400
aI1500
aI1600
aI1700
aI1800
aI1900
aI2000
aI2100
aI2200
aI2300
aI2400
aI2500
aI2600
aI2700
aI2800
aI2900
aI3000
aI3100
aI3200
aI3300
aI3400
aI3500
aI3600
aI3700
aI3800
aI3900
aI4000
aI4100
aI4200
aI4300
aI4400
aI4500
aI4600
aI4700
aI4800
aI4900
aI5000
aI5100
aI5200
aI5300
aI5400
aI5500
aI5600
aI5700
aI5800
aI5900
aI6000
aI6100
aI6200
aI6300
aI6400
aI6500
aI6600
aI6700
aI6800
aI6900
aI7000
aI7100
aI7200
aI7300
aI7400
aI7500
aI7600
aI7700
aI7800
aI7900
aI8000
aI8100
aI8200
aI8300
aI8400
aI8500
aI8600
aI8700
aI8800
aI8900
aI9000
aI9100
aI9200
aI9300
aI9400
aI9500
aI9600
aI9700
aI9800
aI9900
aI10000
aI10100
aI10200
aI10300
aI10400
aI10500
aI10600
aI10700
aI10800
aI10900
aI11000
aI11100
aI11200
aI11300
aI11400
aI11500
aI11600
aI11700
aI11800
aI11900
aI12000
aI12100
aI12200
aI12300
aI12400
aI12500
aI12600
aI12700
aI12800
aI12900
aI13000
aI13100
aI13200
aI13300
aI13400
aI13500
aI13600
aI13700
aI13800
aI13900
aI14000
aI14100
aI14200
aI14300
aI14400
aI14500
aI14600
aI14700
aI14800
aI14900
aI15000
aI15100
aI15200
aI15300
aI15400
aI15500
aI15600
aI15700
aI15800
aI15900
aI16000
aI16100
aI16200
aI16300
aI16400
aI16500
aI16600
aI16700
aI16800
aI16900
aI17000
aI17100
aI17200
aI17300
aI17400
aI17500
aI17600
aI17700
aI17800
aI17900
aI18000
aI18100
aI18200
aI18300
aI18400
aI18500
aI18600
aI18700
aI18800
aI18900
aI19000
aI19100
aI19200
aI19300
aI19400
aI19500
aI19600
aI19700
aI19800
aI19900
aI20000
aI20100
aI20200
aI20300
aI20400
aI20500
aI20600
aI20700
aI20800
aI20900
aI21000
aI21100
aI21200
aI21300
aI21400
aI21500
aI21600
aI21700
aI21800
aI21900
aI22000
aI22100
aI22200
aI22300
aI22400
aI22500
aI22600
aI22700
aI22800
aI22900
aI23000
aI23100
aI23200
aI23300
aI23400
aI23500
aI23600
aI23700
aI23800
aI23900
aI24000
aI24100
aI24200
aI24300
aI24400
aI24500
aI24600
aI24700
aI24800
aI24900
aI25000
aI25100
aI25200
aI25300
aI25400
aI25500
aI25600
aI25700
aI25800
aI25900
aI26000
aI26100
aI26200
aI26300
aI26400
aI26500
aI26600
aI26700
aI26800
aI26900
aI27000
aI27100
aI27200
aI27300
asS'semi'
p55
(lp56
F0.0
aF0.0
aF0.0
aF71.875
aF57.5
aF47.91666666666667
aF41.07142857142857
aF71.875
aF63.888888888888886
aF86.25
aF78.40909090909092
aF71.875
aF66.34615384615385
aF61.60714285714286
aF57.5
aF53.90625
aF50.73529411764706
aF63.888888888888886
aF60.526315789473685
aF57.5
aF54.76190476190476
aF52.27272727272727
aF50.0
aF47.91666666666667
aF46.0
aF44.23076923076923
aF42.59259259259259
aF41.07142857142857
aF39.6551724137931
aF38.33333333333333
aF37.096774193548384
aF35.9375
aF34.84848484848485
aF33.8235294117647
aF32.85714285714286
aF39.93055555555556
aF38.851351351351354
aF37.828947368421055
aF36.85897435897436
aF43.125
aF49.08536585365854
aF47.91666666666667
aF46.80232558139535
aF45.73863636363637
aF44.72222222222222
aF43.75
aF42.819148936170215
aF41.927083333333336
aF41.07142857142857
aF40.25
aF39.46078431372549
aF38.70192307692307
aF43.39622641509434
aF42.59259259259259
aF41.81818181818181
aF41.07142857142857
aF40.35087719298245
aF39.6551724137931
aF38.983050847457626
aF38.33333333333333
aF37.704918032786885
aF37.096774193548384
aF41.07142857142857
aF44.921875
aF44.23076923076923
aF43.56060606060606
aF42.91044776119403
aF42.279411764705884
aF41.666666666666664
aF41.07142857142857
aF44.54225352112676
aF43.923611111111114
aF43.32191780821918
aF42.736486486486484
aF46.0
aF45.39473684210526
aF44.8051948051948
aF44.23076923076923
aF47.31012658227848
aF46.71875
aF46.141975308641975
aF45.57926829268293
aF45.03012048192771
aF44.49404761904762
aF43.97058823529412
aF43.45930232558139
aF42.95977011494253
aF42.47159090909091
aF41.99438202247191
aF41.52777777777778
aF41.07142857142857
aF40.625
aF40.18817204301075
aF39.76063829787234
aF39.34210526315789
aF38.93229166666667
aF38.53092783505155
aF38.13775510204082
aF40.656565656565654
aF40.25
aF39.85148514851485
aF39.46078431372549
aF39.07766990291262
aF38.70192307692307
aF38.33333333333333
aF37.97169811320755
aF42.99065420560748
aF42.59259259259259
aF42.20183486238532
aF41.81818181818181
aF41.44144144144144
aF43.638392857142854
aF43.25221238938053
aF42.87280701754386
aF42.5
aF42.133620689655174
aF41.77350427350427
aF41.41949152542373
aF41.07142857142857
aF40.72916666666667
aF42.768595041322314
aF42.41803278688525
aF44.41056910569106
aF44.05241935483871
aF43.7
aF43.35317460317461
aF43.011811023622045
aF42.67578125
aF42.34496124031008
aF42.019230769230774
aF41.69847328244275
aF41.38257575757576
aF41.07142857142857
aF42.91044776119403
aF42.59259259259259
aF42.279411764705884
aF41.97080291970803
aF43.75
aF43.435251798561154
aF45.17857142857143
aF44.858156028368796
aF44.54225352112676
aF44.23076923076923
aF45.92013888888889
aF47.58620689655172
aF47.26027397260274
aF46.93877551020408
aF46.62162162162162
aF46.308724832214764
aF47.91666666666667
aF47.59933774834437
aF47.286184210526315
aF46.97712418300654
aF46.672077922077925
aF46.37096774193548
aF46.07371794871795
aF45.78025477707006
aF45.49050632911392
aF45.204402515723274
aF44.921875
aF44.64285714285714
aF44.367283950617285
aF44.09509202453988
aF43.826219512195124
aF43.56060606060606
aF43.29819277108434
aF43.038922155688624
aF42.782738095238095
aF42.52958579881657
aF42.279411764705884
aF42.03216374269006
aF41.78779069767442
aF41.54624277456647
aF41.30747126436781
aF41.07142857142857
aF40.83806818181818
aF40.60734463276836
aF40.37921348314607
aF40.1536312849162
aF39.93055555555556
aF39.709944751381215
aF39.49175824175825
aF40.84699453551912
aF40.625
aF41.95945945945946
aF41.733870967741936
aF41.51069518716577
aF41.28989361702128
aF41.07142857142857
aF40.85526315789474
aF40.6413612565445
aF41.927083333333336
aF41.70984455958549
aF41.49484536082474
aF41.282051282051285
aF41.07142857142857
aF42.32233502538071
aF43.56060606060606
aF43.34170854271357
aF43.125
aF42.91044776119403
aF42.6980198019802
aF42.48768472906404
aF42.279411764705884
aF42.073170731707314
aF41.868932038834956
aF43.05555555555556
aF42.84855769230769
aF42.643540669856456
aF42.44047619047619
aF42.23933649289099
aF42.04009433962264
aF41.84272300469484
aF41.64719626168225
aF41.45348837209303
aF41.261574074074076
aF41.07142857142857
aF40.883027522935784
aF40.69634703196347
aF40.51136363636363
aF40.328054298642535
aF40.1463963963964
aF39.96636771300449
aF39.78794642857142
aF39.61111111111111
aF39.4358407079646
aF39.26211453744493
aF39.08991228070175
aF38.919213973799124
aF38.75
aF38.582251082251084
aF38.415948275862064
aF38.25107296137339
aF38.08760683760684
aF37.92553191489362
aF38.983050847457626
aF38.81856540084388
aF38.65546218487395
aF38.49372384937239
aF38.33333333333333
aF38.17427385892116
aF38.01652892561984
aF37.86008230452675
aF37.704918032786885
aF37.55102040816327
aF38.56707317073171
aF38.410931174089065
aF38.256048387096776
aF38.102409638554214
aF37.95
aF37.798804780876495
aF37.648809523809526
aF37.5
aF37.35236220472441
aF37.20588235294118
aF37.060546875
aF36.916342412451364
aF36.77325581395348
aF36.63127413127413
aF36.49038461538461
aF36.35057471264368
aF36.211832061068705
aF36.07414448669201
aF35.9375
aF35.801886792452834
aF35.66729323308271
aF35.53370786516854
aF35.401119402985074
aF35.26951672862453
aF35.138888888888886
aF35.00922509225092
aF35.9375
aF35.8058608058608
assS'pos'
p57
(dp58
g53
(lp59
I0
aI100
aI200
aI300
aI400
aI500
aI600
aI700
aI800
aI900
aI1000
aI1100
aI1200
aI1300
aI1400
aI1500
aI1600
aI1700
aI1800
aI1900
aI2000
aI2100
aI2200
aI2300
aI2400
aI2500
aI2600
aI2700
aI2800
aI2900
aI3000
aI3100
aI3200
aI3300
aI3400
aI3500
aI3600
aI3700
aI3800
aI3900
aI4000
aI4100
aI4200
aI4300
aI4400
aI4500
aI4600
aI4700
aI4800
aI4900
aI5000
aI5100
aI5200
aI5300
aI5400
aI5500
aI5600
aI5700
aI5800
aI5900
aI6000
aI6100
aI6200
aI6300
aI6400
aI6500
aI6600
aI6700
aI6800
aI6900
aI7000
aI7100
aI7200
aI7300
aI7400
aI7500
aI7600
aI7700
aI7800
aI7900
aI8000
aI8100
aI8200
aI8300
aI8400
aI8500
aI8600
aI8700
aI8800
aI8900
aI9000
aI9100
aI9200
aI9300
aI9400
aI9500
aI9600
aI9700
aI9800
aI9900
aI10000
aI10100
aI10200
aI10300
aI10400
aI10500
aI10600
aI10700
aI10800
aI10900
aI11000
aI11100
aI11200
aI11300
aI11400
aI11500
aI11600
aI11700
aI11800
aI11900
aI12000
aI12100
aI12200
aI12300
aI12400
aI12500
aI12600
aI12700
aI12800
aI12900
aI13000
aI13100
aI13200
aI13300
aI13400
aI13500
aI13600
aI13700
aI13800
aI13900
aI14000
aI14100
aI14200
aI14300
aI14400
aI14500
aI14600
aI14700
aI14800
aI14900
aI15000
aI15100
aI15200
aI15300
aI15400
aI15500
aI15600
aI15700
aI15800
aI15900
aI16000
aI16100
aI16200
aI16300
aI16400
aI16500
aI16600
aI16700
aI16800
aI16900
aI17000
aI17100
aI17200
aI17300
aI17400
aI17500
aI17600
aI17700
aI17800
aI17900
aI18000
aI18100
aI18200
aI18300
aI18400
aI18500
aI18600
aI18700
aI18800
aI18900
aI19000
aI19100
aI19200
aI19300
aI19400
aI19500
aI19600
aI19700
aI19800
aI19900
aI20000
aI20100
aI20200
aI20300
aI20400
aI20500
aI20600
aI20700
aI20800
aI20900
aI21000
aI21100
aI21200
aI21300
aI21400
aI21500
aI21600
aI21700
aI21800
aI21900
aI22000
aI22100
aI22200
aI22300
aI22400
aI22500
aI22600
aI22700
aI22800
aI22900
aI23000
aI23100
aI23200
aI23300
aI23400
aI23500
aI23600
aI23700
aI23800
aI23900
aI24000
aI24100
aI24200
aI24300
aI24400
aI24500
aI24600
aI24700
aI24800
aI24900
aI25000
aI25100
aI25200
aI25300
aI25400
aI25500
aI25600
aI25700
aI25800
aI25900
aI26000
aI26100
aI26200
aI26300
aI26400
aI26500
aI26600
aI26700
aI26800
aI26900
aI27000
aI27100
aI27200
aI27300
aI27400
asg57
(lp60
I0
aI0
aI0
aI0
aI1
aI1
aI1
aI1
aI2
aI2
aI3
aI3
aI3
aI3
aI3
aI3
aI3
aI3
aI4
aI4
aI4
aI4
aI4
aI4
aI4
aI4
aI4
aI4
aI4
aI4
aI4
aI4
aI4
aI4
aI4
aI4
aI5
aI5
aI5
aI5
aI6
aI7
aI7
aI7
aI7
aI7
aI7
aI7
aI7
aI7
aI7
aI7
aI7
aI8
aI8
aI8
aI8
aI8
aI8
aI8
aI8
aI8
aI8
aI9
aI10
aI10
aI10
aI10
aI10
aI10
aI10
aI11
aI11
aI11
aI11
aI12
aI12
aI12
aI12
aI13
aI13
aI13
aI13
aI13
aI13
aI13
aI13
aI13
aI13
aI13
aI13
aI13
aI13
aI13
aI13
aI13
aI13
aI13
aI13
aI14
aI14
aI14
aI14
aI14
aI14
aI14
aI14
aI16
aI16
aI16
aI16
aI16
aI17
aI17
aI17
aI17
aI17
aI17
aI17
aI17
aI17
aI18
aI18
aI19
aI19
aI19
aI19
aI19
aI19
aI19
aI19
aI19
aI19
aI19
aI20
aI20
aI20
aI20
aI21
aI21
aI22
aI22
aI22
aI22
aI23
aI24
aI24
aI24
aI24
aI24
aI25
aI25
aI25
aI25
aI25
aI25
aI25
aI25
aI25
aI25
aI25
aI25
aI25
aI25
aI25
aI25
aI25
aI25
aI25
aI25
aI25
aI25
aI25
aI25
aI25
aI25
aI25
aI25
aI25
aI25
aI25
aI25
aI25
aI26
aI26
aI27
aI27
aI27
aI27
aI27
aI27
aI27
aI28
aI28
aI28
aI28
aI28
aI29
aI30
aI30
aI30
aI30
aI30
aI30
aI30
aI30
aI30
aI31
aI31
aI31
aI31
aI31
aI31
aI31
aI31
aI31
aI31
aI31
aI31
aI31
aI31
aI31
aI31
aI31
aI31
aI31
aI31
aI31
aI31
aI31
aI31
aI31
aI31
aI31
aI31
aI31
aI32
aI32
aI32
aI32
aI32
aI32
aI32
aI32
aI32
aI32
aI33
aI33
aI33
aI33
aI33
aI33
aI33
aI33
aI33
aI33
aI33
aI33
aI33
aI33
aI33
aI33
aI33
aI33
aI33
aI33
aI33
aI33
aI33
aI33
aI33
aI33
aI34
aI34
aI35
asssS'Arbitrary Code'
p61
(dp62
S'est'
p63
(dp64
S'x'
p65
(lp66
I100
aI200
aI300
aI400
aI500
aI600
aI700
aI800
aI900
aI1000
aI1100
aI1200
aI1300
aI1400
aI1500
aI1600
aI1700
aI1800
aI1900
aI2000
aI2100
aI2200
aI2300
aI2400
aI2500
aI2600
aI2700
aI2800
aI2900
aI3000
aI3100
aI3200
aI3300
aI3400
aI3500
aI3600
aI3700
aI3800
aI3900
aI4000
aI4100
aI4200
aI4300
aI4400
aI4500
aI4600
aI4700
aI4800
aI4900
aI5000
aI5100
aI5200
aI5300
aI5400
aI5500
aI5600
aI5700
aI5800
aI5900
aI6000
aI6100
aI6200
aI6300
aI6400
aI6500
aI6600
aI6700
aI6800
aI6900
aI7000
aI7100
aI7200
aI7300
aI7400
aI7500
aI7600
aI7700
aI7800
aI7900
aI8000
aI8100
aI8200
aI8300
aI8400
aI8500
aI8600
aI8700
aI8800
aI8900
aI9000
aI9100
aI9200
aI9300
aI9400
aI9500
aI9600
aI9700
aI9800
aI9900
aI10000
aI10100
aI10200
aI10300
aI10400
aI10500
aI10600
aI10700
aI10800
aI10900
aI11000
aI11100
aI11200
aI11300
aI11400
aI11500
aI11600
aI11700
aI11800
aI11900
aI12000
aI12100
aI12200
aI12300
aI12400
aI12500
aI12600
aI12700
aI12800
aI12900
aI13000
aI13100
aI13200
aI13300
aI13400
aI13500
aI13600
aI13700
aI13800
aI13900
aI14000
aI14100
aI14200
aI14300
aI14400
aI14500
aI14600
aI14700
aI14800
aI14900
aI15000
aI15100
aI15200
aI15300
aI15400
aI15500
aI15600
aI15700
aI15800
aI15900
aI16000
aI16100
aI16200
aI16300
aI16400
aI16500
aI16600
aI16700
aI16800
aI16900
aI17000
aI17100
aI17200
aI17300
aI17400
aI17500
aI17600
aI17700
aI17800
aI17900
aI18000
aI18100
aI18200
aI18300
aI18400
aI18500
aI18600
aI18700
aI18800
aI18900
aI19000
aI19100
aI19200
aI19300
aI19400
aI19500
aI19600
aI19700
aI19800
aI19900
aI20000
aI20100
aI20200
aI20300
aI20400
aI20500
aI20600
aI20700
aI20800
aI20900
aI21000
aI21100
aI21200
aI21300
aI21400
aI21500
aI21600
aI21700
aI21800
aI21900
aI22000
aI22100
aI22200
aI22300
aI22400
aI22500
aI22600
aI22700
aI22800
aI22900
aI23000
aI23100
aI23200
aI23300
aI23400
aI23500
aI23600
aI23700
aI23800
aI23900
aI24000
aI24100
aI24200
aI24300
aI24400
aI24500
aI24600
aI24700
aI24800
aI24900
aI25000
aI25100
aI25200
aI25300
aI25400
aI25500
aI25600
aI25700
aI25800
aI25900
aI26000
aI26100
aI26200
aI26300
aI26400
aI26500
aI26600
aI26700
aI26800
aI26900
aI27000
aI27100
aI27200
aI27300
aI27400
aI27500
aI27600
aI27700
aI27800
aI27900
aI28000
aI28100
aI28200
aI28300
aI28400
aI28500
aI28600
aI28700
asS'semi'
p67
(lp68
F575.0
aF287.5
aF191.66666666666669
aF143.75
aF115.0
aF95.83333333333334
aF82.14285714285714
aF107.8125
aF95.83333333333334
aF115.0
aF104.54545454545455
aF95.83333333333334
aF88.46153846153847
aF102.67857142857143
aF95.83333333333334
aF107.8125
aF101.47058823529412
aF111.80555555555556
aF105.92105263157895
aF100.625
aF95.83333333333334
aF91.47727272727273
aF87.5
aF95.83333333333334
aF103.5
aF99.51923076923077
aF95.83333333333334
aF112.94642857142858
aF118.96551724137932
aF115.0
aF111.29032258064517
aF116.796875
aF113.25757575757576
aF109.9264705882353
aF106.78571428571428
aF119.79166666666667
aF132.09459459459458
aF128.61842105263156
aF132.6923076923077
aF129.375
aF126.21951219512196
aF123.21428571428572
aF120.34883720930233
aF124.14772727272728
aF121.38888888888887
aF118.74999999999999
aF122.34042553191489
aF125.78125000000001
aF123.21428571428572
aF126.50000000000001
aF124.01960784313725
aF121.63461538461539
aF130.18867924528303
aF127.77777777777777
aF125.45454545454545
aF123.21428571428572
aF126.09649122807016
aF123.92241379310344
aF121.82203389830508
aF124.58333333333333
aF127.25409836065573
aF125.2016129032258
aF123.21428571428572
aF125.78125000000001
aF123.84615384615384
aF126.32575757575756
aF128.7313432835821
aF126.83823529411765
aF129.16666666666666
aF131.42857142857144
aF133.6267605633803
aF139.75694444444446
aF137.84246575342468
aF135.97972972972974
aF141.83333333333331
aF139.9671052631579
aF138.14935064935065
aF136.37820512820514
aF134.65189873417722
aF132.96875
aF131.32716049382717
aF129.72560975609755
aF131.6265060240964
aF130.0595238095238
aF128.52941176470588
aF133.72093023255815
aF135.48850574712645
aF133.94886363636363
aF132.4438202247191
aF130.97222222222223
aF129.53296703296704
aF128.125
aF126.74731182795699
aF125.39893617021276
aF124.07894736842104
aF125.78125000000001
aF124.48453608247424
aF126.14795918367346
aF127.77777777777777
aF126.50000000000001
aF125.24752475247526
aF124.01960784313725
aF122.81553398058253
aF121.63461538461539
aF120.47619047619048
aF119.33962264150944
aF118.22429906542055
aF117.12962962962962
aF118.69266055045873
aF117.61363636363637
aF116.55405405405406
aF118.08035714285714
aF117.03539823008849
aF116.00877192982456
aF115.0
aF114.00862068965517
aF113.03418803418805
aF112.07627118644068
aF111.1344537815126
aF110.20833333333333
aF114.04958677685951
aF113.11475409836065
aF112.1951219512195
aF111.29032258064517
aF110.4
aF109.52380952380952
aF108.66141732283465
aF107.8125
aF106.97674418604652
aF106.15384615384615
aF105.34351145038167
aF111.07954545454545
aF110.24436090225564
aF111.56716417910447
aF112.87037037037037
aF112.0404411764706
aF111.22262773722628
aF110.41666666666666
aF109.62230215827338
aF108.83928571428572
aF108.06737588652483
aF107.30633802816902
aF106.55594405594407
aF105.81597222222221
aF105.08620689655173
aF104.36643835616438
aF103.65646258503402
aF104.89864864864865
aF104.19463087248322
aF103.5
aF102.81456953642385
aF102.13815789473685
aF101.47058823529412
aF102.67857142857143
aF103.87096774193547
aF103.2051282051282
aF108.04140127388536
aF107.35759493670885
aF106.68238993710692
aF107.8125
aF107.14285714285714
aF108.25617283950616
aF107.5920245398773
aF106.9359756097561
aF108.03030303030303
aF107.37951807228916
aF106.73652694610779
aF109.52380952380952
aF110.57692307692308
aF109.9264705882353
aF110.96491228070175
aF111.99127906976744
aF111.34393063583815
aF112.35632183908045
aF113.35714285714286
aF112.71306818181819
aF112.07627118644068
aF111.44662921348313
aF110.82402234636872
aF110.20833333333333
aF109.59944751381215
aF108.99725274725274
aF108.4016393442623
aF107.8125
aF107.22972972972973
aF106.65322580645162
aF106.08288770053476
aF107.04787234042554
aF106.48148148148148
aF107.43421052631578
aF106.8717277486911
aF106.31510416666667
aF105.76424870466322
aF105.21907216494844
aF104.67948717948718
aF105.61224489795917
aF107.99492385786802
aF108.90151515151516
aF108.35427135678391
aF109.25
aF110.136815920398
aF109.59158415841584
aF109.05172413793103
aF111.33578431372548
aF112.1951219512195
aF113.04611650485438
aF113.8888888888889
aF114.7235576923077
aF115.55023923444976
aF116.3690476190476
aF117.18009478672985
aF116.62735849056605
aF116.07981220657277
aF116.88084112149534
aF117.67441860465117
aF118.46064814814815
aF117.9147465437788
aF117.37385321100918
aF116.837899543379
aF117.61363636363637
aF117.08144796380091
aF116.55405405405406
aF117.32062780269058
aF116.796875
aF116.27777777777777
aF117.03539823008849
aF116.51982378854625
aF117.26973684210526
aF116.75764192139738
aF117.5
aF116.991341991342
aF116.48706896551724
aF115.98712446351931
aF115.49145299145299
aF115.0
aF116.94915254237289
aF116.45569620253166
aF115.96638655462185
aF115.48117154811716
aF116.19791666666666
aF115.71576763485477
aF115.23760330578511
aF115.94650205761316
aF117.82786885245902
aF117.34693877551021
aF118.03861788617886
aF117.56072874493927
aF117.08669354838709
aF117.7710843373494
aF118.45000000000002
aF119.12350597609561
aF118.65079365079366
aF118.18181818181819
aF117.71653543307087
aF117.25490196078432
aF116.796875
aF117.46108949416343
aF118.12015503875968
aF117.66409266409266
aF117.21153846153847
aF117.86398467432952
aF117.41412213740459
aF116.96768060836501
aF116.52462121212122
aF116.08490566037734
aF117.81015037593984
aF117.3689138576779
aF118.00373134328358
aF117.56505576208178
aF118.19444444444446
aF117.75830258302584
aF117.32536764705883
aF117.94871794871794
aF117.51824817518249
aF117.0909090909091
aF116.66666666666667
aF116.24548736462093
aF116.86151079136691
aF116.4426523297491
aF118.08035714285714
aF117.66014234875445
aF117.24290780141844
aF116.8286219081272
aF117.42957746478874
aF117.01754385964912
aF118.61888111888112
aF118.205574912892
assS'pos'
p69
(dp70
g65
(lp71
I0
aI100
aI200
aI300
aI400
aI500
aI600
aI700
aI800
aI900
aI1000
aI1100
aI1200
aI1300
aI1400
aI1500
aI1600
aI1700
aI1800
aI1900
aI2000
aI2100
aI2200
aI2300
aI2400
aI2500
aI2600
aI2700
aI2800
aI2900
aI3000
aI3100
aI3200
aI3300
aI3400
aI3500
aI3600
aI3700
aI3800
aI3900
aI4000
aI4100
aI4200
aI4300
aI4400
aI4500
aI4600
aI4700
aI4800
aI4900
aI5000
aI5100
aI5200
aI5300
aI5400
aI5500
aI5600
aI5700
aI5800
aI5900
aI6000
aI6100
aI6200
aI6300
aI6400
aI6500
aI6600
aI6700
aI6800
aI6900
aI7000
aI7100
aI7200
aI7300
aI7400
aI7500
aI7600
aI7700
aI7800
aI7900
aI8000
aI8100
aI8200
aI8300
aI8400
aI8500
aI8600
aI8700
aI8800
aI8900
aI9000
aI9100
aI9200
aI9300
aI9400
aI9500
aI9600
aI9700
aI9800
aI9900
aI10000
aI10100
aI10200
aI10300
aI10400
aI10500
aI10600
aI10700
aI10800
aI10900
aI11000
aI11100
aI11200
aI11300
aI11400
aI11500
aI11600
aI11700
aI11800
aI11900
aI12000
aI12100
aI12200
aI12300
aI12400
aI12500
aI12600
aI12700
aI12800
aI12900
aI13000
aI13100
aI13200
aI13300
aI13400
aI13500
aI13600
aI13700
aI13800
aI13900
aI14000
aI14100
aI14200
aI14300
aI14400
aI14500
aI14600
aI14700
aI14800
aI14900
aI15000
aI15100
aI15200
aI15300
aI15400
aI15500
aI15600
aI15700
aI15800
aI15900
aI16000
aI16100
aI16200
aI16300
aI16400
aI16500
aI16600
aI16700
aI16800
aI16900
aI17000
aI17100
aI17200
aI17300
aI17400
aI17500
aI17600
aI17700
aI17800
aI17900
aI18000
aI18100
aI18200
aI18300
aI18400
aI18500
aI18600
aI18700
aI18800
aI18900
aI19000
aI19100
aI19200
aI19300
aI19400
aI19500
aI19600
aI19700
aI19800
aI19900
aI20000
aI20100
aI20200
aI20300
aI20400
aI20500
aI20600
aI20700
aI20800
aI20900
aI21000
aI21100
aI21200
aI21300
aI21400
aI21500
aI21600
aI21700
aI21800
aI21900
aI22000
aI22100
aI22200
aI22300
aI22400
aI22500
aI22600
aI22700
aI22800
aI22900
aI23000
aI23100
aI23200
aI23300
aI23400
aI23500
aI23600
aI23700
aI23800
aI23900
aI24000
aI24100
aI24200
aI24300
aI24400
aI24500
aI24600
aI24700
aI24800
aI24900
aI25000
aI25100
aI25200
aI25300
aI25400
aI25500
aI25600
aI25700
aI25800
aI25900
aI26000
aI26100
aI26200
aI26300
aI26400
aI26500
aI26600
aI26700
aI26800
aI26900
aI27000
aI27100
aI27200
aI27300
aI27400
aI27500
aI27600
aI27700
aI27800
aI27900
aI28000
aI28100
aI28200
aI28300
aI28400
aI28500
aI28600
aI28700
aI28750
asg69
(lp72
I0
aI2
aI2
aI2
aI2
aI2
aI2
aI2
aI3
aI3
aI4
aI4
aI4
aI4
aI5
aI5
aI6
aI6
aI7
aI7
aI7
aI7
aI7
aI7
aI8
aI9
aI9
aI9
aI11
aI12
aI12
aI12
aI13
aI13
aI13
aI13
aI15
aI17
aI17
aI18
aI18
aI18
aI18
aI18
aI19
aI19
aI19
aI20
aI21
aI21
aI22
aI22
aI22
aI24
aI24
aI24
aI24
aI25
aI25
aI25
aI26
aI27
aI27
aI27
aI28
aI28
aI29
aI30
aI30
aI31
aI32
aI33
aI35
aI35
aI35
aI37
aI37
aI37
aI37
aI37
aI37
aI37
aI37
aI38
aI38
aI38
aI40
aI41
aI41
aI41
aI41
aI41
aI41
aI41
aI41
aI41
aI42
aI42
aI43
aI44
aI44
aI44
aI44
aI44
aI44
aI44
aI44
aI44
aI44
aI45
aI45
aI45
aI46
aI46
aI46
aI46
aI46
aI46
aI46
aI46
aI46
aI48
aI48
aI48
aI48
aI48
aI48
aI48
aI48
aI48
aI48
aI48
aI51
aI51
aI52
aI53
aI53
aI53
aI53
aI53
aI53
aI53
aI53
aI53
aI53
aI53
aI53
aI53
aI54
aI54
aI54
aI54
aI54
aI54
aI55
aI56
aI56
aI59
aI59
aI59
aI60
aI60
aI61
aI61
aI61
aI62
aI62
aI62
aI64
aI65
aI65
aI66
aI67
aI67
aI68
aI69
aI69
aI69
aI69
aI69
aI69
aI69
aI69
aI69
aI69
aI69
aI69
aI69
aI70
aI70
aI71
aI71
aI71
aI71
aI71
aI71
aI72
aI74
aI75
aI75
aI76
aI77
aI77
aI77
aI79
aI80
aI81
aI82
aI83
aI84
aI85
aI86
aI86
aI86
aI87
aI88
aI89
aI89
aI89
aI89
aI90
aI90
aI90
aI91
aI91
aI91
aI92
aI92
aI93
aI93
aI94
aI94
aI94
aI94
aI94
aI94
aI96
aI96
aI96
aI96
aI97
aI97
aI97
aI98
aI100
aI100
aI101
aI101
aI101
aI102
aI103
aI104
aI104
aI104
aI104
aI104
aI104
aI105
aI106
aI106
aI106
aI107
aI107
aI107
aI107
aI107
aI109
aI109
aI110
aI110
aI111
aI111
aI111
aI112
aI112
aI112
aI112
aI112
aI113
aI113
aI115
aI115
aI115
aI115
aI116
aI116
aI118
aI118
aI119
asss.