(dp0
S'Arbitrary Code'
p1
(dp2
S'est'
p3
(dp4
S'x'
p5
(lp6
sS'semi'
p7
(lp8
ssS'pos'
p9
(dp10
g5
(lp11
I0
aI1000
aI2000
aI3000
aI4000
aI5000
aI6000
aI7000
aI8000
aI9000
aI10000
aI11000
aI12000
aI13000
aI14000
aI15000
aI16000
aI17000
aI18000
asg9
(lp12
I0
aI4
aI10
aI16
aI16
aI16
aI79
aI90
aI95
aI100
aI101
aI104
aI110
aI114
aI114
aI115
aI116
aI116
aI118
asss.